ARM GAS  /tmp/cctR0i1S.s 			page 1


   1              		.cpu cortex-m7
   2              		.eabi_attribute 27, 1
   3              		.eabi_attribute 28, 1
   4              		.eabi_attribute 20, 1
   5              		.eabi_attribute 21, 1
   6              		.eabi_attribute 23, 3
   7              		.eabi_attribute 24, 1
   8              		.eabi_attribute 25, 1
   9              		.eabi_attribute 26, 1
  10              		.eabi_attribute 30, 2
  11              		.eabi_attribute 34, 1
  12              		.eabi_attribute 18, 4
  13              		.file	"etharp.c"
  14              		.text
  15              	.Ltext0:
  16              		.cfi_sections	.debug_frame
  17              		.section	.rodata.etharp_raw.str1.4,"aMS",%progbits,1
  18              		.align	2
  19              	.LC0:
  20 0000 6E657469 		.ascii	"netif != NULL\000"
  20      6620213D 
  20      204E554C 
  20      4C00
  21 000e 0000     		.align	2
  22              	.LC1:
  23 0010 63686563 		.ascii	"check that first pbuf can hold struct etharp_hdr\000"
  23      6B207468 
  23      61742066 
  23      69727374 
  23      20706275 
  24 0041 000000   		.align	2
  25              	.LC2:
  26 0044 6E657469 		.ascii	"netif->hwaddr_len must be the same as ETH_HWADDR_LE"
  26      662D3E68 
  26      77616464 
  26      725F6C65 
  26      6E206D75 
  27 0077 4E20666F 		.ascii	"N for etharp!\000"
  27      72206574 
  27      68617270 
  27      2100
  28              		.section	.text.etharp_raw,"ax",%progbits
  29              		.align	1
  30              		.p2align 2,,3
  31              		.arch armv7e-m
  32              		.syntax unified
  33              		.thumb
  34              		.thumb_func
  35              		.fpu fpv4-sp-d16
  37              	etharp_raw:
  38              	.LVL0:
  39              	.LFB116:
  40              		.file 1 "lwIP/src/core/ipv4/etharp.c"
   1:lwIP/src/core/ipv4/etharp.c **** /**
   2:lwIP/src/core/ipv4/etharp.c ****  * @file
   3:lwIP/src/core/ipv4/etharp.c ****  * Address Resolution Protocol module for IP over Ethernet
   4:lwIP/src/core/ipv4/etharp.c ****  *
ARM GAS  /tmp/cctR0i1S.s 			page 2


   5:lwIP/src/core/ipv4/etharp.c ****  * Functionally, ARP is divided into two parts. The first maps an IP address
   6:lwIP/src/core/ipv4/etharp.c ****  * to a physical address when sending a packet, and the second part answers
   7:lwIP/src/core/ipv4/etharp.c ****  * requests from other machines for our physical address.
   8:lwIP/src/core/ipv4/etharp.c ****  *
   9:lwIP/src/core/ipv4/etharp.c ****  * This implementation complies with RFC 826 (Ethernet ARP). It supports
  10:lwIP/src/core/ipv4/etharp.c ****  * Gratuitious ARP from RFC3220 (IP Mobility Support for IPv4) section 4.6
  11:lwIP/src/core/ipv4/etharp.c ****  * if an interface calls etharp_gratuitous(our_netif) upon address change.
  12:lwIP/src/core/ipv4/etharp.c ****  */
  13:lwIP/src/core/ipv4/etharp.c **** 
  14:lwIP/src/core/ipv4/etharp.c **** /*
  15:lwIP/src/core/ipv4/etharp.c ****  * Copyright (c) 2001-2003 Swedish Institute of Computer Science.
  16:lwIP/src/core/ipv4/etharp.c ****  * Copyright (c) 2003-2004 Leon Woestenberg <leon.woestenberg@axon.tv>
  17:lwIP/src/core/ipv4/etharp.c ****  * Copyright (c) 2003-2004 Axon Digital Design B.V., The Netherlands.
  18:lwIP/src/core/ipv4/etharp.c ****  * All rights reserved.
  19:lwIP/src/core/ipv4/etharp.c ****  *
  20:lwIP/src/core/ipv4/etharp.c ****  * Redistribution and use in source and binary forms, with or without modification,
  21:lwIP/src/core/ipv4/etharp.c ****  * are permitted provided that the following conditions are met:
  22:lwIP/src/core/ipv4/etharp.c ****  *
  23:lwIP/src/core/ipv4/etharp.c ****  * 1. Redistributions of source code must retain the above copyright notice,
  24:lwIP/src/core/ipv4/etharp.c ****  *    this list of conditions and the following disclaimer.
  25:lwIP/src/core/ipv4/etharp.c ****  * 2. Redistributions in binary form must reproduce the above copyright notice,
  26:lwIP/src/core/ipv4/etharp.c ****  *    this list of conditions and the following disclaimer in the documentation
  27:lwIP/src/core/ipv4/etharp.c ****  *    and/or other materials provided with the distribution.
  28:lwIP/src/core/ipv4/etharp.c ****  * 3. The name of the author may not be used to endorse or promote products
  29:lwIP/src/core/ipv4/etharp.c ****  *    derived from this software without specific prior written permission.
  30:lwIP/src/core/ipv4/etharp.c ****  *
  31:lwIP/src/core/ipv4/etharp.c ****  * THIS SOFTWARE IS PROVIDED BY THE AUTHOR ``AS IS'' AND ANY EXPRESS OR IMPLIED
  32:lwIP/src/core/ipv4/etharp.c ****  * WARRANTIES, INCLUDING, BUT NOT LIMITED TO, THE IMPLIED WARRANTIES OF
  33:lwIP/src/core/ipv4/etharp.c ****  * MERCHANTABILITY AND FITNESS FOR A PARTICULAR PURPOSE ARE DISCLAIMED. IN NO EVENT
  34:lwIP/src/core/ipv4/etharp.c ****  * SHALL THE AUTHOR BE LIABLE FOR ANY DIRECT, INDIRECT, INCIDENTAL, SPECIAL,
  35:lwIP/src/core/ipv4/etharp.c ****  * EXEMPLARY, OR CONSEQUENTIAL DAMAGES (INCLUDING, BUT NOT LIMITED TO, PROCUREMENT
  36:lwIP/src/core/ipv4/etharp.c ****  * OF SUBSTITUTE GOODS OR SERVICES; LOSS OF USE, DATA, OR PROFITS; OR BUSINESS
  37:lwIP/src/core/ipv4/etharp.c ****  * INTERRUPTION) HOWEVER CAUSED AND ON ANY THEORY OF LIABILITY, WHETHER IN
  38:lwIP/src/core/ipv4/etharp.c ****  * CONTRACT, STRICT LIABILITY, OR TORT (INCLUDING NEGLIGENCE OR OTHERWISE) ARISING
  39:lwIP/src/core/ipv4/etharp.c ****  * IN ANY WAY OUT OF THE USE OF THIS SOFTWARE, EVEN IF ADVISED OF THE POSSIBILITY
  40:lwIP/src/core/ipv4/etharp.c ****  * OF SUCH DAMAGE.
  41:lwIP/src/core/ipv4/etharp.c ****  *
  42:lwIP/src/core/ipv4/etharp.c ****  * This file is part of the lwIP TCP/IP stack.
  43:lwIP/src/core/ipv4/etharp.c ****  *
  44:lwIP/src/core/ipv4/etharp.c ****  */
  45:lwIP/src/core/ipv4/etharp.c **** 
  46:lwIP/src/core/ipv4/etharp.c **** #include "lwip/opt.h"
  47:lwIP/src/core/ipv4/etharp.c **** 
  48:lwIP/src/core/ipv4/etharp.c **** #if LWIP_IPV4 && LWIP_ARP /* don't build if not configured for use in lwipopts.h */
  49:lwIP/src/core/ipv4/etharp.c **** 
  50:lwIP/src/core/ipv4/etharp.c **** #include "lwip/etharp.h"
  51:lwIP/src/core/ipv4/etharp.c **** #include "lwip/stats.h"
  52:lwIP/src/core/ipv4/etharp.c **** #include "lwip/snmp.h"
  53:lwIP/src/core/ipv4/etharp.c **** #include "lwip/dhcp.h"
  54:lwIP/src/core/ipv4/etharp.c **** #include "lwip/autoip.h"
  55:lwIP/src/core/ipv4/etharp.c **** #include "lwip/prot/iana.h"
  56:lwIP/src/core/ipv4/etharp.c **** #include "netif/ethernet.h"
  57:lwIP/src/core/ipv4/etharp.c **** 
  58:lwIP/src/core/ipv4/etharp.c **** #include <string.h>
  59:lwIP/src/core/ipv4/etharp.c **** 
  60:lwIP/src/core/ipv4/etharp.c **** #ifdef LWIP_HOOK_FILENAME
  61:lwIP/src/core/ipv4/etharp.c **** #include LWIP_HOOK_FILENAME
ARM GAS  /tmp/cctR0i1S.s 			page 3


  62:lwIP/src/core/ipv4/etharp.c **** #endif
  63:lwIP/src/core/ipv4/etharp.c **** 
  64:lwIP/src/core/ipv4/etharp.c **** /** Re-request a used ARP entry 1 minute before it would expire to prevent
  65:lwIP/src/core/ipv4/etharp.c ****  *  breaking a steadily used connection because the ARP entry timed out. */
  66:lwIP/src/core/ipv4/etharp.c **** #define ARP_AGE_REREQUEST_USED_UNICAST   (ARP_MAXAGE - 30)
  67:lwIP/src/core/ipv4/etharp.c **** #define ARP_AGE_REREQUEST_USED_BROADCAST (ARP_MAXAGE - 15)
  68:lwIP/src/core/ipv4/etharp.c **** 
  69:lwIP/src/core/ipv4/etharp.c **** /** the time an ARP entry stays pending after first request,
  70:lwIP/src/core/ipv4/etharp.c ****  *  for ARP_TMR_INTERVAL = 1000, this is
  71:lwIP/src/core/ipv4/etharp.c ****  *  10 seconds.
  72:lwIP/src/core/ipv4/etharp.c ****  *
  73:lwIP/src/core/ipv4/etharp.c ****  *  @internal Keep this number at least 2, otherwise it might
  74:lwIP/src/core/ipv4/etharp.c ****  *  run out instantly if the timeout occurs directly after a request.
  75:lwIP/src/core/ipv4/etharp.c ****  */
  76:lwIP/src/core/ipv4/etharp.c **** #define ARP_MAXPENDING 5
  77:lwIP/src/core/ipv4/etharp.c **** 
  78:lwIP/src/core/ipv4/etharp.c **** /** ARP states */
  79:lwIP/src/core/ipv4/etharp.c **** enum etharp_state {
  80:lwIP/src/core/ipv4/etharp.c ****   ETHARP_STATE_EMPTY = 0,
  81:lwIP/src/core/ipv4/etharp.c ****   ETHARP_STATE_PENDING,
  82:lwIP/src/core/ipv4/etharp.c ****   ETHARP_STATE_STABLE,
  83:lwIP/src/core/ipv4/etharp.c ****   ETHARP_STATE_STABLE_REREQUESTING_1,
  84:lwIP/src/core/ipv4/etharp.c ****   ETHARP_STATE_STABLE_REREQUESTING_2
  85:lwIP/src/core/ipv4/etharp.c **** #if ETHARP_SUPPORT_STATIC_ENTRIES
  86:lwIP/src/core/ipv4/etharp.c ****   , ETHARP_STATE_STATIC
  87:lwIP/src/core/ipv4/etharp.c **** #endif /* ETHARP_SUPPORT_STATIC_ENTRIES */
  88:lwIP/src/core/ipv4/etharp.c **** };
  89:lwIP/src/core/ipv4/etharp.c **** 
  90:lwIP/src/core/ipv4/etharp.c **** struct etharp_entry {
  91:lwIP/src/core/ipv4/etharp.c **** #if ARP_QUEUEING
  92:lwIP/src/core/ipv4/etharp.c ****   /** Pointer to queue of pending outgoing packets on this ARP entry. */
  93:lwIP/src/core/ipv4/etharp.c ****   struct etharp_q_entry *q;
  94:lwIP/src/core/ipv4/etharp.c **** #else /* ARP_QUEUEING */
  95:lwIP/src/core/ipv4/etharp.c ****   /** Pointer to a single pending outgoing packet on this ARP entry. */
  96:lwIP/src/core/ipv4/etharp.c ****   struct pbuf *q;
  97:lwIP/src/core/ipv4/etharp.c **** #endif /* ARP_QUEUEING */
  98:lwIP/src/core/ipv4/etharp.c ****   ip4_addr_t ipaddr;
  99:lwIP/src/core/ipv4/etharp.c ****   struct netif *netif;
 100:lwIP/src/core/ipv4/etharp.c ****   struct eth_addr ethaddr;
 101:lwIP/src/core/ipv4/etharp.c ****   u16_t ctime;
 102:lwIP/src/core/ipv4/etharp.c ****   u8_t state;
 103:lwIP/src/core/ipv4/etharp.c **** };
 104:lwIP/src/core/ipv4/etharp.c **** 
 105:lwIP/src/core/ipv4/etharp.c **** static struct etharp_entry arp_table[ARP_TABLE_SIZE];
 106:lwIP/src/core/ipv4/etharp.c **** 
 107:lwIP/src/core/ipv4/etharp.c **** #if !LWIP_NETIF_HWADDRHINT
 108:lwIP/src/core/ipv4/etharp.c **** static netif_addr_idx_t etharp_cached_entry;
 109:lwIP/src/core/ipv4/etharp.c **** #endif /* !LWIP_NETIF_HWADDRHINT */
 110:lwIP/src/core/ipv4/etharp.c **** 
 111:lwIP/src/core/ipv4/etharp.c **** /** Try hard to create a new entry - we want the IP address to appear in
 112:lwIP/src/core/ipv4/etharp.c ****     the cache (even if this means removing an active entry or so). */
 113:lwIP/src/core/ipv4/etharp.c **** #define ETHARP_FLAG_TRY_HARD     1
 114:lwIP/src/core/ipv4/etharp.c **** #define ETHARP_FLAG_FIND_ONLY    2
 115:lwIP/src/core/ipv4/etharp.c **** #if ETHARP_SUPPORT_STATIC_ENTRIES
 116:lwIP/src/core/ipv4/etharp.c **** #define ETHARP_FLAG_STATIC_ENTRY 4
 117:lwIP/src/core/ipv4/etharp.c **** #endif /* ETHARP_SUPPORT_STATIC_ENTRIES */
 118:lwIP/src/core/ipv4/etharp.c **** 
ARM GAS  /tmp/cctR0i1S.s 			page 4


 119:lwIP/src/core/ipv4/etharp.c **** #if LWIP_NETIF_HWADDRHINT
 120:lwIP/src/core/ipv4/etharp.c **** #define ETHARP_SET_ADDRHINT(netif, addrhint)  do { if (((netif) != NULL) && ((netif)->hints != NULL
 121:lwIP/src/core/ipv4/etharp.c ****                                               (netif)->hints->addr_hint = (addrhint); }} while(0)
 122:lwIP/src/core/ipv4/etharp.c **** #else /* LWIP_NETIF_HWADDRHINT */
 123:lwIP/src/core/ipv4/etharp.c **** #define ETHARP_SET_ADDRHINT(netif, addrhint)  (etharp_cached_entry = (addrhint))
 124:lwIP/src/core/ipv4/etharp.c **** #endif /* LWIP_NETIF_HWADDRHINT */
 125:lwIP/src/core/ipv4/etharp.c **** 
 126:lwIP/src/core/ipv4/etharp.c **** 
 127:lwIP/src/core/ipv4/etharp.c **** /* Check for maximum ARP_TABLE_SIZE */
 128:lwIP/src/core/ipv4/etharp.c **** #if (ARP_TABLE_SIZE > NETIF_ADDR_IDX_MAX)
 129:lwIP/src/core/ipv4/etharp.c **** #error "ARP_TABLE_SIZE must fit in an s16_t, you have to reduce it in your lwipopts.h"
 130:lwIP/src/core/ipv4/etharp.c **** #endif
 131:lwIP/src/core/ipv4/etharp.c **** 
 132:lwIP/src/core/ipv4/etharp.c **** 
 133:lwIP/src/core/ipv4/etharp.c **** static err_t etharp_request_dst(struct netif *netif, const ip4_addr_t *ipaddr, const struct eth_add
 134:lwIP/src/core/ipv4/etharp.c **** static err_t etharp_raw(struct netif *netif,
 135:lwIP/src/core/ipv4/etharp.c ****                         const struct eth_addr *ethsrc_addr, const struct eth_addr *ethdst_addr,
 136:lwIP/src/core/ipv4/etharp.c ****                         const struct eth_addr *hwsrc_addr, const ip4_addr_t *ipsrc_addr,
 137:lwIP/src/core/ipv4/etharp.c ****                         const struct eth_addr *hwdst_addr, const ip4_addr_t *ipdst_addr,
 138:lwIP/src/core/ipv4/etharp.c ****                         const u16_t opcode);
 139:lwIP/src/core/ipv4/etharp.c **** 
 140:lwIP/src/core/ipv4/etharp.c **** #if ARP_QUEUEING
 141:lwIP/src/core/ipv4/etharp.c **** /**
 142:lwIP/src/core/ipv4/etharp.c ****  * Free a complete queue of etharp entries
 143:lwIP/src/core/ipv4/etharp.c ****  *
 144:lwIP/src/core/ipv4/etharp.c ****  * @param q a qeueue of etharp_q_entry's to free
 145:lwIP/src/core/ipv4/etharp.c ****  */
 146:lwIP/src/core/ipv4/etharp.c **** static void
 147:lwIP/src/core/ipv4/etharp.c **** free_etharp_q(struct etharp_q_entry *q)
 148:lwIP/src/core/ipv4/etharp.c **** {
 149:lwIP/src/core/ipv4/etharp.c ****   struct etharp_q_entry *r;
 150:lwIP/src/core/ipv4/etharp.c ****   LWIP_ASSERT("q != NULL", q != NULL);
 151:lwIP/src/core/ipv4/etharp.c ****   while (q) {
 152:lwIP/src/core/ipv4/etharp.c ****     r = q;
 153:lwIP/src/core/ipv4/etharp.c ****     q = q->next;
 154:lwIP/src/core/ipv4/etharp.c ****     LWIP_ASSERT("r->p != NULL", (r->p != NULL));
 155:lwIP/src/core/ipv4/etharp.c ****     pbuf_free(r->p);
 156:lwIP/src/core/ipv4/etharp.c ****     memp_free(MEMP_ARP_QUEUE, r);
 157:lwIP/src/core/ipv4/etharp.c ****   }
 158:lwIP/src/core/ipv4/etharp.c **** }
 159:lwIP/src/core/ipv4/etharp.c **** #else /* ARP_QUEUEING */
 160:lwIP/src/core/ipv4/etharp.c **** 
 161:lwIP/src/core/ipv4/etharp.c **** /** Compatibility define: free the queued pbuf */
 162:lwIP/src/core/ipv4/etharp.c **** #define free_etharp_q(q) pbuf_free(q)
 163:lwIP/src/core/ipv4/etharp.c **** 
 164:lwIP/src/core/ipv4/etharp.c **** #endif /* ARP_QUEUEING */
 165:lwIP/src/core/ipv4/etharp.c **** 
 166:lwIP/src/core/ipv4/etharp.c **** /** Clean up ARP table entries */
 167:lwIP/src/core/ipv4/etharp.c **** static void
 168:lwIP/src/core/ipv4/etharp.c **** etharp_free_entry(int i)
 169:lwIP/src/core/ipv4/etharp.c **** {
 170:lwIP/src/core/ipv4/etharp.c ****   /* remove from SNMP ARP index tree */
 171:lwIP/src/core/ipv4/etharp.c ****   mib2_remove_arp_entry(arp_table[i].netif, &arp_table[i].ipaddr);
 172:lwIP/src/core/ipv4/etharp.c ****   /* and empty packet queue */
 173:lwIP/src/core/ipv4/etharp.c ****   if (arp_table[i].q != NULL) {
 174:lwIP/src/core/ipv4/etharp.c ****     /* remove all queued packets */
 175:lwIP/src/core/ipv4/etharp.c ****     LWIP_DEBUGF(ETHARP_DEBUG, ("etharp_free_entry: freeing entry %"U16_F", packet queue %p.\n", (u1
ARM GAS  /tmp/cctR0i1S.s 			page 5


 176:lwIP/src/core/ipv4/etharp.c ****     free_etharp_q(arp_table[i].q);
 177:lwIP/src/core/ipv4/etharp.c ****     arp_table[i].q = NULL;
 178:lwIP/src/core/ipv4/etharp.c ****   }
 179:lwIP/src/core/ipv4/etharp.c ****   /* recycle entry for re-use */
 180:lwIP/src/core/ipv4/etharp.c ****   arp_table[i].state = ETHARP_STATE_EMPTY;
 181:lwIP/src/core/ipv4/etharp.c **** #ifdef LWIP_DEBUG
 182:lwIP/src/core/ipv4/etharp.c ****   /* for debugging, clean out the complete entry */
 183:lwIP/src/core/ipv4/etharp.c ****   arp_table[i].ctime = 0;
 184:lwIP/src/core/ipv4/etharp.c ****   arp_table[i].netif = NULL;
 185:lwIP/src/core/ipv4/etharp.c ****   ip4_addr_set_zero(&arp_table[i].ipaddr);
 186:lwIP/src/core/ipv4/etharp.c ****   arp_table[i].ethaddr = ethzero;
 187:lwIP/src/core/ipv4/etharp.c **** #endif /* LWIP_DEBUG */
 188:lwIP/src/core/ipv4/etharp.c **** }
 189:lwIP/src/core/ipv4/etharp.c **** 
 190:lwIP/src/core/ipv4/etharp.c **** /**
 191:lwIP/src/core/ipv4/etharp.c ****  * Clears expired entries in the ARP table.
 192:lwIP/src/core/ipv4/etharp.c ****  *
 193:lwIP/src/core/ipv4/etharp.c ****  * This function should be called every ARP_TMR_INTERVAL milliseconds (1 second),
 194:lwIP/src/core/ipv4/etharp.c ****  * in order to expire entries in the ARP table.
 195:lwIP/src/core/ipv4/etharp.c ****  */
 196:lwIP/src/core/ipv4/etharp.c **** void
 197:lwIP/src/core/ipv4/etharp.c **** etharp_tmr(void)
 198:lwIP/src/core/ipv4/etharp.c **** {
 199:lwIP/src/core/ipv4/etharp.c ****   int i;
 200:lwIP/src/core/ipv4/etharp.c **** 
 201:lwIP/src/core/ipv4/etharp.c ****   LWIP_DEBUGF(ETHARP_DEBUG, ("etharp_timer\n"));
 202:lwIP/src/core/ipv4/etharp.c ****   /* remove expired entries from the ARP table */
 203:lwIP/src/core/ipv4/etharp.c ****   for (i = 0; i < ARP_TABLE_SIZE; ++i) {
 204:lwIP/src/core/ipv4/etharp.c ****     u8_t state = arp_table[i].state;
 205:lwIP/src/core/ipv4/etharp.c ****     if (state != ETHARP_STATE_EMPTY
 206:lwIP/src/core/ipv4/etharp.c **** #if ETHARP_SUPPORT_STATIC_ENTRIES
 207:lwIP/src/core/ipv4/etharp.c ****         && (state != ETHARP_STATE_STATIC)
 208:lwIP/src/core/ipv4/etharp.c **** #endif /* ETHARP_SUPPORT_STATIC_ENTRIES */
 209:lwIP/src/core/ipv4/etharp.c ****        ) {
 210:lwIP/src/core/ipv4/etharp.c ****       arp_table[i].ctime++;
 211:lwIP/src/core/ipv4/etharp.c ****       if ((arp_table[i].ctime >= ARP_MAXAGE) ||
 212:lwIP/src/core/ipv4/etharp.c ****           ((arp_table[i].state == ETHARP_STATE_PENDING)  &&
 213:lwIP/src/core/ipv4/etharp.c ****            (arp_table[i].ctime >= ARP_MAXPENDING))) {
 214:lwIP/src/core/ipv4/etharp.c ****         /* pending or stable entry has become old! */
 215:lwIP/src/core/ipv4/etharp.c ****         LWIP_DEBUGF(ETHARP_DEBUG, ("etharp_timer: expired %s entry %d.\n",
 216:lwIP/src/core/ipv4/etharp.c ****                                    arp_table[i].state >= ETHARP_STATE_STABLE ? "stable" : "pending"
 217:lwIP/src/core/ipv4/etharp.c ****         /* clean up entries that have just been expired */
 218:lwIP/src/core/ipv4/etharp.c ****         etharp_free_entry(i);
 219:lwIP/src/core/ipv4/etharp.c ****       } else if (arp_table[i].state == ETHARP_STATE_STABLE_REREQUESTING_1) {
 220:lwIP/src/core/ipv4/etharp.c ****         /* Don't send more than one request every 2 seconds. */
 221:lwIP/src/core/ipv4/etharp.c ****         arp_table[i].state = ETHARP_STATE_STABLE_REREQUESTING_2;
 222:lwIP/src/core/ipv4/etharp.c ****       } else if (arp_table[i].state == ETHARP_STATE_STABLE_REREQUESTING_2) {
 223:lwIP/src/core/ipv4/etharp.c ****         /* Reset state to stable, so that the next transmitted packet will
 224:lwIP/src/core/ipv4/etharp.c ****            re-send an ARP request. */
 225:lwIP/src/core/ipv4/etharp.c ****         arp_table[i].state = ETHARP_STATE_STABLE;
 226:lwIP/src/core/ipv4/etharp.c ****       } else if (arp_table[i].state == ETHARP_STATE_PENDING) {
 227:lwIP/src/core/ipv4/etharp.c ****         /* still pending, resend an ARP query */
 228:lwIP/src/core/ipv4/etharp.c ****         etharp_request(arp_table[i].netif, &arp_table[i].ipaddr);
 229:lwIP/src/core/ipv4/etharp.c ****       }
 230:lwIP/src/core/ipv4/etharp.c ****     }
 231:lwIP/src/core/ipv4/etharp.c ****   }
 232:lwIP/src/core/ipv4/etharp.c **** }
ARM GAS  /tmp/cctR0i1S.s 			page 6


 233:lwIP/src/core/ipv4/etharp.c **** 
 234:lwIP/src/core/ipv4/etharp.c **** /**
 235:lwIP/src/core/ipv4/etharp.c ****  * Search the ARP table for a matching or new entry.
 236:lwIP/src/core/ipv4/etharp.c ****  *
 237:lwIP/src/core/ipv4/etharp.c ****  * If an IP address is given, return a pending or stable ARP entry that matches
 238:lwIP/src/core/ipv4/etharp.c ****  * the address. If no match is found, create a new entry with this address set,
 239:lwIP/src/core/ipv4/etharp.c ****  * but in state ETHARP_EMPTY. The caller must check and possibly change the
 240:lwIP/src/core/ipv4/etharp.c ****  * state of the returned entry.
 241:lwIP/src/core/ipv4/etharp.c ****  *
 242:lwIP/src/core/ipv4/etharp.c ****  * If ipaddr is NULL, return a initialized new entry in state ETHARP_EMPTY.
 243:lwIP/src/core/ipv4/etharp.c ****  *
 244:lwIP/src/core/ipv4/etharp.c ****  * In all cases, attempt to create new entries from an empty entry. If no
 245:lwIP/src/core/ipv4/etharp.c ****  * empty entries are available and ETHARP_FLAG_TRY_HARD flag is set, recycle
 246:lwIP/src/core/ipv4/etharp.c ****  * old entries. Heuristic choose the least important entry for recycling.
 247:lwIP/src/core/ipv4/etharp.c ****  *
 248:lwIP/src/core/ipv4/etharp.c ****  * @param ipaddr IP address to find in ARP cache, or to add if not found.
 249:lwIP/src/core/ipv4/etharp.c ****  * @param flags See @ref etharp_state
 250:lwIP/src/core/ipv4/etharp.c ****  * @param netif netif related to this address (used for NETIF_HWADDRHINT)
 251:lwIP/src/core/ipv4/etharp.c ****  *
 252:lwIP/src/core/ipv4/etharp.c ****  * @return The ARP entry index that matched or is created, ERR_MEM if no
 253:lwIP/src/core/ipv4/etharp.c ****  * entry is found or could be recycled.
 254:lwIP/src/core/ipv4/etharp.c ****  */
 255:lwIP/src/core/ipv4/etharp.c **** static s16_t
 256:lwIP/src/core/ipv4/etharp.c **** etharp_find_entry(const ip4_addr_t *ipaddr, u8_t flags, struct netif *netif)
 257:lwIP/src/core/ipv4/etharp.c **** {
 258:lwIP/src/core/ipv4/etharp.c ****   s16_t old_pending = ARP_TABLE_SIZE, old_stable = ARP_TABLE_SIZE;
 259:lwIP/src/core/ipv4/etharp.c ****   s16_t empty = ARP_TABLE_SIZE;
 260:lwIP/src/core/ipv4/etharp.c ****   s16_t i = 0;
 261:lwIP/src/core/ipv4/etharp.c ****   /* oldest entry with packets on queue */
 262:lwIP/src/core/ipv4/etharp.c ****   s16_t old_queue = ARP_TABLE_SIZE;
 263:lwIP/src/core/ipv4/etharp.c ****   /* its age */
 264:lwIP/src/core/ipv4/etharp.c ****   u16_t age_queue = 0, age_pending = 0, age_stable = 0;
 265:lwIP/src/core/ipv4/etharp.c **** 
 266:lwIP/src/core/ipv4/etharp.c ****   LWIP_UNUSED_ARG(netif);
 267:lwIP/src/core/ipv4/etharp.c **** 
 268:lwIP/src/core/ipv4/etharp.c ****   /**
 269:lwIP/src/core/ipv4/etharp.c ****    * a) do a search through the cache, remember candidates
 270:lwIP/src/core/ipv4/etharp.c ****    * b) select candidate entry
 271:lwIP/src/core/ipv4/etharp.c ****    * c) create new entry
 272:lwIP/src/core/ipv4/etharp.c ****    */
 273:lwIP/src/core/ipv4/etharp.c **** 
 274:lwIP/src/core/ipv4/etharp.c ****   /* a) in a single search sweep, do all of this
 275:lwIP/src/core/ipv4/etharp.c ****    * 1) remember the first empty entry (if any)
 276:lwIP/src/core/ipv4/etharp.c ****    * 2) remember the oldest stable entry (if any)
 277:lwIP/src/core/ipv4/etharp.c ****    * 3) remember the oldest pending entry without queued packets (if any)
 278:lwIP/src/core/ipv4/etharp.c ****    * 4) remember the oldest pending entry with queued packets (if any)
 279:lwIP/src/core/ipv4/etharp.c ****    * 5) search for a matching IP entry, either pending or stable
 280:lwIP/src/core/ipv4/etharp.c ****    *    until 5 matches, or all entries are searched for.
 281:lwIP/src/core/ipv4/etharp.c ****    */
 282:lwIP/src/core/ipv4/etharp.c **** 
 283:lwIP/src/core/ipv4/etharp.c ****   for (i = 0; i < ARP_TABLE_SIZE; ++i) {
 284:lwIP/src/core/ipv4/etharp.c ****     u8_t state = arp_table[i].state;
 285:lwIP/src/core/ipv4/etharp.c ****     /* no empty entry found yet and now we do find one? */
 286:lwIP/src/core/ipv4/etharp.c ****     if ((empty == ARP_TABLE_SIZE) && (state == ETHARP_STATE_EMPTY)) {
 287:lwIP/src/core/ipv4/etharp.c ****       LWIP_DEBUGF(ETHARP_DEBUG, ("etharp_find_entry: found empty entry %d\n", (int)i));
 288:lwIP/src/core/ipv4/etharp.c ****       /* remember first empty entry */
 289:lwIP/src/core/ipv4/etharp.c ****       empty = i;
ARM GAS  /tmp/cctR0i1S.s 			page 7


 290:lwIP/src/core/ipv4/etharp.c ****     } else if (state != ETHARP_STATE_EMPTY) {
 291:lwIP/src/core/ipv4/etharp.c ****       LWIP_ASSERT("state == ETHARP_STATE_PENDING || state >= ETHARP_STATE_STABLE",
 292:lwIP/src/core/ipv4/etharp.c ****                   state == ETHARP_STATE_PENDING || state >= ETHARP_STATE_STABLE);
 293:lwIP/src/core/ipv4/etharp.c ****       /* if given, does IP address match IP address in ARP entry? */
 294:lwIP/src/core/ipv4/etharp.c ****       if (ipaddr && ip4_addr_cmp(ipaddr, &arp_table[i].ipaddr)
 295:lwIP/src/core/ipv4/etharp.c **** #if ETHARP_TABLE_MATCH_NETIF
 296:lwIP/src/core/ipv4/etharp.c ****           && ((netif == NULL) || (netif == arp_table[i].netif))
 297:lwIP/src/core/ipv4/etharp.c **** #endif /* ETHARP_TABLE_MATCH_NETIF */
 298:lwIP/src/core/ipv4/etharp.c ****          ) {
 299:lwIP/src/core/ipv4/etharp.c ****         LWIP_DEBUGF(ETHARP_DEBUG | LWIP_DBG_TRACE, ("etharp_find_entry: found matching entry %d\n",
 300:lwIP/src/core/ipv4/etharp.c ****         /* found exact IP address match, simply bail out */
 301:lwIP/src/core/ipv4/etharp.c ****         return i;
 302:lwIP/src/core/ipv4/etharp.c ****       }
 303:lwIP/src/core/ipv4/etharp.c ****       /* pending entry? */
 304:lwIP/src/core/ipv4/etharp.c ****       if (state == ETHARP_STATE_PENDING) {
 305:lwIP/src/core/ipv4/etharp.c ****         /* pending with queued packets? */
 306:lwIP/src/core/ipv4/etharp.c ****         if (arp_table[i].q != NULL) {
 307:lwIP/src/core/ipv4/etharp.c ****           if (arp_table[i].ctime >= age_queue) {
 308:lwIP/src/core/ipv4/etharp.c ****             old_queue = i;
 309:lwIP/src/core/ipv4/etharp.c ****             age_queue = arp_table[i].ctime;
 310:lwIP/src/core/ipv4/etharp.c ****           }
 311:lwIP/src/core/ipv4/etharp.c ****         } else
 312:lwIP/src/core/ipv4/etharp.c ****           /* pending without queued packets? */
 313:lwIP/src/core/ipv4/etharp.c ****         {
 314:lwIP/src/core/ipv4/etharp.c ****           if (arp_table[i].ctime >= age_pending) {
 315:lwIP/src/core/ipv4/etharp.c ****             old_pending = i;
 316:lwIP/src/core/ipv4/etharp.c ****             age_pending = arp_table[i].ctime;
 317:lwIP/src/core/ipv4/etharp.c ****           }
 318:lwIP/src/core/ipv4/etharp.c ****         }
 319:lwIP/src/core/ipv4/etharp.c ****         /* stable entry? */
 320:lwIP/src/core/ipv4/etharp.c ****       } else if (state >= ETHARP_STATE_STABLE) {
 321:lwIP/src/core/ipv4/etharp.c **** #if ETHARP_SUPPORT_STATIC_ENTRIES
 322:lwIP/src/core/ipv4/etharp.c ****         /* don't record old_stable for static entries since they never expire */
 323:lwIP/src/core/ipv4/etharp.c ****         if (state < ETHARP_STATE_STATIC)
 324:lwIP/src/core/ipv4/etharp.c **** #endif /* ETHARP_SUPPORT_STATIC_ENTRIES */
 325:lwIP/src/core/ipv4/etharp.c ****         {
 326:lwIP/src/core/ipv4/etharp.c ****           /* remember entry with oldest stable entry in oldest, its age in maxtime */
 327:lwIP/src/core/ipv4/etharp.c ****           if (arp_table[i].ctime >= age_stable) {
 328:lwIP/src/core/ipv4/etharp.c ****             old_stable = i;
 329:lwIP/src/core/ipv4/etharp.c ****             age_stable = arp_table[i].ctime;
 330:lwIP/src/core/ipv4/etharp.c ****           }
 331:lwIP/src/core/ipv4/etharp.c ****         }
 332:lwIP/src/core/ipv4/etharp.c ****       }
 333:lwIP/src/core/ipv4/etharp.c ****     }
 334:lwIP/src/core/ipv4/etharp.c ****   }
 335:lwIP/src/core/ipv4/etharp.c ****   /* { we have no match } => try to create a new entry */
 336:lwIP/src/core/ipv4/etharp.c **** 
 337:lwIP/src/core/ipv4/etharp.c ****   /* don't create new entry, only search? */
 338:lwIP/src/core/ipv4/etharp.c ****   if (((flags & ETHARP_FLAG_FIND_ONLY) != 0) ||
 339:lwIP/src/core/ipv4/etharp.c ****       /* or no empty entry found and not allowed to recycle? */
 340:lwIP/src/core/ipv4/etharp.c ****       ((empty == ARP_TABLE_SIZE) && ((flags & ETHARP_FLAG_TRY_HARD) == 0))) {
 341:lwIP/src/core/ipv4/etharp.c ****     LWIP_DEBUGF(ETHARP_DEBUG | LWIP_DBG_TRACE, ("etharp_find_entry: no empty entry found and not al
 342:lwIP/src/core/ipv4/etharp.c ****     return (s16_t)ERR_MEM;
 343:lwIP/src/core/ipv4/etharp.c ****   }
 344:lwIP/src/core/ipv4/etharp.c **** 
 345:lwIP/src/core/ipv4/etharp.c ****   /* b) choose the least destructive entry to recycle:
 346:lwIP/src/core/ipv4/etharp.c ****    * 1) empty entry
ARM GAS  /tmp/cctR0i1S.s 			page 8


 347:lwIP/src/core/ipv4/etharp.c ****    * 2) oldest stable entry
 348:lwIP/src/core/ipv4/etharp.c ****    * 3) oldest pending entry without queued packets
 349:lwIP/src/core/ipv4/etharp.c ****    * 4) oldest pending entry with queued packets
 350:lwIP/src/core/ipv4/etharp.c ****    *
 351:lwIP/src/core/ipv4/etharp.c ****    * { ETHARP_FLAG_TRY_HARD is set at this point }
 352:lwIP/src/core/ipv4/etharp.c ****    */
 353:lwIP/src/core/ipv4/etharp.c **** 
 354:lwIP/src/core/ipv4/etharp.c ****   /* 1) empty entry available? */
 355:lwIP/src/core/ipv4/etharp.c ****   if (empty < ARP_TABLE_SIZE) {
 356:lwIP/src/core/ipv4/etharp.c ****     i = empty;
 357:lwIP/src/core/ipv4/etharp.c ****     LWIP_DEBUGF(ETHARP_DEBUG | LWIP_DBG_TRACE, ("etharp_find_entry: selecting empty entry %d\n", (i
 358:lwIP/src/core/ipv4/etharp.c ****   } else {
 359:lwIP/src/core/ipv4/etharp.c ****     /* 2) found recyclable stable entry? */
 360:lwIP/src/core/ipv4/etharp.c ****     if (old_stable < ARP_TABLE_SIZE) {
 361:lwIP/src/core/ipv4/etharp.c ****       /* recycle oldest stable*/
 362:lwIP/src/core/ipv4/etharp.c ****       i = old_stable;
 363:lwIP/src/core/ipv4/etharp.c ****       LWIP_DEBUGF(ETHARP_DEBUG | LWIP_DBG_TRACE, ("etharp_find_entry: selecting oldest stable entry
 364:lwIP/src/core/ipv4/etharp.c ****       /* no queued packets should exist on stable entries */
 365:lwIP/src/core/ipv4/etharp.c ****       LWIP_ASSERT("arp_table[i].q == NULL", arp_table[i].q == NULL);
 366:lwIP/src/core/ipv4/etharp.c ****       /* 3) found recyclable pending entry without queued packets? */
 367:lwIP/src/core/ipv4/etharp.c ****     } else if (old_pending < ARP_TABLE_SIZE) {
 368:lwIP/src/core/ipv4/etharp.c ****       /* recycle oldest pending */
 369:lwIP/src/core/ipv4/etharp.c ****       i = old_pending;
 370:lwIP/src/core/ipv4/etharp.c ****       LWIP_DEBUGF(ETHARP_DEBUG | LWIP_DBG_TRACE, ("etharp_find_entry: selecting oldest pending entr
 371:lwIP/src/core/ipv4/etharp.c ****       /* 4) found recyclable pending entry with queued packets? */
 372:lwIP/src/core/ipv4/etharp.c ****     } else if (old_queue < ARP_TABLE_SIZE) {
 373:lwIP/src/core/ipv4/etharp.c ****       /* recycle oldest pending (queued packets are free in etharp_free_entry) */
 374:lwIP/src/core/ipv4/etharp.c ****       i = old_queue;
 375:lwIP/src/core/ipv4/etharp.c ****       LWIP_DEBUGF(ETHARP_DEBUG | LWIP_DBG_TRACE, ("etharp_find_entry: selecting oldest pending entr
 376:lwIP/src/core/ipv4/etharp.c ****       /* no empty or recyclable entries found */
 377:lwIP/src/core/ipv4/etharp.c ****     } else {
 378:lwIP/src/core/ipv4/etharp.c ****       LWIP_DEBUGF(ETHARP_DEBUG | LWIP_DBG_TRACE, ("etharp_find_entry: no empty or recyclable entrie
 379:lwIP/src/core/ipv4/etharp.c ****       return (s16_t)ERR_MEM;
 380:lwIP/src/core/ipv4/etharp.c ****     }
 381:lwIP/src/core/ipv4/etharp.c **** 
 382:lwIP/src/core/ipv4/etharp.c ****     /* { empty or recyclable entry found } */
 383:lwIP/src/core/ipv4/etharp.c ****     LWIP_ASSERT("i < ARP_TABLE_SIZE", i < ARP_TABLE_SIZE);
 384:lwIP/src/core/ipv4/etharp.c ****     etharp_free_entry(i);
 385:lwIP/src/core/ipv4/etharp.c ****   }
 386:lwIP/src/core/ipv4/etharp.c **** 
 387:lwIP/src/core/ipv4/etharp.c ****   LWIP_ASSERT("i < ARP_TABLE_SIZE", i < ARP_TABLE_SIZE);
 388:lwIP/src/core/ipv4/etharp.c ****   LWIP_ASSERT("arp_table[i].state == ETHARP_STATE_EMPTY",
 389:lwIP/src/core/ipv4/etharp.c ****               arp_table[i].state == ETHARP_STATE_EMPTY);
 390:lwIP/src/core/ipv4/etharp.c **** 
 391:lwIP/src/core/ipv4/etharp.c ****   /* IP address given? */
 392:lwIP/src/core/ipv4/etharp.c ****   if (ipaddr != NULL) {
 393:lwIP/src/core/ipv4/etharp.c ****     /* set IP address */
 394:lwIP/src/core/ipv4/etharp.c ****     ip4_addr_copy(arp_table[i].ipaddr, *ipaddr);
 395:lwIP/src/core/ipv4/etharp.c ****   }
 396:lwIP/src/core/ipv4/etharp.c ****   arp_table[i].ctime = 0;
 397:lwIP/src/core/ipv4/etharp.c **** #if ETHARP_TABLE_MATCH_NETIF
 398:lwIP/src/core/ipv4/etharp.c ****   arp_table[i].netif = netif;
 399:lwIP/src/core/ipv4/etharp.c **** #endif /* ETHARP_TABLE_MATCH_NETIF */
 400:lwIP/src/core/ipv4/etharp.c ****   return (s16_t)i;
 401:lwIP/src/core/ipv4/etharp.c **** }
 402:lwIP/src/core/ipv4/etharp.c **** 
 403:lwIP/src/core/ipv4/etharp.c **** /**
ARM GAS  /tmp/cctR0i1S.s 			page 9


 404:lwIP/src/core/ipv4/etharp.c ****  * Update (or insert) a IP/MAC address pair in the ARP cache.
 405:lwIP/src/core/ipv4/etharp.c ****  *
 406:lwIP/src/core/ipv4/etharp.c ****  * If a pending entry is resolved, any queued packets will be sent
 407:lwIP/src/core/ipv4/etharp.c ****  * at this point.
 408:lwIP/src/core/ipv4/etharp.c ****  *
 409:lwIP/src/core/ipv4/etharp.c ****  * @param netif netif related to this entry (used for NETIF_ADDRHINT)
 410:lwIP/src/core/ipv4/etharp.c ****  * @param ipaddr IP address of the inserted ARP entry.
 411:lwIP/src/core/ipv4/etharp.c ****  * @param ethaddr Ethernet address of the inserted ARP entry.
 412:lwIP/src/core/ipv4/etharp.c ****  * @param flags See @ref etharp_state
 413:lwIP/src/core/ipv4/etharp.c ****  *
 414:lwIP/src/core/ipv4/etharp.c ****  * @return
 415:lwIP/src/core/ipv4/etharp.c ****  * - ERR_OK Successfully updated ARP cache.
 416:lwIP/src/core/ipv4/etharp.c ****  * - ERR_MEM If we could not add a new ARP entry when ETHARP_FLAG_TRY_HARD was set.
 417:lwIP/src/core/ipv4/etharp.c ****  * - ERR_ARG Non-unicast address given, those will not appear in ARP cache.
 418:lwIP/src/core/ipv4/etharp.c ****  *
 419:lwIP/src/core/ipv4/etharp.c ****  * @see pbuf_free()
 420:lwIP/src/core/ipv4/etharp.c ****  */
 421:lwIP/src/core/ipv4/etharp.c **** static err_t
 422:lwIP/src/core/ipv4/etharp.c **** etharp_update_arp_entry(struct netif *netif, const ip4_addr_t *ipaddr, struct eth_addr *ethaddr, u8
 423:lwIP/src/core/ipv4/etharp.c **** {
 424:lwIP/src/core/ipv4/etharp.c ****   s16_t i;
 425:lwIP/src/core/ipv4/etharp.c ****   LWIP_ASSERT("netif->hwaddr_len == ETH_HWADDR_LEN", netif->hwaddr_len == ETH_HWADDR_LEN);
 426:lwIP/src/core/ipv4/etharp.c ****   LWIP_DEBUGF(ETHARP_DEBUG | LWIP_DBG_TRACE, ("etharp_update_arp_entry: %"U16_F".%"U16_F".%"U16_F".
 427:lwIP/src/core/ipv4/etharp.c ****               ip4_addr1_16(ipaddr), ip4_addr2_16(ipaddr), ip4_addr3_16(ipaddr), ip4_addr4_16(ipaddr
 428:lwIP/src/core/ipv4/etharp.c ****               ethaddr->addr[0], ethaddr->addr[1], ethaddr->addr[2],
 429:lwIP/src/core/ipv4/etharp.c ****               ethaddr->addr[3], ethaddr->addr[4], ethaddr->addr[5]));
 430:lwIP/src/core/ipv4/etharp.c ****   /* non-unicast address? */
 431:lwIP/src/core/ipv4/etharp.c ****   if (ip4_addr_isany(ipaddr) ||
 432:lwIP/src/core/ipv4/etharp.c ****       ip4_addr_isbroadcast(ipaddr, netif) ||
 433:lwIP/src/core/ipv4/etharp.c ****       ip4_addr_ismulticast(ipaddr)) {
 434:lwIP/src/core/ipv4/etharp.c ****     LWIP_DEBUGF(ETHARP_DEBUG | LWIP_DBG_TRACE, ("etharp_update_arp_entry: will not add non-unicast 
 435:lwIP/src/core/ipv4/etharp.c ****     return ERR_ARG;
 436:lwIP/src/core/ipv4/etharp.c ****   }
 437:lwIP/src/core/ipv4/etharp.c ****   /* find or create ARP entry */
 438:lwIP/src/core/ipv4/etharp.c ****   i = etharp_find_entry(ipaddr, flags, netif);
 439:lwIP/src/core/ipv4/etharp.c ****   /* bail out if no entry could be found */
 440:lwIP/src/core/ipv4/etharp.c ****   if (i < 0) {
 441:lwIP/src/core/ipv4/etharp.c ****     return (err_t)i;
 442:lwIP/src/core/ipv4/etharp.c ****   }
 443:lwIP/src/core/ipv4/etharp.c **** 
 444:lwIP/src/core/ipv4/etharp.c **** #if ETHARP_SUPPORT_STATIC_ENTRIES
 445:lwIP/src/core/ipv4/etharp.c ****   if (flags & ETHARP_FLAG_STATIC_ENTRY) {
 446:lwIP/src/core/ipv4/etharp.c ****     /* record static type */
 447:lwIP/src/core/ipv4/etharp.c ****     arp_table[i].state = ETHARP_STATE_STATIC;
 448:lwIP/src/core/ipv4/etharp.c ****   } else if (arp_table[i].state == ETHARP_STATE_STATIC) {
 449:lwIP/src/core/ipv4/etharp.c ****     /* found entry is a static type, don't overwrite it */
 450:lwIP/src/core/ipv4/etharp.c ****     return ERR_VAL;
 451:lwIP/src/core/ipv4/etharp.c ****   } else
 452:lwIP/src/core/ipv4/etharp.c **** #endif /* ETHARP_SUPPORT_STATIC_ENTRIES */
 453:lwIP/src/core/ipv4/etharp.c ****   {
 454:lwIP/src/core/ipv4/etharp.c ****     /* mark it stable */
 455:lwIP/src/core/ipv4/etharp.c ****     arp_table[i].state = ETHARP_STATE_STABLE;
 456:lwIP/src/core/ipv4/etharp.c ****   }
 457:lwIP/src/core/ipv4/etharp.c **** 
 458:lwIP/src/core/ipv4/etharp.c ****   /* record network interface */
 459:lwIP/src/core/ipv4/etharp.c ****   arp_table[i].netif = netif;
 460:lwIP/src/core/ipv4/etharp.c ****   /* insert in SNMP ARP index tree */
ARM GAS  /tmp/cctR0i1S.s 			page 10


 461:lwIP/src/core/ipv4/etharp.c ****   mib2_add_arp_entry(netif, &arp_table[i].ipaddr);
 462:lwIP/src/core/ipv4/etharp.c **** 
 463:lwIP/src/core/ipv4/etharp.c ****   LWIP_DEBUGF(ETHARP_DEBUG | LWIP_DBG_TRACE, ("etharp_update_arp_entry: updating stable entry %"S16
 464:lwIP/src/core/ipv4/etharp.c ****   /* update address */
 465:lwIP/src/core/ipv4/etharp.c ****   SMEMCPY(&arp_table[i].ethaddr, ethaddr, ETH_HWADDR_LEN);
 466:lwIP/src/core/ipv4/etharp.c ****   /* reset time stamp */
 467:lwIP/src/core/ipv4/etharp.c ****   arp_table[i].ctime = 0;
 468:lwIP/src/core/ipv4/etharp.c ****   /* this is where we will send out queued packets! */
 469:lwIP/src/core/ipv4/etharp.c **** #if ARP_QUEUEING
 470:lwIP/src/core/ipv4/etharp.c ****   while (arp_table[i].q != NULL) {
 471:lwIP/src/core/ipv4/etharp.c ****     struct pbuf *p;
 472:lwIP/src/core/ipv4/etharp.c ****     /* remember remainder of queue */
 473:lwIP/src/core/ipv4/etharp.c ****     struct etharp_q_entry *q = arp_table[i].q;
 474:lwIP/src/core/ipv4/etharp.c ****     /* pop first item off the queue */
 475:lwIP/src/core/ipv4/etharp.c ****     arp_table[i].q = q->next;
 476:lwIP/src/core/ipv4/etharp.c ****     /* get the packet pointer */
 477:lwIP/src/core/ipv4/etharp.c ****     p = q->p;
 478:lwIP/src/core/ipv4/etharp.c ****     /* now queue entry can be freed */
 479:lwIP/src/core/ipv4/etharp.c ****     memp_free(MEMP_ARP_QUEUE, q);
 480:lwIP/src/core/ipv4/etharp.c **** #else /* ARP_QUEUEING */
 481:lwIP/src/core/ipv4/etharp.c ****   if (arp_table[i].q != NULL) {
 482:lwIP/src/core/ipv4/etharp.c ****     struct pbuf *p = arp_table[i].q;
 483:lwIP/src/core/ipv4/etharp.c ****     arp_table[i].q = NULL;
 484:lwIP/src/core/ipv4/etharp.c **** #endif /* ARP_QUEUEING */
 485:lwIP/src/core/ipv4/etharp.c ****     /* send the queued IP packet */
 486:lwIP/src/core/ipv4/etharp.c ****     ethernet_output(netif, p, (struct eth_addr *)(netif->hwaddr), ethaddr, ETHTYPE_IP);
 487:lwIP/src/core/ipv4/etharp.c ****     /* free the queued IP packet */
 488:lwIP/src/core/ipv4/etharp.c ****     pbuf_free(p);
 489:lwIP/src/core/ipv4/etharp.c ****   }
 490:lwIP/src/core/ipv4/etharp.c ****   return ERR_OK;
 491:lwIP/src/core/ipv4/etharp.c **** }
 492:lwIP/src/core/ipv4/etharp.c **** 
 493:lwIP/src/core/ipv4/etharp.c **** #if ETHARP_SUPPORT_STATIC_ENTRIES
 494:lwIP/src/core/ipv4/etharp.c **** /** Add a new static entry to the ARP table. If an entry exists for the
 495:lwIP/src/core/ipv4/etharp.c ****  * specified IP address, this entry is overwritten.
 496:lwIP/src/core/ipv4/etharp.c ****  * If packets are queued for the specified IP address, they are sent out.
 497:lwIP/src/core/ipv4/etharp.c ****  *
 498:lwIP/src/core/ipv4/etharp.c ****  * @param ipaddr IP address for the new static entry
 499:lwIP/src/core/ipv4/etharp.c ****  * @param ethaddr ethernet address for the new static entry
 500:lwIP/src/core/ipv4/etharp.c ****  * @return See return values of etharp_add_static_entry
 501:lwIP/src/core/ipv4/etharp.c ****  */
 502:lwIP/src/core/ipv4/etharp.c **** err_t
 503:lwIP/src/core/ipv4/etharp.c **** etharp_add_static_entry(const ip4_addr_t *ipaddr, struct eth_addr *ethaddr)
 504:lwIP/src/core/ipv4/etharp.c **** {
 505:lwIP/src/core/ipv4/etharp.c ****   struct netif *netif;
 506:lwIP/src/core/ipv4/etharp.c ****   LWIP_ASSERT_CORE_LOCKED();
 507:lwIP/src/core/ipv4/etharp.c ****   LWIP_DEBUGF(ETHARP_DEBUG | LWIP_DBG_TRACE, ("etharp_add_static_entry: %"U16_F".%"U16_F".%"U16_F".
 508:lwIP/src/core/ipv4/etharp.c ****               ip4_addr1_16(ipaddr), ip4_addr2_16(ipaddr), ip4_addr3_16(ipaddr), ip4_addr4_16(ipaddr
 509:lwIP/src/core/ipv4/etharp.c ****               ethaddr->addr[0], ethaddr->addr[1], ethaddr->addr[2],
 510:lwIP/src/core/ipv4/etharp.c ****               ethaddr->addr[3], ethaddr->addr[4], ethaddr->addr[5]));
 511:lwIP/src/core/ipv4/etharp.c **** 
 512:lwIP/src/core/ipv4/etharp.c ****   netif = ip4_route(ipaddr);
 513:lwIP/src/core/ipv4/etharp.c ****   if (netif == NULL) {
 514:lwIP/src/core/ipv4/etharp.c ****     return ERR_RTE;
 515:lwIP/src/core/ipv4/etharp.c ****   }
 516:lwIP/src/core/ipv4/etharp.c **** 
 517:lwIP/src/core/ipv4/etharp.c ****   return etharp_update_arp_entry(netif, ipaddr, ethaddr, ETHARP_FLAG_TRY_HARD | ETHARP_FLAG_STATIC_
ARM GAS  /tmp/cctR0i1S.s 			page 11


 518:lwIP/src/core/ipv4/etharp.c **** }
 519:lwIP/src/core/ipv4/etharp.c **** 
 520:lwIP/src/core/ipv4/etharp.c **** /** Remove a static entry from the ARP table previously added with a call to
 521:lwIP/src/core/ipv4/etharp.c ****  * etharp_add_static_entry.
 522:lwIP/src/core/ipv4/etharp.c ****  *
 523:lwIP/src/core/ipv4/etharp.c ****  * @param ipaddr IP address of the static entry to remove
 524:lwIP/src/core/ipv4/etharp.c ****  * @return ERR_OK: entry removed
 525:lwIP/src/core/ipv4/etharp.c ****  *         ERR_MEM: entry wasn't found
 526:lwIP/src/core/ipv4/etharp.c ****  *         ERR_ARG: entry wasn't a static entry but a dynamic one
 527:lwIP/src/core/ipv4/etharp.c ****  */
 528:lwIP/src/core/ipv4/etharp.c **** err_t
 529:lwIP/src/core/ipv4/etharp.c **** etharp_remove_static_entry(const ip4_addr_t *ipaddr)
 530:lwIP/src/core/ipv4/etharp.c **** {
 531:lwIP/src/core/ipv4/etharp.c ****   s16_t i;
 532:lwIP/src/core/ipv4/etharp.c ****   LWIP_ASSERT_CORE_LOCKED();
 533:lwIP/src/core/ipv4/etharp.c ****   LWIP_DEBUGF(ETHARP_DEBUG | LWIP_DBG_TRACE, ("etharp_remove_static_entry: %"U16_F".%"U16_F".%"U16_
 534:lwIP/src/core/ipv4/etharp.c ****               ip4_addr1_16(ipaddr), ip4_addr2_16(ipaddr), ip4_addr3_16(ipaddr), ip4_addr4_16(ipaddr
 535:lwIP/src/core/ipv4/etharp.c **** 
 536:lwIP/src/core/ipv4/etharp.c ****   /* find or create ARP entry */
 537:lwIP/src/core/ipv4/etharp.c ****   i = etharp_find_entry(ipaddr, ETHARP_FLAG_FIND_ONLY, NULL);
 538:lwIP/src/core/ipv4/etharp.c ****   /* bail out if no entry could be found */
 539:lwIP/src/core/ipv4/etharp.c ****   if (i < 0) {
 540:lwIP/src/core/ipv4/etharp.c ****     return (err_t)i;
 541:lwIP/src/core/ipv4/etharp.c ****   }
 542:lwIP/src/core/ipv4/etharp.c **** 
 543:lwIP/src/core/ipv4/etharp.c ****   if (arp_table[i].state != ETHARP_STATE_STATIC) {
 544:lwIP/src/core/ipv4/etharp.c ****     /* entry wasn't a static entry, cannot remove it */
 545:lwIP/src/core/ipv4/etharp.c ****     return ERR_ARG;
 546:lwIP/src/core/ipv4/etharp.c ****   }
 547:lwIP/src/core/ipv4/etharp.c ****   /* entry found, free it */
 548:lwIP/src/core/ipv4/etharp.c ****   etharp_free_entry(i);
 549:lwIP/src/core/ipv4/etharp.c ****   return ERR_OK;
 550:lwIP/src/core/ipv4/etharp.c **** }
 551:lwIP/src/core/ipv4/etharp.c **** #endif /* ETHARP_SUPPORT_STATIC_ENTRIES */
 552:lwIP/src/core/ipv4/etharp.c **** 
 553:lwIP/src/core/ipv4/etharp.c **** /**
 554:lwIP/src/core/ipv4/etharp.c ****  * Remove all ARP table entries of the specified netif.
 555:lwIP/src/core/ipv4/etharp.c ****  *
 556:lwIP/src/core/ipv4/etharp.c ****  * @param netif points to a network interface
 557:lwIP/src/core/ipv4/etharp.c ****  */
 558:lwIP/src/core/ipv4/etharp.c **** void
 559:lwIP/src/core/ipv4/etharp.c **** etharp_cleanup_netif(struct netif *netif)
 560:lwIP/src/core/ipv4/etharp.c **** {
 561:lwIP/src/core/ipv4/etharp.c ****   int i;
 562:lwIP/src/core/ipv4/etharp.c **** 
 563:lwIP/src/core/ipv4/etharp.c ****   for (i = 0; i < ARP_TABLE_SIZE; ++i) {
 564:lwIP/src/core/ipv4/etharp.c ****     u8_t state = arp_table[i].state;
 565:lwIP/src/core/ipv4/etharp.c ****     if ((state != ETHARP_STATE_EMPTY) && (arp_table[i].netif == netif)) {
 566:lwIP/src/core/ipv4/etharp.c ****       etharp_free_entry(i);
 567:lwIP/src/core/ipv4/etharp.c ****     }
 568:lwIP/src/core/ipv4/etharp.c ****   }
 569:lwIP/src/core/ipv4/etharp.c **** }
 570:lwIP/src/core/ipv4/etharp.c **** 
 571:lwIP/src/core/ipv4/etharp.c **** /**
 572:lwIP/src/core/ipv4/etharp.c ****  * Finds (stable) ethernet/IP address pair from ARP table
 573:lwIP/src/core/ipv4/etharp.c ****  * using interface and IP address index.
 574:lwIP/src/core/ipv4/etharp.c ****  * @note the addresses in the ARP table are in network order!
ARM GAS  /tmp/cctR0i1S.s 			page 12


 575:lwIP/src/core/ipv4/etharp.c ****  *
 576:lwIP/src/core/ipv4/etharp.c ****  * @param netif points to interface index
 577:lwIP/src/core/ipv4/etharp.c ****  * @param ipaddr points to the (network order) IP address index
 578:lwIP/src/core/ipv4/etharp.c ****  * @param eth_ret points to return pointer
 579:lwIP/src/core/ipv4/etharp.c ****  * @param ip_ret points to return pointer
 580:lwIP/src/core/ipv4/etharp.c ****  * @return table index if found, -1 otherwise
 581:lwIP/src/core/ipv4/etharp.c ****  */
 582:lwIP/src/core/ipv4/etharp.c **** ssize_t
 583:lwIP/src/core/ipv4/etharp.c **** etharp_find_addr(struct netif *netif, const ip4_addr_t *ipaddr,
 584:lwIP/src/core/ipv4/etharp.c ****                  struct eth_addr **eth_ret, const ip4_addr_t **ip_ret)
 585:lwIP/src/core/ipv4/etharp.c **** {
 586:lwIP/src/core/ipv4/etharp.c ****   s16_t i;
 587:lwIP/src/core/ipv4/etharp.c **** 
 588:lwIP/src/core/ipv4/etharp.c ****   LWIP_ASSERT("eth_ret != NULL && ip_ret != NULL",
 589:lwIP/src/core/ipv4/etharp.c ****               eth_ret != NULL && ip_ret != NULL);
 590:lwIP/src/core/ipv4/etharp.c **** 
 591:lwIP/src/core/ipv4/etharp.c ****   LWIP_UNUSED_ARG(netif);
 592:lwIP/src/core/ipv4/etharp.c **** 
 593:lwIP/src/core/ipv4/etharp.c ****   i = etharp_find_entry(ipaddr, ETHARP_FLAG_FIND_ONLY, netif);
 594:lwIP/src/core/ipv4/etharp.c ****   if ((i >= 0) && (arp_table[i].state >= ETHARP_STATE_STABLE)) {
 595:lwIP/src/core/ipv4/etharp.c ****     *eth_ret = &arp_table[i].ethaddr;
 596:lwIP/src/core/ipv4/etharp.c ****     *ip_ret = &arp_table[i].ipaddr;
 597:lwIP/src/core/ipv4/etharp.c ****     return i;
 598:lwIP/src/core/ipv4/etharp.c ****   }
 599:lwIP/src/core/ipv4/etharp.c ****   return -1;
 600:lwIP/src/core/ipv4/etharp.c **** }
 601:lwIP/src/core/ipv4/etharp.c **** 
 602:lwIP/src/core/ipv4/etharp.c **** /**
 603:lwIP/src/core/ipv4/etharp.c ****  * Possibility to iterate over stable ARP table entries
 604:lwIP/src/core/ipv4/etharp.c ****  *
 605:lwIP/src/core/ipv4/etharp.c ****  * @param i entry number, 0 to ARP_TABLE_SIZE
 606:lwIP/src/core/ipv4/etharp.c ****  * @param ipaddr return value: IP address
 607:lwIP/src/core/ipv4/etharp.c ****  * @param netif return value: points to interface
 608:lwIP/src/core/ipv4/etharp.c ****  * @param eth_ret return value: ETH address
 609:lwIP/src/core/ipv4/etharp.c ****  * @return 1 on valid index, 0 otherwise
 610:lwIP/src/core/ipv4/etharp.c ****  */
 611:lwIP/src/core/ipv4/etharp.c **** int
 612:lwIP/src/core/ipv4/etharp.c **** etharp_get_entry(size_t i, ip4_addr_t **ipaddr, struct netif **netif, struct eth_addr **eth_ret)
 613:lwIP/src/core/ipv4/etharp.c **** {
 614:lwIP/src/core/ipv4/etharp.c ****   LWIP_ASSERT("ipaddr != NULL", ipaddr != NULL);
 615:lwIP/src/core/ipv4/etharp.c ****   LWIP_ASSERT("netif != NULL", netif != NULL);
 616:lwIP/src/core/ipv4/etharp.c ****   LWIP_ASSERT("eth_ret != NULL", eth_ret != NULL);
 617:lwIP/src/core/ipv4/etharp.c **** 
 618:lwIP/src/core/ipv4/etharp.c ****   if ((i < ARP_TABLE_SIZE) && (arp_table[i].state >= ETHARP_STATE_STABLE)) {
 619:lwIP/src/core/ipv4/etharp.c ****     *ipaddr  = &arp_table[i].ipaddr;
 620:lwIP/src/core/ipv4/etharp.c ****     *netif   = arp_table[i].netif;
 621:lwIP/src/core/ipv4/etharp.c ****     *eth_ret = &arp_table[i].ethaddr;
 622:lwIP/src/core/ipv4/etharp.c ****     return 1;
 623:lwIP/src/core/ipv4/etharp.c ****   } else {
 624:lwIP/src/core/ipv4/etharp.c ****     return 0;
 625:lwIP/src/core/ipv4/etharp.c ****   }
 626:lwIP/src/core/ipv4/etharp.c **** }
 627:lwIP/src/core/ipv4/etharp.c **** 
 628:lwIP/src/core/ipv4/etharp.c **** /**
 629:lwIP/src/core/ipv4/etharp.c ****  * Responds to ARP requests to us. Upon ARP replies to us, add entry to cache
 630:lwIP/src/core/ipv4/etharp.c ****  * send out queued IP packets. Updates cache with snooped address pairs.
 631:lwIP/src/core/ipv4/etharp.c ****  *
ARM GAS  /tmp/cctR0i1S.s 			page 13


 632:lwIP/src/core/ipv4/etharp.c ****  * Should be called for incoming ARP packets. The pbuf in the argument
 633:lwIP/src/core/ipv4/etharp.c ****  * is freed by this function.
 634:lwIP/src/core/ipv4/etharp.c ****  *
 635:lwIP/src/core/ipv4/etharp.c ****  * @param p The ARP packet that arrived on netif. Is freed by this function.
 636:lwIP/src/core/ipv4/etharp.c ****  * @param netif The lwIP network interface on which the ARP packet pbuf arrived.
 637:lwIP/src/core/ipv4/etharp.c ****  *
 638:lwIP/src/core/ipv4/etharp.c ****  * @see pbuf_free()
 639:lwIP/src/core/ipv4/etharp.c ****  */
 640:lwIP/src/core/ipv4/etharp.c **** void
 641:lwIP/src/core/ipv4/etharp.c **** etharp_input(struct pbuf *p, struct netif *netif)
 642:lwIP/src/core/ipv4/etharp.c **** {
 643:lwIP/src/core/ipv4/etharp.c ****   struct etharp_hdr *hdr;
 644:lwIP/src/core/ipv4/etharp.c ****   /* these are aligned properly, whereas the ARP header fields might not be */
 645:lwIP/src/core/ipv4/etharp.c ****   ip4_addr_t sipaddr, dipaddr;
 646:lwIP/src/core/ipv4/etharp.c ****   u8_t for_us;
 647:lwIP/src/core/ipv4/etharp.c **** 
 648:lwIP/src/core/ipv4/etharp.c ****   LWIP_ASSERT_CORE_LOCKED();
 649:lwIP/src/core/ipv4/etharp.c **** 
 650:lwIP/src/core/ipv4/etharp.c ****   LWIP_ERROR("netif != NULL", (netif != NULL), return;);
 651:lwIP/src/core/ipv4/etharp.c **** 
 652:lwIP/src/core/ipv4/etharp.c ****   hdr = (struct etharp_hdr *)p->payload;
 653:lwIP/src/core/ipv4/etharp.c **** 
 654:lwIP/src/core/ipv4/etharp.c ****   /* RFC 826 "Packet Reception": */
 655:lwIP/src/core/ipv4/etharp.c ****   if ((hdr->hwtype != PP_HTONS(LWIP_IANA_HWTYPE_ETHERNET)) ||
 656:lwIP/src/core/ipv4/etharp.c ****       (hdr->hwlen != ETH_HWADDR_LEN) ||
 657:lwIP/src/core/ipv4/etharp.c ****       (hdr->protolen != sizeof(ip4_addr_t)) ||
 658:lwIP/src/core/ipv4/etharp.c ****       (hdr->proto != PP_HTONS(ETHTYPE_IP)))  {
 659:lwIP/src/core/ipv4/etharp.c ****     LWIP_DEBUGF(ETHARP_DEBUG | LWIP_DBG_TRACE | LWIP_DBG_LEVEL_WARNING,
 660:lwIP/src/core/ipv4/etharp.c ****                 ("etharp_input: packet dropped, wrong hw type, hwlen, proto, protolen or ethernet t
 661:lwIP/src/core/ipv4/etharp.c ****                  hdr->hwtype, (u16_t)hdr->hwlen, hdr->proto, (u16_t)hdr->protolen));
 662:lwIP/src/core/ipv4/etharp.c ****     ETHARP_STATS_INC(etharp.proterr);
 663:lwIP/src/core/ipv4/etharp.c ****     ETHARP_STATS_INC(etharp.drop);
 664:lwIP/src/core/ipv4/etharp.c ****     pbuf_free(p);
 665:lwIP/src/core/ipv4/etharp.c ****     return;
 666:lwIP/src/core/ipv4/etharp.c ****   }
 667:lwIP/src/core/ipv4/etharp.c ****   ETHARP_STATS_INC(etharp.recv);
 668:lwIP/src/core/ipv4/etharp.c **** 
 669:lwIP/src/core/ipv4/etharp.c **** #if LWIP_AUTOIP
 670:lwIP/src/core/ipv4/etharp.c ****   /* We have to check if a host already has configured our random
 671:lwIP/src/core/ipv4/etharp.c ****    * created link local address and continuously check if there is
 672:lwIP/src/core/ipv4/etharp.c ****    * a host with this IP-address so we can detect collisions */
 673:lwIP/src/core/ipv4/etharp.c ****   autoip_arp_reply(netif, hdr);
 674:lwIP/src/core/ipv4/etharp.c **** #endif /* LWIP_AUTOIP */
 675:lwIP/src/core/ipv4/etharp.c **** 
 676:lwIP/src/core/ipv4/etharp.c ****   /* Copy struct ip4_addr_wordaligned to aligned ip4_addr, to support compilers without
 677:lwIP/src/core/ipv4/etharp.c ****    * structure packing (not using structure copy which breaks strict-aliasing rules). */
 678:lwIP/src/core/ipv4/etharp.c ****   IPADDR_WORDALIGNED_COPY_TO_IP4_ADDR_T(&sipaddr, &hdr->sipaddr);
 679:lwIP/src/core/ipv4/etharp.c ****   IPADDR_WORDALIGNED_COPY_TO_IP4_ADDR_T(&dipaddr, &hdr->dipaddr);
 680:lwIP/src/core/ipv4/etharp.c **** 
 681:lwIP/src/core/ipv4/etharp.c ****   /* this interface is not configured? */
 682:lwIP/src/core/ipv4/etharp.c ****   if (ip4_addr_isany_val(*netif_ip4_addr(netif))) {
 683:lwIP/src/core/ipv4/etharp.c ****     for_us = 0;
 684:lwIP/src/core/ipv4/etharp.c ****   } else {
 685:lwIP/src/core/ipv4/etharp.c ****     /* ARP packet directed to us? */
 686:lwIP/src/core/ipv4/etharp.c ****     for_us = (u8_t)ip4_addr_cmp(&dipaddr, netif_ip4_addr(netif));
 687:lwIP/src/core/ipv4/etharp.c ****   }
 688:lwIP/src/core/ipv4/etharp.c **** 
ARM GAS  /tmp/cctR0i1S.s 			page 14


 689:lwIP/src/core/ipv4/etharp.c ****   /* ARP message directed to us?
 690:lwIP/src/core/ipv4/etharp.c ****       -> add IP address in ARP cache; assume requester wants to talk to us,
 691:lwIP/src/core/ipv4/etharp.c ****          can result in directly sending the queued packets for this host.
 692:lwIP/src/core/ipv4/etharp.c ****      ARP message not directed to us?
 693:lwIP/src/core/ipv4/etharp.c ****       ->  update the source IP address in the cache, if present */
 694:lwIP/src/core/ipv4/etharp.c ****   etharp_update_arp_entry(netif, &sipaddr, &(hdr->shwaddr),
 695:lwIP/src/core/ipv4/etharp.c ****                           for_us ? ETHARP_FLAG_TRY_HARD : ETHARP_FLAG_FIND_ONLY);
 696:lwIP/src/core/ipv4/etharp.c **** 
 697:lwIP/src/core/ipv4/etharp.c ****   /* now act on the message itself */
 698:lwIP/src/core/ipv4/etharp.c ****   switch (hdr->opcode) {
 699:lwIP/src/core/ipv4/etharp.c ****     /* ARP request? */
 700:lwIP/src/core/ipv4/etharp.c ****     case PP_HTONS(ARP_REQUEST):
 701:lwIP/src/core/ipv4/etharp.c ****       /* ARP request. If it asked for our address, we send out a
 702:lwIP/src/core/ipv4/etharp.c ****        * reply. In any case, we time-stamp any existing ARP entry,
 703:lwIP/src/core/ipv4/etharp.c ****        * and possibly send out an IP packet that was queued on it. */
 704:lwIP/src/core/ipv4/etharp.c **** 
 705:lwIP/src/core/ipv4/etharp.c ****       LWIP_DEBUGF (ETHARP_DEBUG | LWIP_DBG_TRACE, ("etharp_input: incoming ARP request\n"));
 706:lwIP/src/core/ipv4/etharp.c ****       /* ARP request for our address? */
 707:lwIP/src/core/ipv4/etharp.c ****       if (for_us) {
 708:lwIP/src/core/ipv4/etharp.c ****         /* send ARP response */
 709:lwIP/src/core/ipv4/etharp.c ****         etharp_raw(netif,
 710:lwIP/src/core/ipv4/etharp.c ****                    (struct eth_addr *)netif->hwaddr, &hdr->shwaddr,
 711:lwIP/src/core/ipv4/etharp.c ****                    (struct eth_addr *)netif->hwaddr, netif_ip4_addr(netif),
 712:lwIP/src/core/ipv4/etharp.c ****                    &hdr->shwaddr, &sipaddr,
 713:lwIP/src/core/ipv4/etharp.c ****                    ARP_REPLY);
 714:lwIP/src/core/ipv4/etharp.c ****         /* we are not configured? */
 715:lwIP/src/core/ipv4/etharp.c ****       } else if (ip4_addr_isany_val(*netif_ip4_addr(netif))) {
 716:lwIP/src/core/ipv4/etharp.c ****         /* { for_us == 0 and netif->ip_addr.addr == 0 } */
 717:lwIP/src/core/ipv4/etharp.c ****         LWIP_DEBUGF(ETHARP_DEBUG | LWIP_DBG_TRACE, ("etharp_input: we are unconfigured, ARP request
 718:lwIP/src/core/ipv4/etharp.c ****         /* request was not directed to us */
 719:lwIP/src/core/ipv4/etharp.c ****       } else {
 720:lwIP/src/core/ipv4/etharp.c ****         /* { for_us == 0 and netif->ip_addr.addr != 0 } */
 721:lwIP/src/core/ipv4/etharp.c ****         LWIP_DEBUGF(ETHARP_DEBUG | LWIP_DBG_TRACE, ("etharp_input: ARP request was not for us.\n"))
 722:lwIP/src/core/ipv4/etharp.c ****       }
 723:lwIP/src/core/ipv4/etharp.c ****       break;
 724:lwIP/src/core/ipv4/etharp.c ****     case PP_HTONS(ARP_REPLY):
 725:lwIP/src/core/ipv4/etharp.c ****       /* ARP reply. We already updated the ARP cache earlier. */
 726:lwIP/src/core/ipv4/etharp.c ****       LWIP_DEBUGF(ETHARP_DEBUG | LWIP_DBG_TRACE, ("etharp_input: incoming ARP reply\n"));
 727:lwIP/src/core/ipv4/etharp.c **** #if (LWIP_DHCP && DHCP_DOES_ARP_CHECK)
 728:lwIP/src/core/ipv4/etharp.c ****       /* DHCP wants to know about ARP replies from any host with an
 729:lwIP/src/core/ipv4/etharp.c ****        * IP address also offered to us by the DHCP server. We do not
 730:lwIP/src/core/ipv4/etharp.c ****        * want to take a duplicate IP address on a single network.
 731:lwIP/src/core/ipv4/etharp.c ****        * @todo How should we handle redundant (fail-over) interfaces? */
 732:lwIP/src/core/ipv4/etharp.c ****       dhcp_arp_reply(netif, &sipaddr);
 733:lwIP/src/core/ipv4/etharp.c **** #endif /* (LWIP_DHCP && DHCP_DOES_ARP_CHECK) */
 734:lwIP/src/core/ipv4/etharp.c ****       break;
 735:lwIP/src/core/ipv4/etharp.c ****     default:
 736:lwIP/src/core/ipv4/etharp.c ****       LWIP_DEBUGF(ETHARP_DEBUG | LWIP_DBG_TRACE, ("etharp_input: ARP unknown opcode type %"S16_F"\n
 737:lwIP/src/core/ipv4/etharp.c ****       ETHARP_STATS_INC(etharp.err);
 738:lwIP/src/core/ipv4/etharp.c ****       break;
 739:lwIP/src/core/ipv4/etharp.c ****   }
 740:lwIP/src/core/ipv4/etharp.c ****   /* free ARP packet */
 741:lwIP/src/core/ipv4/etharp.c ****   pbuf_free(p);
 742:lwIP/src/core/ipv4/etharp.c **** }
 743:lwIP/src/core/ipv4/etharp.c **** 
 744:lwIP/src/core/ipv4/etharp.c **** /** Just a small helper function that sends a pbuf to an ethernet address
 745:lwIP/src/core/ipv4/etharp.c ****  * in the arp_table specified by the index 'arp_idx'.
ARM GAS  /tmp/cctR0i1S.s 			page 15


 746:lwIP/src/core/ipv4/etharp.c ****  */
 747:lwIP/src/core/ipv4/etharp.c **** static err_t
 748:lwIP/src/core/ipv4/etharp.c **** etharp_output_to_arp_index(struct netif *netif, struct pbuf *q, netif_addr_idx_t arp_idx)
 749:lwIP/src/core/ipv4/etharp.c **** {
 750:lwIP/src/core/ipv4/etharp.c ****   LWIP_ASSERT("arp_table[arp_idx].state >= ETHARP_STATE_STABLE",
 751:lwIP/src/core/ipv4/etharp.c ****               arp_table[arp_idx].state >= ETHARP_STATE_STABLE);
 752:lwIP/src/core/ipv4/etharp.c ****   /* if arp table entry is about to expire: re-request it,
 753:lwIP/src/core/ipv4/etharp.c ****      but only if its state is ETHARP_STATE_STABLE to prevent flooding the
 754:lwIP/src/core/ipv4/etharp.c ****      network with ARP requests if this address is used frequently. */
 755:lwIP/src/core/ipv4/etharp.c ****   if (arp_table[arp_idx].state == ETHARP_STATE_STABLE) {
 756:lwIP/src/core/ipv4/etharp.c ****     if (arp_table[arp_idx].ctime >= ARP_AGE_REREQUEST_USED_BROADCAST) {
 757:lwIP/src/core/ipv4/etharp.c ****       /* issue a standard request using broadcast */
 758:lwIP/src/core/ipv4/etharp.c ****       if (etharp_request(netif, &arp_table[arp_idx].ipaddr) == ERR_OK) {
 759:lwIP/src/core/ipv4/etharp.c ****         arp_table[arp_idx].state = ETHARP_STATE_STABLE_REREQUESTING_1;
 760:lwIP/src/core/ipv4/etharp.c ****       }
 761:lwIP/src/core/ipv4/etharp.c ****     } else if (arp_table[arp_idx].ctime >= ARP_AGE_REREQUEST_USED_UNICAST) {
 762:lwIP/src/core/ipv4/etharp.c ****       /* issue a unicast request (for 15 seconds) to prevent unnecessary broadcast */
 763:lwIP/src/core/ipv4/etharp.c ****       if (etharp_request_dst(netif, &arp_table[arp_idx].ipaddr, &arp_table[arp_idx].ethaddr) == ERR
 764:lwIP/src/core/ipv4/etharp.c ****         arp_table[arp_idx].state = ETHARP_STATE_STABLE_REREQUESTING_1;
 765:lwIP/src/core/ipv4/etharp.c ****       }
 766:lwIP/src/core/ipv4/etharp.c ****     }
 767:lwIP/src/core/ipv4/etharp.c ****   }
 768:lwIP/src/core/ipv4/etharp.c **** 
 769:lwIP/src/core/ipv4/etharp.c ****   return ethernet_output(netif, q, (struct eth_addr *)(netif->hwaddr), &arp_table[arp_idx].ethaddr,
 770:lwIP/src/core/ipv4/etharp.c **** }
 771:lwIP/src/core/ipv4/etharp.c **** 
 772:lwIP/src/core/ipv4/etharp.c **** /**
 773:lwIP/src/core/ipv4/etharp.c ****  * Resolve and fill-in Ethernet address header for outgoing IP packet.
 774:lwIP/src/core/ipv4/etharp.c ****  *
 775:lwIP/src/core/ipv4/etharp.c ****  * For IP multicast and broadcast, corresponding Ethernet addresses
 776:lwIP/src/core/ipv4/etharp.c ****  * are selected and the packet is transmitted on the link.
 777:lwIP/src/core/ipv4/etharp.c ****  *
 778:lwIP/src/core/ipv4/etharp.c ****  * For unicast addresses, the packet is submitted to etharp_query(). In
 779:lwIP/src/core/ipv4/etharp.c ****  * case the IP address is outside the local network, the IP address of
 780:lwIP/src/core/ipv4/etharp.c ****  * the gateway is used.
 781:lwIP/src/core/ipv4/etharp.c ****  *
 782:lwIP/src/core/ipv4/etharp.c ****  * @param netif The lwIP network interface which the IP packet will be sent on.
 783:lwIP/src/core/ipv4/etharp.c ****  * @param q The pbuf(s) containing the IP packet to be sent.
 784:lwIP/src/core/ipv4/etharp.c ****  * @param ipaddr The IP address of the packet destination.
 785:lwIP/src/core/ipv4/etharp.c ****  *
 786:lwIP/src/core/ipv4/etharp.c ****  * @return
 787:lwIP/src/core/ipv4/etharp.c ****  * - ERR_RTE No route to destination (no gateway to external networks),
 788:lwIP/src/core/ipv4/etharp.c ****  * or the return type of either etharp_query() or ethernet_output().
 789:lwIP/src/core/ipv4/etharp.c ****  */
 790:lwIP/src/core/ipv4/etharp.c **** err_t
 791:lwIP/src/core/ipv4/etharp.c **** etharp_output(struct netif *netif, struct pbuf *q, const ip4_addr_t *ipaddr)
 792:lwIP/src/core/ipv4/etharp.c **** {
 793:lwIP/src/core/ipv4/etharp.c ****   const struct eth_addr *dest;
 794:lwIP/src/core/ipv4/etharp.c ****   struct eth_addr mcastaddr;
 795:lwIP/src/core/ipv4/etharp.c ****   const ip4_addr_t *dst_addr = ipaddr;
 796:lwIP/src/core/ipv4/etharp.c **** 
 797:lwIP/src/core/ipv4/etharp.c ****   LWIP_ASSERT_CORE_LOCKED();
 798:lwIP/src/core/ipv4/etharp.c ****   LWIP_ASSERT("netif != NULL", netif != NULL);
 799:lwIP/src/core/ipv4/etharp.c ****   LWIP_ASSERT("q != NULL", q != NULL);
 800:lwIP/src/core/ipv4/etharp.c ****   LWIP_ASSERT("ipaddr != NULL", ipaddr != NULL);
 801:lwIP/src/core/ipv4/etharp.c **** 
 802:lwIP/src/core/ipv4/etharp.c ****   /* Determine on destination hardware address. Broadcasts and multicasts
ARM GAS  /tmp/cctR0i1S.s 			page 16


 803:lwIP/src/core/ipv4/etharp.c ****    * are special, other IP addresses are looked up in the ARP table. */
 804:lwIP/src/core/ipv4/etharp.c **** 
 805:lwIP/src/core/ipv4/etharp.c ****   /* broadcast destination IP address? */
 806:lwIP/src/core/ipv4/etharp.c ****   if (ip4_addr_isbroadcast(ipaddr, netif)) {
 807:lwIP/src/core/ipv4/etharp.c ****     /* broadcast on Ethernet also */
 808:lwIP/src/core/ipv4/etharp.c ****     dest = (const struct eth_addr *)&ethbroadcast;
 809:lwIP/src/core/ipv4/etharp.c ****     /* multicast destination IP address? */
 810:lwIP/src/core/ipv4/etharp.c ****   } else if (ip4_addr_ismulticast(ipaddr)) {
 811:lwIP/src/core/ipv4/etharp.c ****     /* Hash IP multicast address to MAC address.*/
 812:lwIP/src/core/ipv4/etharp.c ****     mcastaddr.addr[0] = LL_IP4_MULTICAST_ADDR_0;
 813:lwIP/src/core/ipv4/etharp.c ****     mcastaddr.addr[1] = LL_IP4_MULTICAST_ADDR_1;
 814:lwIP/src/core/ipv4/etharp.c ****     mcastaddr.addr[2] = LL_IP4_MULTICAST_ADDR_2;
 815:lwIP/src/core/ipv4/etharp.c ****     mcastaddr.addr[3] = ip4_addr2(ipaddr) & 0x7f;
 816:lwIP/src/core/ipv4/etharp.c ****     mcastaddr.addr[4] = ip4_addr3(ipaddr);
 817:lwIP/src/core/ipv4/etharp.c ****     mcastaddr.addr[5] = ip4_addr4(ipaddr);
 818:lwIP/src/core/ipv4/etharp.c ****     /* destination Ethernet address is multicast */
 819:lwIP/src/core/ipv4/etharp.c ****     dest = &mcastaddr;
 820:lwIP/src/core/ipv4/etharp.c ****     /* unicast destination IP address? */
 821:lwIP/src/core/ipv4/etharp.c ****   } else {
 822:lwIP/src/core/ipv4/etharp.c ****     netif_addr_idx_t i;
 823:lwIP/src/core/ipv4/etharp.c ****     /* outside local network? if so, this can neither be a global broadcast nor
 824:lwIP/src/core/ipv4/etharp.c ****        a subnet broadcast. */
 825:lwIP/src/core/ipv4/etharp.c ****     if (!ip4_addr_netcmp(ipaddr, netif_ip4_addr(netif), netif_ip4_netmask(netif)) &&
 826:lwIP/src/core/ipv4/etharp.c ****         !ip4_addr_islinklocal(ipaddr)) {
 827:lwIP/src/core/ipv4/etharp.c **** #if LWIP_AUTOIP
 828:lwIP/src/core/ipv4/etharp.c ****       struct ip_hdr *iphdr = LWIP_ALIGNMENT_CAST(struct ip_hdr *, q->payload);
 829:lwIP/src/core/ipv4/etharp.c ****       /* According to RFC 3297, chapter 2.6.2 (Forwarding Rules), a packet with
 830:lwIP/src/core/ipv4/etharp.c ****          a link-local source address must always be "directly to its destination
 831:lwIP/src/core/ipv4/etharp.c ****          on the same physical link. The host MUST NOT send the packet to any
 832:lwIP/src/core/ipv4/etharp.c ****          router for forwarding". */
 833:lwIP/src/core/ipv4/etharp.c ****       if (!ip4_addr_islinklocal(&iphdr->src))
 834:lwIP/src/core/ipv4/etharp.c **** #endif /* LWIP_AUTOIP */
 835:lwIP/src/core/ipv4/etharp.c ****       {
 836:lwIP/src/core/ipv4/etharp.c **** #ifdef LWIP_HOOK_ETHARP_GET_GW
 837:lwIP/src/core/ipv4/etharp.c ****         /* For advanced routing, a single default gateway might not be enough, so get
 838:lwIP/src/core/ipv4/etharp.c ****            the IP address of the gateway to handle the current destination address. */
 839:lwIP/src/core/ipv4/etharp.c ****         dst_addr = LWIP_HOOK_ETHARP_GET_GW(netif, ipaddr);
 840:lwIP/src/core/ipv4/etharp.c ****         if (dst_addr == NULL)
 841:lwIP/src/core/ipv4/etharp.c **** #endif /* LWIP_HOOK_ETHARP_GET_GW */
 842:lwIP/src/core/ipv4/etharp.c ****         {
 843:lwIP/src/core/ipv4/etharp.c ****           /* interface has default gateway? */
 844:lwIP/src/core/ipv4/etharp.c ****           if (!ip4_addr_isany_val(*netif_ip4_gw(netif))) {
 845:lwIP/src/core/ipv4/etharp.c ****             /* send to hardware address of default gateway IP address */
 846:lwIP/src/core/ipv4/etharp.c ****             dst_addr = netif_ip4_gw(netif);
 847:lwIP/src/core/ipv4/etharp.c ****             /* no default gateway available */
 848:lwIP/src/core/ipv4/etharp.c ****           } else {
 849:lwIP/src/core/ipv4/etharp.c ****             /* no route to destination error (default gateway missing) */
 850:lwIP/src/core/ipv4/etharp.c ****             return ERR_RTE;
 851:lwIP/src/core/ipv4/etharp.c ****           }
 852:lwIP/src/core/ipv4/etharp.c ****         }
 853:lwIP/src/core/ipv4/etharp.c ****       }
 854:lwIP/src/core/ipv4/etharp.c ****     }
 855:lwIP/src/core/ipv4/etharp.c **** #if LWIP_NETIF_HWADDRHINT
 856:lwIP/src/core/ipv4/etharp.c ****     if (netif->hints != NULL) {
 857:lwIP/src/core/ipv4/etharp.c ****       /* per-pcb cached entry was given */
 858:lwIP/src/core/ipv4/etharp.c ****       netif_addr_idx_t etharp_cached_entry = netif->hints->addr_hint;
 859:lwIP/src/core/ipv4/etharp.c ****       if (etharp_cached_entry < ARP_TABLE_SIZE) {
ARM GAS  /tmp/cctR0i1S.s 			page 17


 860:lwIP/src/core/ipv4/etharp.c **** #endif /* LWIP_NETIF_HWADDRHINT */
 861:lwIP/src/core/ipv4/etharp.c ****         if ((arp_table[etharp_cached_entry].state >= ETHARP_STATE_STABLE) &&
 862:lwIP/src/core/ipv4/etharp.c **** #if ETHARP_TABLE_MATCH_NETIF
 863:lwIP/src/core/ipv4/etharp.c ****             (arp_table[etharp_cached_entry].netif == netif) &&
 864:lwIP/src/core/ipv4/etharp.c **** #endif
 865:lwIP/src/core/ipv4/etharp.c ****             (ip4_addr_cmp(dst_addr, &arp_table[etharp_cached_entry].ipaddr))) {
 866:lwIP/src/core/ipv4/etharp.c ****           /* the per-pcb-cached entry is stable and the right one! */
 867:lwIP/src/core/ipv4/etharp.c ****           ETHARP_STATS_INC(etharp.cachehit);
 868:lwIP/src/core/ipv4/etharp.c ****           return etharp_output_to_arp_index(netif, q, etharp_cached_entry);
 869:lwIP/src/core/ipv4/etharp.c ****         }
 870:lwIP/src/core/ipv4/etharp.c **** #if LWIP_NETIF_HWADDRHINT
 871:lwIP/src/core/ipv4/etharp.c ****       }
 872:lwIP/src/core/ipv4/etharp.c ****     }
 873:lwIP/src/core/ipv4/etharp.c **** #endif /* LWIP_NETIF_HWADDRHINT */
 874:lwIP/src/core/ipv4/etharp.c **** 
 875:lwIP/src/core/ipv4/etharp.c ****     /* find stable entry: do this here since this is a critical path for
 876:lwIP/src/core/ipv4/etharp.c ****        throughput and etharp_find_entry() is kind of slow */
 877:lwIP/src/core/ipv4/etharp.c ****     for (i = 0; i < ARP_TABLE_SIZE; i++) {
 878:lwIP/src/core/ipv4/etharp.c ****       if ((arp_table[i].state >= ETHARP_STATE_STABLE) &&
 879:lwIP/src/core/ipv4/etharp.c **** #if ETHARP_TABLE_MATCH_NETIF
 880:lwIP/src/core/ipv4/etharp.c ****           (arp_table[i].netif == netif) &&
 881:lwIP/src/core/ipv4/etharp.c **** #endif
 882:lwIP/src/core/ipv4/etharp.c ****           (ip4_addr_cmp(dst_addr, &arp_table[i].ipaddr))) {
 883:lwIP/src/core/ipv4/etharp.c ****         /* found an existing, stable entry */
 884:lwIP/src/core/ipv4/etharp.c ****         ETHARP_SET_ADDRHINT(netif, i);
 885:lwIP/src/core/ipv4/etharp.c ****         return etharp_output_to_arp_index(netif, q, i);
 886:lwIP/src/core/ipv4/etharp.c ****       }
 887:lwIP/src/core/ipv4/etharp.c ****     }
 888:lwIP/src/core/ipv4/etharp.c ****     /* no stable entry found, use the (slower) query function:
 889:lwIP/src/core/ipv4/etharp.c ****        queue on destination Ethernet address belonging to ipaddr */
 890:lwIP/src/core/ipv4/etharp.c ****     return etharp_query(netif, dst_addr, q);
 891:lwIP/src/core/ipv4/etharp.c ****   }
 892:lwIP/src/core/ipv4/etharp.c **** 
 893:lwIP/src/core/ipv4/etharp.c ****   /* continuation for multicast/broadcast destinations */
 894:lwIP/src/core/ipv4/etharp.c ****   /* obtain source Ethernet address of the given interface */
 895:lwIP/src/core/ipv4/etharp.c ****   /* send packet directly on the link */
 896:lwIP/src/core/ipv4/etharp.c ****   return ethernet_output(netif, q, (struct eth_addr *)(netif->hwaddr), dest, ETHTYPE_IP);
 897:lwIP/src/core/ipv4/etharp.c **** }
 898:lwIP/src/core/ipv4/etharp.c **** 
 899:lwIP/src/core/ipv4/etharp.c **** /**
 900:lwIP/src/core/ipv4/etharp.c ****  * Send an ARP request for the given IP address and/or queue a packet.
 901:lwIP/src/core/ipv4/etharp.c ****  *
 902:lwIP/src/core/ipv4/etharp.c ****  * If the IP address was not yet in the cache, a pending ARP cache entry
 903:lwIP/src/core/ipv4/etharp.c ****  * is added and an ARP request is sent for the given address. The packet
 904:lwIP/src/core/ipv4/etharp.c ****  * is queued on this entry.
 905:lwIP/src/core/ipv4/etharp.c ****  *
 906:lwIP/src/core/ipv4/etharp.c ****  * If the IP address was already pending in the cache, a new ARP request
 907:lwIP/src/core/ipv4/etharp.c ****  * is sent for the given address. The packet is queued on this entry.
 908:lwIP/src/core/ipv4/etharp.c ****  *
 909:lwIP/src/core/ipv4/etharp.c ****  * If the IP address was already stable in the cache, and a packet is
 910:lwIP/src/core/ipv4/etharp.c ****  * given, it is directly sent and no ARP request is sent out.
 911:lwIP/src/core/ipv4/etharp.c ****  *
 912:lwIP/src/core/ipv4/etharp.c ****  * If the IP address was already stable in the cache, and no packet is
 913:lwIP/src/core/ipv4/etharp.c ****  * given, an ARP request is sent out.
 914:lwIP/src/core/ipv4/etharp.c ****  *
 915:lwIP/src/core/ipv4/etharp.c ****  * @param netif The lwIP network interface on which ipaddr
 916:lwIP/src/core/ipv4/etharp.c ****  * must be queried for.
ARM GAS  /tmp/cctR0i1S.s 			page 18


 917:lwIP/src/core/ipv4/etharp.c ****  * @param ipaddr The IP address to be resolved.
 918:lwIP/src/core/ipv4/etharp.c ****  * @param q If non-NULL, a pbuf that must be delivered to the IP address.
 919:lwIP/src/core/ipv4/etharp.c ****  * q is not freed by this function.
 920:lwIP/src/core/ipv4/etharp.c ****  *
 921:lwIP/src/core/ipv4/etharp.c ****  * @note q must only be ONE packet, not a packet queue!
 922:lwIP/src/core/ipv4/etharp.c ****  *
 923:lwIP/src/core/ipv4/etharp.c ****  * @return
 924:lwIP/src/core/ipv4/etharp.c ****  * - ERR_BUF Could not make room for Ethernet header.
 925:lwIP/src/core/ipv4/etharp.c ****  * - ERR_MEM Hardware address unknown, and no more ARP entries available
 926:lwIP/src/core/ipv4/etharp.c ****  *   to query for address or queue the packet.
 927:lwIP/src/core/ipv4/etharp.c ****  * - ERR_MEM Could not queue packet due to memory shortage.
 928:lwIP/src/core/ipv4/etharp.c ****  * - ERR_RTE No route to destination (no gateway to external networks).
 929:lwIP/src/core/ipv4/etharp.c ****  * - ERR_ARG Non-unicast address given, those will not appear in ARP cache.
 930:lwIP/src/core/ipv4/etharp.c ****  *
 931:lwIP/src/core/ipv4/etharp.c ****  */
 932:lwIP/src/core/ipv4/etharp.c **** err_t
 933:lwIP/src/core/ipv4/etharp.c **** etharp_query(struct netif *netif, const ip4_addr_t *ipaddr, struct pbuf *q)
 934:lwIP/src/core/ipv4/etharp.c **** {
 935:lwIP/src/core/ipv4/etharp.c ****   struct eth_addr *srcaddr = (struct eth_addr *)netif->hwaddr;
 936:lwIP/src/core/ipv4/etharp.c ****   err_t result = ERR_MEM;
 937:lwIP/src/core/ipv4/etharp.c ****   int is_new_entry = 0;
 938:lwIP/src/core/ipv4/etharp.c ****   s16_t i_err;
 939:lwIP/src/core/ipv4/etharp.c ****   netif_addr_idx_t i;
 940:lwIP/src/core/ipv4/etharp.c **** 
 941:lwIP/src/core/ipv4/etharp.c ****   /* non-unicast address? */
 942:lwIP/src/core/ipv4/etharp.c ****   if (ip4_addr_isbroadcast(ipaddr, netif) ||
 943:lwIP/src/core/ipv4/etharp.c ****       ip4_addr_ismulticast(ipaddr) ||
 944:lwIP/src/core/ipv4/etharp.c ****       ip4_addr_isany(ipaddr)) {
 945:lwIP/src/core/ipv4/etharp.c ****     LWIP_DEBUGF(ETHARP_DEBUG | LWIP_DBG_TRACE, ("etharp_query: will not add non-unicast IP address 
 946:lwIP/src/core/ipv4/etharp.c ****     return ERR_ARG;
 947:lwIP/src/core/ipv4/etharp.c ****   }
 948:lwIP/src/core/ipv4/etharp.c **** 
 949:lwIP/src/core/ipv4/etharp.c ****   /* find entry in ARP cache, ask to create entry if queueing packet */
 950:lwIP/src/core/ipv4/etharp.c ****   i_err = etharp_find_entry(ipaddr, ETHARP_FLAG_TRY_HARD, netif);
 951:lwIP/src/core/ipv4/etharp.c **** 
 952:lwIP/src/core/ipv4/etharp.c ****   /* could not find or create entry? */
 953:lwIP/src/core/ipv4/etharp.c ****   if (i_err < 0) {
 954:lwIP/src/core/ipv4/etharp.c ****     LWIP_DEBUGF(ETHARP_DEBUG | LWIP_DBG_TRACE, ("etharp_query: could not create ARP entry\n"));
 955:lwIP/src/core/ipv4/etharp.c ****     if (q) {
 956:lwIP/src/core/ipv4/etharp.c ****       LWIP_DEBUGF(ETHARP_DEBUG | LWIP_DBG_TRACE, ("etharp_query: packet dropped\n"));
 957:lwIP/src/core/ipv4/etharp.c ****       ETHARP_STATS_INC(etharp.memerr);
 958:lwIP/src/core/ipv4/etharp.c ****     }
 959:lwIP/src/core/ipv4/etharp.c ****     return (err_t)i_err;
 960:lwIP/src/core/ipv4/etharp.c ****   }
 961:lwIP/src/core/ipv4/etharp.c ****   LWIP_ASSERT("type overflow", (size_t)i_err < NETIF_ADDR_IDX_MAX);
 962:lwIP/src/core/ipv4/etharp.c ****   i = (netif_addr_idx_t)i_err;
 963:lwIP/src/core/ipv4/etharp.c **** 
 964:lwIP/src/core/ipv4/etharp.c ****   /* mark a fresh entry as pending (we just sent a request) */
 965:lwIP/src/core/ipv4/etharp.c ****   if (arp_table[i].state == ETHARP_STATE_EMPTY) {
 966:lwIP/src/core/ipv4/etharp.c ****     is_new_entry = 1;
 967:lwIP/src/core/ipv4/etharp.c ****     arp_table[i].state = ETHARP_STATE_PENDING;
 968:lwIP/src/core/ipv4/etharp.c ****     /* record network interface for re-sending arp request in etharp_tmr */
 969:lwIP/src/core/ipv4/etharp.c ****     arp_table[i].netif = netif;
 970:lwIP/src/core/ipv4/etharp.c ****   }
 971:lwIP/src/core/ipv4/etharp.c **** 
 972:lwIP/src/core/ipv4/etharp.c ****   /* { i is either a STABLE or (new or existing) PENDING entry } */
 973:lwIP/src/core/ipv4/etharp.c ****   LWIP_ASSERT("arp_table[i].state == PENDING or STABLE",
ARM GAS  /tmp/cctR0i1S.s 			page 19


 974:lwIP/src/core/ipv4/etharp.c ****               ((arp_table[i].state == ETHARP_STATE_PENDING) ||
 975:lwIP/src/core/ipv4/etharp.c ****                (arp_table[i].state >= ETHARP_STATE_STABLE)));
 976:lwIP/src/core/ipv4/etharp.c **** 
 977:lwIP/src/core/ipv4/etharp.c ****   /* do we have a new entry? or an implicit query request? */
 978:lwIP/src/core/ipv4/etharp.c ****   if (is_new_entry || (q == NULL)) {
 979:lwIP/src/core/ipv4/etharp.c ****     /* try to resolve it; send out ARP request */
 980:lwIP/src/core/ipv4/etharp.c ****     result = etharp_request(netif, ipaddr);
 981:lwIP/src/core/ipv4/etharp.c ****     if (result != ERR_OK) {
 982:lwIP/src/core/ipv4/etharp.c ****       /* ARP request couldn't be sent */
 983:lwIP/src/core/ipv4/etharp.c ****       /* We don't re-send arp request in etharp_tmr, but we still queue packets,
 984:lwIP/src/core/ipv4/etharp.c ****          since this failure could be temporary, and the next packet calling
 985:lwIP/src/core/ipv4/etharp.c ****          etharp_query again could lead to sending the queued packets. */
 986:lwIP/src/core/ipv4/etharp.c ****     }
 987:lwIP/src/core/ipv4/etharp.c ****     if (q == NULL) {
 988:lwIP/src/core/ipv4/etharp.c ****       return result;
 989:lwIP/src/core/ipv4/etharp.c ****     }
 990:lwIP/src/core/ipv4/etharp.c ****   }
 991:lwIP/src/core/ipv4/etharp.c **** 
 992:lwIP/src/core/ipv4/etharp.c ****   /* packet given? */
 993:lwIP/src/core/ipv4/etharp.c ****   LWIP_ASSERT("q != NULL", q != NULL);
 994:lwIP/src/core/ipv4/etharp.c ****   /* stable entry? */
 995:lwIP/src/core/ipv4/etharp.c ****   if (arp_table[i].state >= ETHARP_STATE_STABLE) {
 996:lwIP/src/core/ipv4/etharp.c ****     /* we have a valid IP->Ethernet address mapping */
 997:lwIP/src/core/ipv4/etharp.c ****     ETHARP_SET_ADDRHINT(netif, i);
 998:lwIP/src/core/ipv4/etharp.c ****     /* send the packet */
 999:lwIP/src/core/ipv4/etharp.c ****     result = ethernet_output(netif, q, srcaddr, &(arp_table[i].ethaddr), ETHTYPE_IP);
1000:lwIP/src/core/ipv4/etharp.c ****     /* pending entry? (either just created or already pending */
1001:lwIP/src/core/ipv4/etharp.c ****   } else if (arp_table[i].state == ETHARP_STATE_PENDING) {
1002:lwIP/src/core/ipv4/etharp.c ****     /* entry is still pending, queue the given packet 'q' */
1003:lwIP/src/core/ipv4/etharp.c ****     struct pbuf *p;
1004:lwIP/src/core/ipv4/etharp.c ****     int copy_needed = 0;
1005:lwIP/src/core/ipv4/etharp.c ****     /* IF q includes a pbuf that must be copied, copy the whole chain into a
1006:lwIP/src/core/ipv4/etharp.c ****      * new PBUF_RAM. See the definition of PBUF_NEEDS_COPY for details. */
1007:lwIP/src/core/ipv4/etharp.c ****     p = q;
1008:lwIP/src/core/ipv4/etharp.c ****     while (p) {
1009:lwIP/src/core/ipv4/etharp.c ****       LWIP_ASSERT("no packet queues allowed!", (p->len != p->tot_len) || (p->next == 0));
1010:lwIP/src/core/ipv4/etharp.c ****       if (PBUF_NEEDS_COPY(p)) {
1011:lwIP/src/core/ipv4/etharp.c ****         copy_needed = 1;
1012:lwIP/src/core/ipv4/etharp.c ****         break;
1013:lwIP/src/core/ipv4/etharp.c ****       }
1014:lwIP/src/core/ipv4/etharp.c ****       p = p->next;
1015:lwIP/src/core/ipv4/etharp.c ****     }
1016:lwIP/src/core/ipv4/etharp.c ****     if (copy_needed) {
1017:lwIP/src/core/ipv4/etharp.c ****       /* copy the whole packet into new pbufs */
1018:lwIP/src/core/ipv4/etharp.c ****       p = pbuf_clone(PBUF_LINK, PBUF_RAM, q);
1019:lwIP/src/core/ipv4/etharp.c ****     } else {
1020:lwIP/src/core/ipv4/etharp.c ****       /* referencing the old pbuf is enough */
1021:lwIP/src/core/ipv4/etharp.c ****       p = q;
1022:lwIP/src/core/ipv4/etharp.c ****       pbuf_ref(p);
1023:lwIP/src/core/ipv4/etharp.c ****     }
1024:lwIP/src/core/ipv4/etharp.c ****     /* packet could be taken over? */
1025:lwIP/src/core/ipv4/etharp.c ****     if (p != NULL) {
1026:lwIP/src/core/ipv4/etharp.c ****       /* queue packet ... */
1027:lwIP/src/core/ipv4/etharp.c **** #if ARP_QUEUEING
1028:lwIP/src/core/ipv4/etharp.c ****       struct etharp_q_entry *new_entry;
1029:lwIP/src/core/ipv4/etharp.c ****       /* allocate a new arp queue entry */
1030:lwIP/src/core/ipv4/etharp.c ****       new_entry = (struct etharp_q_entry *)memp_malloc(MEMP_ARP_QUEUE);
ARM GAS  /tmp/cctR0i1S.s 			page 20


1031:lwIP/src/core/ipv4/etharp.c ****       if (new_entry != NULL) {
1032:lwIP/src/core/ipv4/etharp.c ****         unsigned int qlen = 0;
1033:lwIP/src/core/ipv4/etharp.c ****         new_entry->next = 0;
1034:lwIP/src/core/ipv4/etharp.c ****         new_entry->p = p;
1035:lwIP/src/core/ipv4/etharp.c ****         if (arp_table[i].q != NULL) {
1036:lwIP/src/core/ipv4/etharp.c ****           /* queue was already existent, append the new entry to the end */
1037:lwIP/src/core/ipv4/etharp.c ****           struct etharp_q_entry *r;
1038:lwIP/src/core/ipv4/etharp.c ****           r = arp_table[i].q;
1039:lwIP/src/core/ipv4/etharp.c ****           qlen++;
1040:lwIP/src/core/ipv4/etharp.c ****           while (r->next != NULL) {
1041:lwIP/src/core/ipv4/etharp.c ****             r = r->next;
1042:lwIP/src/core/ipv4/etharp.c ****             qlen++;
1043:lwIP/src/core/ipv4/etharp.c ****           }
1044:lwIP/src/core/ipv4/etharp.c ****           r->next = new_entry;
1045:lwIP/src/core/ipv4/etharp.c ****         } else {
1046:lwIP/src/core/ipv4/etharp.c ****           /* queue did not exist, first item in queue */
1047:lwIP/src/core/ipv4/etharp.c ****           arp_table[i].q = new_entry;
1048:lwIP/src/core/ipv4/etharp.c ****         }
1049:lwIP/src/core/ipv4/etharp.c **** #if ARP_QUEUE_LEN
1050:lwIP/src/core/ipv4/etharp.c ****         if (qlen >= ARP_QUEUE_LEN) {
1051:lwIP/src/core/ipv4/etharp.c ****           struct etharp_q_entry *old;
1052:lwIP/src/core/ipv4/etharp.c ****           old = arp_table[i].q;
1053:lwIP/src/core/ipv4/etharp.c ****           arp_table[i].q = arp_table[i].q->next;
1054:lwIP/src/core/ipv4/etharp.c ****           pbuf_free(old->p);
1055:lwIP/src/core/ipv4/etharp.c ****           memp_free(MEMP_ARP_QUEUE, old);
1056:lwIP/src/core/ipv4/etharp.c ****         }
1057:lwIP/src/core/ipv4/etharp.c **** #endif
1058:lwIP/src/core/ipv4/etharp.c ****         LWIP_DEBUGF(ETHARP_DEBUG | LWIP_DBG_TRACE, ("etharp_query: queued packet %p on ARP entry %"
1059:lwIP/src/core/ipv4/etharp.c ****         result = ERR_OK;
1060:lwIP/src/core/ipv4/etharp.c ****       } else {
1061:lwIP/src/core/ipv4/etharp.c ****         /* the pool MEMP_ARP_QUEUE is empty */
1062:lwIP/src/core/ipv4/etharp.c ****         pbuf_free(p);
1063:lwIP/src/core/ipv4/etharp.c ****         LWIP_DEBUGF(ETHARP_DEBUG | LWIP_DBG_TRACE, ("etharp_query: could not queue a copy of PBUF_R
1064:lwIP/src/core/ipv4/etharp.c ****         result = ERR_MEM;
1065:lwIP/src/core/ipv4/etharp.c ****       }
1066:lwIP/src/core/ipv4/etharp.c **** #else /* ARP_QUEUEING */
1067:lwIP/src/core/ipv4/etharp.c ****       /* always queue one packet per ARP request only, freeing a previously queued packet */
1068:lwIP/src/core/ipv4/etharp.c ****       if (arp_table[i].q != NULL) {
1069:lwIP/src/core/ipv4/etharp.c ****         LWIP_DEBUGF(ETHARP_DEBUG | LWIP_DBG_TRACE, ("etharp_query: dropped previously queued packet
1070:lwIP/src/core/ipv4/etharp.c ****         pbuf_free(arp_table[i].q);
1071:lwIP/src/core/ipv4/etharp.c ****       }
1072:lwIP/src/core/ipv4/etharp.c ****       arp_table[i].q = p;
1073:lwIP/src/core/ipv4/etharp.c ****       result = ERR_OK;
1074:lwIP/src/core/ipv4/etharp.c ****       LWIP_DEBUGF(ETHARP_DEBUG | LWIP_DBG_TRACE, ("etharp_query: queued packet %p on ARP entry %"U1
1075:lwIP/src/core/ipv4/etharp.c **** #endif /* ARP_QUEUEING */
1076:lwIP/src/core/ipv4/etharp.c ****     } else {
1077:lwIP/src/core/ipv4/etharp.c ****       ETHARP_STATS_INC(etharp.memerr);
1078:lwIP/src/core/ipv4/etharp.c ****       LWIP_DEBUGF(ETHARP_DEBUG | LWIP_DBG_TRACE, ("etharp_query: could not queue a copy of PBUF_REF
1079:lwIP/src/core/ipv4/etharp.c ****       result = ERR_MEM;
1080:lwIP/src/core/ipv4/etharp.c ****     }
1081:lwIP/src/core/ipv4/etharp.c ****   }
1082:lwIP/src/core/ipv4/etharp.c ****   return result;
1083:lwIP/src/core/ipv4/etharp.c **** }
1084:lwIP/src/core/ipv4/etharp.c **** 
1085:lwIP/src/core/ipv4/etharp.c **** /**
1086:lwIP/src/core/ipv4/etharp.c ****  * Send a raw ARP packet (opcode and all addresses can be modified)
1087:lwIP/src/core/ipv4/etharp.c ****  *
ARM GAS  /tmp/cctR0i1S.s 			page 21


1088:lwIP/src/core/ipv4/etharp.c ****  * @param netif the lwip network interface on which to send the ARP packet
1089:lwIP/src/core/ipv4/etharp.c ****  * @param ethsrc_addr the source MAC address for the ethernet header
1090:lwIP/src/core/ipv4/etharp.c ****  * @param ethdst_addr the destination MAC address for the ethernet header
1091:lwIP/src/core/ipv4/etharp.c ****  * @param hwsrc_addr the source MAC address for the ARP protocol header
1092:lwIP/src/core/ipv4/etharp.c ****  * @param ipsrc_addr the source IP address for the ARP protocol header
1093:lwIP/src/core/ipv4/etharp.c ****  * @param hwdst_addr the destination MAC address for the ARP protocol header
1094:lwIP/src/core/ipv4/etharp.c ****  * @param ipdst_addr the destination IP address for the ARP protocol header
1095:lwIP/src/core/ipv4/etharp.c ****  * @param opcode the type of the ARP packet
1096:lwIP/src/core/ipv4/etharp.c ****  * @return ERR_OK if the ARP packet has been sent
1097:lwIP/src/core/ipv4/etharp.c ****  *         ERR_MEM if the ARP packet couldn't be allocated
1098:lwIP/src/core/ipv4/etharp.c ****  *         any other err_t on failure
1099:lwIP/src/core/ipv4/etharp.c ****  */
1100:lwIP/src/core/ipv4/etharp.c **** static err_t
1101:lwIP/src/core/ipv4/etharp.c **** etharp_raw(struct netif *netif, const struct eth_addr *ethsrc_addr,
1102:lwIP/src/core/ipv4/etharp.c ****            const struct eth_addr *ethdst_addr,
1103:lwIP/src/core/ipv4/etharp.c ****            const struct eth_addr *hwsrc_addr, const ip4_addr_t *ipsrc_addr,
1104:lwIP/src/core/ipv4/etharp.c ****            const struct eth_addr *hwdst_addr, const ip4_addr_t *ipdst_addr,
1105:lwIP/src/core/ipv4/etharp.c ****            const u16_t opcode)
1106:lwIP/src/core/ipv4/etharp.c **** {
  41              		.loc 1 1106 1 view -0
  42              		.cfi_startproc
  43              		@ args = 16, pretend = 0, frame = 8
  44              		@ frame_needed = 0, uses_anonymous_args = 0
1107:lwIP/src/core/ipv4/etharp.c ****   struct pbuf *p;
  45              		.loc 1 1107 3 view .LVU1
1108:lwIP/src/core/ipv4/etharp.c ****   err_t result = ERR_OK;
  46              		.loc 1 1108 3 view .LVU2
1109:lwIP/src/core/ipv4/etharp.c ****   struct etharp_hdr *hdr;
  47              		.loc 1 1109 3 view .LVU3
1110:lwIP/src/core/ipv4/etharp.c **** 
1111:lwIP/src/core/ipv4/etharp.c ****   LWIP_ASSERT("netif != NULL", netif != NULL);
  48              		.loc 1 1111 3 view .LVU4
  49              		.loc 1 1111 3 view .LVU5
1106:lwIP/src/core/ipv4/etharp.c ****   struct pbuf *p;
  50              		.loc 1 1106 1 is_stmt 0 view .LVU6
  51 0000 2DE9F047 		push	{r4, r5, r6, r7, r8, r9, r10, lr}
  52              	.LCFI0:
  53              		.cfi_def_cfa_offset 32
  54              		.cfi_offset 4, -32
  55              		.cfi_offset 5, -28
  56              		.cfi_offset 6, -24
  57              		.cfi_offset 7, -20
  58              		.cfi_offset 8, -16
  59              		.cfi_offset 9, -12
  60              		.cfi_offset 10, -8
  61              		.cfi_offset 14, -4
  62 0004 84B0     		sub	sp, sp, #16
  63              	.LCFI1:
  64              		.cfi_def_cfa_offset 48
1106:lwIP/src/core/ipv4/etharp.c ****   struct pbuf *p;
  65              		.loc 1 1106 1 view .LVU7
  66 0006 DDE90C76 		ldrd	r7, r6, [sp, #48]
  67 000a BDF83C40 		ldrh	r4, [sp, #60]
  68              		.loc 1 1111 3 view .LVU8
  69 000e 00B3     		cbz	r0, .L12
  70              		.loc 1 1111 3 is_stmt 1 discriminator 2 view .LVU9
1112:lwIP/src/core/ipv4/etharp.c **** 
ARM GAS  /tmp/cctR0i1S.s 			page 22


1113:lwIP/src/core/ipv4/etharp.c ****   /* allocate a pbuf for the outgoing ARP request packet */
1114:lwIP/src/core/ipv4/etharp.c ****   p = pbuf_alloc(PBUF_LINK, SIZEOF_ETHARP_HDR, PBUF_RAM);
  71              		.loc 1 1114 3 discriminator 2 view .LVU10
  72 0010 0392     		str	r2, [sp, #12]
  73 0012 8A46     		mov	r10, r1
  74 0014 8046     		mov	r8, r0
  75              		.loc 1 1114 7 is_stmt 0 discriminator 2 view .LVU11
  76 0016 4FF42072 		mov	r2, #640
  77              	.LVL1:
  78              		.loc 1 1114 7 discriminator 2 view .LVU12
  79 001a 1C21     		movs	r1, #28
  80              	.LVL2:
  81              		.loc 1 1114 7 discriminator 2 view .LVU13
  82 001c 0E20     		movs	r0, #14
  83              	.LVL3:
  84              		.loc 1 1114 7 discriminator 2 view .LVU14
  85 001e 9946     		mov	r9, r3
  86 0020 FFF7FEFF 		bl	pbuf_alloc
  87              	.LVL4:
1115:lwIP/src/core/ipv4/etharp.c ****   /* could allocate a pbuf for an ARP request? */
1116:lwIP/src/core/ipv4/etharp.c ****   if (p == NULL) {
  88              		.loc 1 1116 3 is_stmt 1 discriminator 2 view .LVU15
  89              		.loc 1 1116 6 is_stmt 0 discriminator 2 view .LVU16
  90 0024 0546     		mov	r5, r0
  91 0026 0028     		cmp	r0, #0
  92 0028 44D0     		beq	.L9
1117:lwIP/src/core/ipv4/etharp.c ****     LWIP_DEBUGF(ETHARP_DEBUG | LWIP_DBG_TRACE | LWIP_DBG_LEVEL_SERIOUS,
1118:lwIP/src/core/ipv4/etharp.c ****                 ("etharp_raw: could not allocate pbuf for ARP request.\n"));
1119:lwIP/src/core/ipv4/etharp.c ****     ETHARP_STATS_INC(etharp.memerr);
1120:lwIP/src/core/ipv4/etharp.c ****     return ERR_MEM;
1121:lwIP/src/core/ipv4/etharp.c ****   }
1122:lwIP/src/core/ipv4/etharp.c ****   LWIP_ASSERT("check that first pbuf can hold struct etharp_hdr",
  93              		.loc 1 1122 3 is_stmt 1 view .LVU17
  94              		.loc 1 1122 3 view .LVU18
  95 002a 4289     		ldrh	r2, [r0, #10]
  96 002c 039B     		ldr	r3, [sp, #12]
  97 002e 1B2A     		cmp	r2, #27
  98 0030 0BD9     		bls	.L13
  99              		.loc 1 1122 3 discriminator 2 view .LVU19
1123:lwIP/src/core/ipv4/etharp.c ****               (p->len >= SIZEOF_ETHARP_HDR));
1124:lwIP/src/core/ipv4/etharp.c **** 
1125:lwIP/src/core/ipv4/etharp.c ****   hdr = (struct etharp_hdr *)p->payload;
 100              		.loc 1 1125 3 discriminator 2 view .LVU20
 101              	.LBB35:
 102              	.LBB36:
 103              		.file 2 "STM32_XPD/CMSIS/Include/cmsis_gcc.h"
   1:STM32_XPD/CMSIS/Include/cmsis_gcc.h **** /**************************************************************************//**
   2:STM32_XPD/CMSIS/Include/cmsis_gcc.h ****  * @file     cmsis_gcc.h
   3:STM32_XPD/CMSIS/Include/cmsis_gcc.h ****  * @brief    CMSIS compiler GCC header file
   4:STM32_XPD/CMSIS/Include/cmsis_gcc.h ****  * @version  V5.0.4
   5:STM32_XPD/CMSIS/Include/cmsis_gcc.h ****  * @date     09. April 2018
   6:STM32_XPD/CMSIS/Include/cmsis_gcc.h ****  ******************************************************************************/
   7:STM32_XPD/CMSIS/Include/cmsis_gcc.h **** /*
   8:STM32_XPD/CMSIS/Include/cmsis_gcc.h ****  * Copyright (c) 2009-2018 Arm Limited. All rights reserved.
   9:STM32_XPD/CMSIS/Include/cmsis_gcc.h ****  *
  10:STM32_XPD/CMSIS/Include/cmsis_gcc.h ****  * SPDX-License-Identifier: Apache-2.0
  11:STM32_XPD/CMSIS/Include/cmsis_gcc.h ****  *
ARM GAS  /tmp/cctR0i1S.s 			page 23


  12:STM32_XPD/CMSIS/Include/cmsis_gcc.h ****  * Licensed under the Apache License, Version 2.0 (the License); you may
  13:STM32_XPD/CMSIS/Include/cmsis_gcc.h ****  * not use this file except in compliance with the License.
  14:STM32_XPD/CMSIS/Include/cmsis_gcc.h ****  * You may obtain a copy of the License at
  15:STM32_XPD/CMSIS/Include/cmsis_gcc.h ****  *
  16:STM32_XPD/CMSIS/Include/cmsis_gcc.h ****  * www.apache.org/licenses/LICENSE-2.0
  17:STM32_XPD/CMSIS/Include/cmsis_gcc.h ****  *
  18:STM32_XPD/CMSIS/Include/cmsis_gcc.h ****  * Unless required by applicable law or agreed to in writing, software
  19:STM32_XPD/CMSIS/Include/cmsis_gcc.h ****  * distributed under the License is distributed on an AS IS BASIS, WITHOUT
  20:STM32_XPD/CMSIS/Include/cmsis_gcc.h ****  * WARRANTIES OR CONDITIONS OF ANY KIND, either express or implied.
  21:STM32_XPD/CMSIS/Include/cmsis_gcc.h ****  * See the License for the specific language governing permissions and
  22:STM32_XPD/CMSIS/Include/cmsis_gcc.h ****  * limitations under the License.
  23:STM32_XPD/CMSIS/Include/cmsis_gcc.h ****  */
  24:STM32_XPD/CMSIS/Include/cmsis_gcc.h **** 
  25:STM32_XPD/CMSIS/Include/cmsis_gcc.h **** #ifndef __CMSIS_GCC_H
  26:STM32_XPD/CMSIS/Include/cmsis_gcc.h **** #define __CMSIS_GCC_H
  27:STM32_XPD/CMSIS/Include/cmsis_gcc.h **** 
  28:STM32_XPD/CMSIS/Include/cmsis_gcc.h **** /* ignore some GCC warnings */
  29:STM32_XPD/CMSIS/Include/cmsis_gcc.h **** #pragma GCC diagnostic push
  30:STM32_XPD/CMSIS/Include/cmsis_gcc.h **** #pragma GCC diagnostic ignored "-Wsign-conversion"
  31:STM32_XPD/CMSIS/Include/cmsis_gcc.h **** #pragma GCC diagnostic ignored "-Wconversion"
  32:STM32_XPD/CMSIS/Include/cmsis_gcc.h **** #pragma GCC diagnostic ignored "-Wunused-parameter"
  33:STM32_XPD/CMSIS/Include/cmsis_gcc.h **** 
  34:STM32_XPD/CMSIS/Include/cmsis_gcc.h **** /* Fallback for __has_builtin */
  35:STM32_XPD/CMSIS/Include/cmsis_gcc.h **** #ifndef __has_builtin
  36:STM32_XPD/CMSIS/Include/cmsis_gcc.h ****   #define __has_builtin(x) (0)
  37:STM32_XPD/CMSIS/Include/cmsis_gcc.h **** #endif
  38:STM32_XPD/CMSIS/Include/cmsis_gcc.h **** 
  39:STM32_XPD/CMSIS/Include/cmsis_gcc.h **** /* CMSIS compiler specific defines */
  40:STM32_XPD/CMSIS/Include/cmsis_gcc.h **** #ifndef   __ASM
  41:STM32_XPD/CMSIS/Include/cmsis_gcc.h ****   #define __ASM                                  __asm
  42:STM32_XPD/CMSIS/Include/cmsis_gcc.h **** #endif
  43:STM32_XPD/CMSIS/Include/cmsis_gcc.h **** #ifndef   __INLINE
  44:STM32_XPD/CMSIS/Include/cmsis_gcc.h ****   #define __INLINE                               inline
  45:STM32_XPD/CMSIS/Include/cmsis_gcc.h **** #endif
  46:STM32_XPD/CMSIS/Include/cmsis_gcc.h **** #ifndef   __STATIC_INLINE
  47:STM32_XPD/CMSIS/Include/cmsis_gcc.h ****   #define __STATIC_INLINE                        static inline
  48:STM32_XPD/CMSIS/Include/cmsis_gcc.h **** #endif
  49:STM32_XPD/CMSIS/Include/cmsis_gcc.h **** #ifndef   __STATIC_FORCEINLINE                 
  50:STM32_XPD/CMSIS/Include/cmsis_gcc.h ****   #define __STATIC_FORCEINLINE                   __attribute__((always_inline)) static inline
  51:STM32_XPD/CMSIS/Include/cmsis_gcc.h **** #endif                                           
  52:STM32_XPD/CMSIS/Include/cmsis_gcc.h **** #ifndef   __NO_RETURN
  53:STM32_XPD/CMSIS/Include/cmsis_gcc.h ****   #define __NO_RETURN                            __attribute__((__noreturn__))
  54:STM32_XPD/CMSIS/Include/cmsis_gcc.h **** #endif
  55:STM32_XPD/CMSIS/Include/cmsis_gcc.h **** #ifndef   __USED
  56:STM32_XPD/CMSIS/Include/cmsis_gcc.h ****   #define __USED                                 __attribute__((used))
  57:STM32_XPD/CMSIS/Include/cmsis_gcc.h **** #endif
  58:STM32_XPD/CMSIS/Include/cmsis_gcc.h **** #ifndef   __WEAK
  59:STM32_XPD/CMSIS/Include/cmsis_gcc.h ****   #define __WEAK                                 __attribute__((weak))
  60:STM32_XPD/CMSIS/Include/cmsis_gcc.h **** #endif
  61:STM32_XPD/CMSIS/Include/cmsis_gcc.h **** #ifndef   __PACKED
  62:STM32_XPD/CMSIS/Include/cmsis_gcc.h ****   #define __PACKED                               __attribute__((packed, aligned(1)))
  63:STM32_XPD/CMSIS/Include/cmsis_gcc.h **** #endif
  64:STM32_XPD/CMSIS/Include/cmsis_gcc.h **** #ifndef   __PACKED_STRUCT
  65:STM32_XPD/CMSIS/Include/cmsis_gcc.h ****   #define __PACKED_STRUCT                        struct __attribute__((packed, aligned(1)))
  66:STM32_XPD/CMSIS/Include/cmsis_gcc.h **** #endif
  67:STM32_XPD/CMSIS/Include/cmsis_gcc.h **** #ifndef   __PACKED_UNION
  68:STM32_XPD/CMSIS/Include/cmsis_gcc.h ****   #define __PACKED_UNION                         union __attribute__((packed, aligned(1)))
ARM GAS  /tmp/cctR0i1S.s 			page 24


  69:STM32_XPD/CMSIS/Include/cmsis_gcc.h **** #endif
  70:STM32_XPD/CMSIS/Include/cmsis_gcc.h **** #ifndef   __UNALIGNED_UINT32        /* deprecated */
  71:STM32_XPD/CMSIS/Include/cmsis_gcc.h ****   #pragma GCC diagnostic push
  72:STM32_XPD/CMSIS/Include/cmsis_gcc.h ****   #pragma GCC diagnostic ignored "-Wpacked"
  73:STM32_XPD/CMSIS/Include/cmsis_gcc.h ****   #pragma GCC diagnostic ignored "-Wattributes"
  74:STM32_XPD/CMSIS/Include/cmsis_gcc.h ****   struct __attribute__((packed)) T_UINT32 { uint32_t v; };
  75:STM32_XPD/CMSIS/Include/cmsis_gcc.h ****   #pragma GCC diagnostic pop
  76:STM32_XPD/CMSIS/Include/cmsis_gcc.h ****   #define __UNALIGNED_UINT32(x)                  (((struct T_UINT32 *)(x))->v)
  77:STM32_XPD/CMSIS/Include/cmsis_gcc.h **** #endif
  78:STM32_XPD/CMSIS/Include/cmsis_gcc.h **** #ifndef   __UNALIGNED_UINT16_WRITE
  79:STM32_XPD/CMSIS/Include/cmsis_gcc.h ****   #pragma GCC diagnostic push
  80:STM32_XPD/CMSIS/Include/cmsis_gcc.h ****   #pragma GCC diagnostic ignored "-Wpacked"
  81:STM32_XPD/CMSIS/Include/cmsis_gcc.h ****   #pragma GCC diagnostic ignored "-Wattributes"
  82:STM32_XPD/CMSIS/Include/cmsis_gcc.h ****   __PACKED_STRUCT T_UINT16_WRITE { uint16_t v; };
  83:STM32_XPD/CMSIS/Include/cmsis_gcc.h ****   #pragma GCC diagnostic pop
  84:STM32_XPD/CMSIS/Include/cmsis_gcc.h ****   #define __UNALIGNED_UINT16_WRITE(addr, val)    (void)((((struct T_UINT16_WRITE *)(void *)(addr))-
  85:STM32_XPD/CMSIS/Include/cmsis_gcc.h **** #endif
  86:STM32_XPD/CMSIS/Include/cmsis_gcc.h **** #ifndef   __UNALIGNED_UINT16_READ
  87:STM32_XPD/CMSIS/Include/cmsis_gcc.h ****   #pragma GCC diagnostic push
  88:STM32_XPD/CMSIS/Include/cmsis_gcc.h ****   #pragma GCC diagnostic ignored "-Wpacked"
  89:STM32_XPD/CMSIS/Include/cmsis_gcc.h ****   #pragma GCC diagnostic ignored "-Wattributes"
  90:STM32_XPD/CMSIS/Include/cmsis_gcc.h ****   __PACKED_STRUCT T_UINT16_READ { uint16_t v; };
  91:STM32_XPD/CMSIS/Include/cmsis_gcc.h ****   #pragma GCC diagnostic pop
  92:STM32_XPD/CMSIS/Include/cmsis_gcc.h ****   #define __UNALIGNED_UINT16_READ(addr)          (((const struct T_UINT16_READ *)(const void *)(add
  93:STM32_XPD/CMSIS/Include/cmsis_gcc.h **** #endif
  94:STM32_XPD/CMSIS/Include/cmsis_gcc.h **** #ifndef   __UNALIGNED_UINT32_WRITE
  95:STM32_XPD/CMSIS/Include/cmsis_gcc.h ****   #pragma GCC diagnostic push
  96:STM32_XPD/CMSIS/Include/cmsis_gcc.h ****   #pragma GCC diagnostic ignored "-Wpacked"
  97:STM32_XPD/CMSIS/Include/cmsis_gcc.h ****   #pragma GCC diagnostic ignored "-Wattributes"
  98:STM32_XPD/CMSIS/Include/cmsis_gcc.h ****   __PACKED_STRUCT T_UINT32_WRITE { uint32_t v; };
  99:STM32_XPD/CMSIS/Include/cmsis_gcc.h ****   #pragma GCC diagnostic pop
 100:STM32_XPD/CMSIS/Include/cmsis_gcc.h ****   #define __UNALIGNED_UINT32_WRITE(addr, val)    (void)((((struct T_UINT32_WRITE *)(void *)(addr))-
 101:STM32_XPD/CMSIS/Include/cmsis_gcc.h **** #endif
 102:STM32_XPD/CMSIS/Include/cmsis_gcc.h **** #ifndef   __UNALIGNED_UINT32_READ
 103:STM32_XPD/CMSIS/Include/cmsis_gcc.h ****   #pragma GCC diagnostic push
 104:STM32_XPD/CMSIS/Include/cmsis_gcc.h ****   #pragma GCC diagnostic ignored "-Wpacked"
 105:STM32_XPD/CMSIS/Include/cmsis_gcc.h ****   #pragma GCC diagnostic ignored "-Wattributes"
 106:STM32_XPD/CMSIS/Include/cmsis_gcc.h ****   __PACKED_STRUCT T_UINT32_READ { uint32_t v; };
 107:STM32_XPD/CMSIS/Include/cmsis_gcc.h ****   #pragma GCC diagnostic pop
 108:STM32_XPD/CMSIS/Include/cmsis_gcc.h ****   #define __UNALIGNED_UINT32_READ(addr)          (((const struct T_UINT32_READ *)(const void *)(add
 109:STM32_XPD/CMSIS/Include/cmsis_gcc.h **** #endif
 110:STM32_XPD/CMSIS/Include/cmsis_gcc.h **** #ifndef   __ALIGNED
 111:STM32_XPD/CMSIS/Include/cmsis_gcc.h ****   #define __ALIGNED(x)                           __attribute__((aligned(x)))
 112:STM32_XPD/CMSIS/Include/cmsis_gcc.h **** #endif
 113:STM32_XPD/CMSIS/Include/cmsis_gcc.h **** #ifndef   __RESTRICT
 114:STM32_XPD/CMSIS/Include/cmsis_gcc.h ****   #define __RESTRICT                             __restrict
 115:STM32_XPD/CMSIS/Include/cmsis_gcc.h **** #endif
 116:STM32_XPD/CMSIS/Include/cmsis_gcc.h **** 
 117:STM32_XPD/CMSIS/Include/cmsis_gcc.h **** 
 118:STM32_XPD/CMSIS/Include/cmsis_gcc.h **** /* ###########################  Core Function Access  ########################### */
 119:STM32_XPD/CMSIS/Include/cmsis_gcc.h **** /** \ingroup  CMSIS_Core_FunctionInterface
 120:STM32_XPD/CMSIS/Include/cmsis_gcc.h ****     \defgroup CMSIS_Core_RegAccFunctions CMSIS Core Register Access Functions
 121:STM32_XPD/CMSIS/Include/cmsis_gcc.h ****   @{
 122:STM32_XPD/CMSIS/Include/cmsis_gcc.h ****  */
 123:STM32_XPD/CMSIS/Include/cmsis_gcc.h **** 
 124:STM32_XPD/CMSIS/Include/cmsis_gcc.h **** /**
 125:STM32_XPD/CMSIS/Include/cmsis_gcc.h ****   \brief   Enable IRQ Interrupts
ARM GAS  /tmp/cctR0i1S.s 			page 25


 126:STM32_XPD/CMSIS/Include/cmsis_gcc.h ****   \details Enables IRQ interrupts by clearing the I-bit in the CPSR.
 127:STM32_XPD/CMSIS/Include/cmsis_gcc.h ****            Can only be executed in Privileged modes.
 128:STM32_XPD/CMSIS/Include/cmsis_gcc.h ****  */
 129:STM32_XPD/CMSIS/Include/cmsis_gcc.h **** __STATIC_FORCEINLINE void __enable_irq(void)
 130:STM32_XPD/CMSIS/Include/cmsis_gcc.h **** {
 131:STM32_XPD/CMSIS/Include/cmsis_gcc.h ****   __ASM volatile ("cpsie i" : : : "memory");
 132:STM32_XPD/CMSIS/Include/cmsis_gcc.h **** }
 133:STM32_XPD/CMSIS/Include/cmsis_gcc.h **** 
 134:STM32_XPD/CMSIS/Include/cmsis_gcc.h **** 
 135:STM32_XPD/CMSIS/Include/cmsis_gcc.h **** /**
 136:STM32_XPD/CMSIS/Include/cmsis_gcc.h ****   \brief   Disable IRQ Interrupts
 137:STM32_XPD/CMSIS/Include/cmsis_gcc.h ****   \details Disables IRQ interrupts by setting the I-bit in the CPSR.
 138:STM32_XPD/CMSIS/Include/cmsis_gcc.h ****            Can only be executed in Privileged modes.
 139:STM32_XPD/CMSIS/Include/cmsis_gcc.h ****  */
 140:STM32_XPD/CMSIS/Include/cmsis_gcc.h **** __STATIC_FORCEINLINE void __disable_irq(void)
 141:STM32_XPD/CMSIS/Include/cmsis_gcc.h **** {
 142:STM32_XPD/CMSIS/Include/cmsis_gcc.h ****   __ASM volatile ("cpsid i" : : : "memory");
 143:STM32_XPD/CMSIS/Include/cmsis_gcc.h **** }
 144:STM32_XPD/CMSIS/Include/cmsis_gcc.h **** 
 145:STM32_XPD/CMSIS/Include/cmsis_gcc.h **** 
 146:STM32_XPD/CMSIS/Include/cmsis_gcc.h **** /**
 147:STM32_XPD/CMSIS/Include/cmsis_gcc.h ****   \brief   Get Control Register
 148:STM32_XPD/CMSIS/Include/cmsis_gcc.h ****   \details Returns the content of the Control Register.
 149:STM32_XPD/CMSIS/Include/cmsis_gcc.h ****   \return               Control Register value
 150:STM32_XPD/CMSIS/Include/cmsis_gcc.h ****  */
 151:STM32_XPD/CMSIS/Include/cmsis_gcc.h **** __STATIC_FORCEINLINE uint32_t __get_CONTROL(void)
 152:STM32_XPD/CMSIS/Include/cmsis_gcc.h **** {
 153:STM32_XPD/CMSIS/Include/cmsis_gcc.h ****   uint32_t result;
 154:STM32_XPD/CMSIS/Include/cmsis_gcc.h **** 
 155:STM32_XPD/CMSIS/Include/cmsis_gcc.h ****   __ASM volatile ("MRS %0, control" : "=r" (result) );
 156:STM32_XPD/CMSIS/Include/cmsis_gcc.h ****   return(result);
 157:STM32_XPD/CMSIS/Include/cmsis_gcc.h **** }
 158:STM32_XPD/CMSIS/Include/cmsis_gcc.h **** 
 159:STM32_XPD/CMSIS/Include/cmsis_gcc.h **** 
 160:STM32_XPD/CMSIS/Include/cmsis_gcc.h **** #if (defined (__ARM_FEATURE_CMSE ) && (__ARM_FEATURE_CMSE == 3))
 161:STM32_XPD/CMSIS/Include/cmsis_gcc.h **** /**
 162:STM32_XPD/CMSIS/Include/cmsis_gcc.h ****   \brief   Get Control Register (non-secure)
 163:STM32_XPD/CMSIS/Include/cmsis_gcc.h ****   \details Returns the content of the non-secure Control Register when in secure mode.
 164:STM32_XPD/CMSIS/Include/cmsis_gcc.h ****   \return               non-secure Control Register value
 165:STM32_XPD/CMSIS/Include/cmsis_gcc.h ****  */
 166:STM32_XPD/CMSIS/Include/cmsis_gcc.h **** __STATIC_FORCEINLINE uint32_t __TZ_get_CONTROL_NS(void)
 167:STM32_XPD/CMSIS/Include/cmsis_gcc.h **** {
 168:STM32_XPD/CMSIS/Include/cmsis_gcc.h ****   uint32_t result;
 169:STM32_XPD/CMSIS/Include/cmsis_gcc.h **** 
 170:STM32_XPD/CMSIS/Include/cmsis_gcc.h ****   __ASM volatile ("MRS %0, control_ns" : "=r" (result) );
 171:STM32_XPD/CMSIS/Include/cmsis_gcc.h ****   return(result);
 172:STM32_XPD/CMSIS/Include/cmsis_gcc.h **** }
 173:STM32_XPD/CMSIS/Include/cmsis_gcc.h **** #endif
 174:STM32_XPD/CMSIS/Include/cmsis_gcc.h **** 
 175:STM32_XPD/CMSIS/Include/cmsis_gcc.h **** 
 176:STM32_XPD/CMSIS/Include/cmsis_gcc.h **** /**
 177:STM32_XPD/CMSIS/Include/cmsis_gcc.h ****   \brief   Set Control Register
 178:STM32_XPD/CMSIS/Include/cmsis_gcc.h ****   \details Writes the given value to the Control Register.
 179:STM32_XPD/CMSIS/Include/cmsis_gcc.h ****   \param [in]    control  Control Register value to set
 180:STM32_XPD/CMSIS/Include/cmsis_gcc.h ****  */
 181:STM32_XPD/CMSIS/Include/cmsis_gcc.h **** __STATIC_FORCEINLINE void __set_CONTROL(uint32_t control)
 182:STM32_XPD/CMSIS/Include/cmsis_gcc.h **** {
ARM GAS  /tmp/cctR0i1S.s 			page 26


 183:STM32_XPD/CMSIS/Include/cmsis_gcc.h ****   __ASM volatile ("MSR control, %0" : : "r" (control) : "memory");
 184:STM32_XPD/CMSIS/Include/cmsis_gcc.h **** }
 185:STM32_XPD/CMSIS/Include/cmsis_gcc.h **** 
 186:STM32_XPD/CMSIS/Include/cmsis_gcc.h **** 
 187:STM32_XPD/CMSIS/Include/cmsis_gcc.h **** #if (defined (__ARM_FEATURE_CMSE ) && (__ARM_FEATURE_CMSE == 3))
 188:STM32_XPD/CMSIS/Include/cmsis_gcc.h **** /**
 189:STM32_XPD/CMSIS/Include/cmsis_gcc.h ****   \brief   Set Control Register (non-secure)
 190:STM32_XPD/CMSIS/Include/cmsis_gcc.h ****   \details Writes the given value to the non-secure Control Register when in secure state.
 191:STM32_XPD/CMSIS/Include/cmsis_gcc.h ****   \param [in]    control  Control Register value to set
 192:STM32_XPD/CMSIS/Include/cmsis_gcc.h ****  */
 193:STM32_XPD/CMSIS/Include/cmsis_gcc.h **** __STATIC_FORCEINLINE void __TZ_set_CONTROL_NS(uint32_t control)
 194:STM32_XPD/CMSIS/Include/cmsis_gcc.h **** {
 195:STM32_XPD/CMSIS/Include/cmsis_gcc.h ****   __ASM volatile ("MSR control_ns, %0" : : "r" (control) : "memory");
 196:STM32_XPD/CMSIS/Include/cmsis_gcc.h **** }
 197:STM32_XPD/CMSIS/Include/cmsis_gcc.h **** #endif
 198:STM32_XPD/CMSIS/Include/cmsis_gcc.h **** 
 199:STM32_XPD/CMSIS/Include/cmsis_gcc.h **** 
 200:STM32_XPD/CMSIS/Include/cmsis_gcc.h **** /**
 201:STM32_XPD/CMSIS/Include/cmsis_gcc.h ****   \brief   Get IPSR Register
 202:STM32_XPD/CMSIS/Include/cmsis_gcc.h ****   \details Returns the content of the IPSR Register.
 203:STM32_XPD/CMSIS/Include/cmsis_gcc.h ****   \return               IPSR Register value
 204:STM32_XPD/CMSIS/Include/cmsis_gcc.h ****  */
 205:STM32_XPD/CMSIS/Include/cmsis_gcc.h **** __STATIC_FORCEINLINE uint32_t __get_IPSR(void)
 206:STM32_XPD/CMSIS/Include/cmsis_gcc.h **** {
 207:STM32_XPD/CMSIS/Include/cmsis_gcc.h ****   uint32_t result;
 208:STM32_XPD/CMSIS/Include/cmsis_gcc.h **** 
 209:STM32_XPD/CMSIS/Include/cmsis_gcc.h ****   __ASM volatile ("MRS %0, ipsr" : "=r" (result) );
 210:STM32_XPD/CMSIS/Include/cmsis_gcc.h ****   return(result);
 211:STM32_XPD/CMSIS/Include/cmsis_gcc.h **** }
 212:STM32_XPD/CMSIS/Include/cmsis_gcc.h **** 
 213:STM32_XPD/CMSIS/Include/cmsis_gcc.h **** 
 214:STM32_XPD/CMSIS/Include/cmsis_gcc.h **** /**
 215:STM32_XPD/CMSIS/Include/cmsis_gcc.h ****   \brief   Get APSR Register
 216:STM32_XPD/CMSIS/Include/cmsis_gcc.h ****   \details Returns the content of the APSR Register.
 217:STM32_XPD/CMSIS/Include/cmsis_gcc.h ****   \return               APSR Register value
 218:STM32_XPD/CMSIS/Include/cmsis_gcc.h ****  */
 219:STM32_XPD/CMSIS/Include/cmsis_gcc.h **** __STATIC_FORCEINLINE uint32_t __get_APSR(void)
 220:STM32_XPD/CMSIS/Include/cmsis_gcc.h **** {
 221:STM32_XPD/CMSIS/Include/cmsis_gcc.h ****   uint32_t result;
 222:STM32_XPD/CMSIS/Include/cmsis_gcc.h **** 
 223:STM32_XPD/CMSIS/Include/cmsis_gcc.h ****   __ASM volatile ("MRS %0, apsr" : "=r" (result) );
 224:STM32_XPD/CMSIS/Include/cmsis_gcc.h ****   return(result);
 225:STM32_XPD/CMSIS/Include/cmsis_gcc.h **** }
 226:STM32_XPD/CMSIS/Include/cmsis_gcc.h **** 
 227:STM32_XPD/CMSIS/Include/cmsis_gcc.h **** 
 228:STM32_XPD/CMSIS/Include/cmsis_gcc.h **** /**
 229:STM32_XPD/CMSIS/Include/cmsis_gcc.h ****   \brief   Get xPSR Register
 230:STM32_XPD/CMSIS/Include/cmsis_gcc.h ****   \details Returns the content of the xPSR Register.
 231:STM32_XPD/CMSIS/Include/cmsis_gcc.h ****   \return               xPSR Register value
 232:STM32_XPD/CMSIS/Include/cmsis_gcc.h ****  */
 233:STM32_XPD/CMSIS/Include/cmsis_gcc.h **** __STATIC_FORCEINLINE uint32_t __get_xPSR(void)
 234:STM32_XPD/CMSIS/Include/cmsis_gcc.h **** {
 235:STM32_XPD/CMSIS/Include/cmsis_gcc.h ****   uint32_t result;
 236:STM32_XPD/CMSIS/Include/cmsis_gcc.h **** 
 237:STM32_XPD/CMSIS/Include/cmsis_gcc.h ****   __ASM volatile ("MRS %0, xpsr" : "=r" (result) );
 238:STM32_XPD/CMSIS/Include/cmsis_gcc.h ****   return(result);
 239:STM32_XPD/CMSIS/Include/cmsis_gcc.h **** }
ARM GAS  /tmp/cctR0i1S.s 			page 27


 240:STM32_XPD/CMSIS/Include/cmsis_gcc.h **** 
 241:STM32_XPD/CMSIS/Include/cmsis_gcc.h **** 
 242:STM32_XPD/CMSIS/Include/cmsis_gcc.h **** /**
 243:STM32_XPD/CMSIS/Include/cmsis_gcc.h ****   \brief   Get Process Stack Pointer
 244:STM32_XPD/CMSIS/Include/cmsis_gcc.h ****   \details Returns the current value of the Process Stack Pointer (PSP).
 245:STM32_XPD/CMSIS/Include/cmsis_gcc.h ****   \return               PSP Register value
 246:STM32_XPD/CMSIS/Include/cmsis_gcc.h ****  */
 247:STM32_XPD/CMSIS/Include/cmsis_gcc.h **** __STATIC_FORCEINLINE uint32_t __get_PSP(void)
 248:STM32_XPD/CMSIS/Include/cmsis_gcc.h **** {
 249:STM32_XPD/CMSIS/Include/cmsis_gcc.h ****   uint32_t result;
 250:STM32_XPD/CMSIS/Include/cmsis_gcc.h **** 
 251:STM32_XPD/CMSIS/Include/cmsis_gcc.h ****   __ASM volatile ("MRS %0, psp"  : "=r" (result) );
 252:STM32_XPD/CMSIS/Include/cmsis_gcc.h ****   return(result);
 253:STM32_XPD/CMSIS/Include/cmsis_gcc.h **** }
 254:STM32_XPD/CMSIS/Include/cmsis_gcc.h **** 
 255:STM32_XPD/CMSIS/Include/cmsis_gcc.h **** 
 256:STM32_XPD/CMSIS/Include/cmsis_gcc.h **** #if (defined (__ARM_FEATURE_CMSE ) && (__ARM_FEATURE_CMSE == 3))
 257:STM32_XPD/CMSIS/Include/cmsis_gcc.h **** /**
 258:STM32_XPD/CMSIS/Include/cmsis_gcc.h ****   \brief   Get Process Stack Pointer (non-secure)
 259:STM32_XPD/CMSIS/Include/cmsis_gcc.h ****   \details Returns the current value of the non-secure Process Stack Pointer (PSP) when in secure s
 260:STM32_XPD/CMSIS/Include/cmsis_gcc.h ****   \return               PSP Register value
 261:STM32_XPD/CMSIS/Include/cmsis_gcc.h ****  */
 262:STM32_XPD/CMSIS/Include/cmsis_gcc.h **** __STATIC_FORCEINLINE uint32_t __TZ_get_PSP_NS(void)
 263:STM32_XPD/CMSIS/Include/cmsis_gcc.h **** {
 264:STM32_XPD/CMSIS/Include/cmsis_gcc.h ****   uint32_t result;
 265:STM32_XPD/CMSIS/Include/cmsis_gcc.h **** 
 266:STM32_XPD/CMSIS/Include/cmsis_gcc.h ****   __ASM volatile ("MRS %0, psp_ns"  : "=r" (result) );
 267:STM32_XPD/CMSIS/Include/cmsis_gcc.h ****   return(result);
 268:STM32_XPD/CMSIS/Include/cmsis_gcc.h **** }
 269:STM32_XPD/CMSIS/Include/cmsis_gcc.h **** #endif
 270:STM32_XPD/CMSIS/Include/cmsis_gcc.h **** 
 271:STM32_XPD/CMSIS/Include/cmsis_gcc.h **** 
 272:STM32_XPD/CMSIS/Include/cmsis_gcc.h **** /**
 273:STM32_XPD/CMSIS/Include/cmsis_gcc.h ****   \brief   Set Process Stack Pointer
 274:STM32_XPD/CMSIS/Include/cmsis_gcc.h ****   \details Assigns the given value to the Process Stack Pointer (PSP).
 275:STM32_XPD/CMSIS/Include/cmsis_gcc.h ****   \param [in]    topOfProcStack  Process Stack Pointer value to set
 276:STM32_XPD/CMSIS/Include/cmsis_gcc.h ****  */
 277:STM32_XPD/CMSIS/Include/cmsis_gcc.h **** __STATIC_FORCEINLINE void __set_PSP(uint32_t topOfProcStack)
 278:STM32_XPD/CMSIS/Include/cmsis_gcc.h **** {
 279:STM32_XPD/CMSIS/Include/cmsis_gcc.h ****   __ASM volatile ("MSR psp, %0" : : "r" (topOfProcStack) : );
 280:STM32_XPD/CMSIS/Include/cmsis_gcc.h **** }
 281:STM32_XPD/CMSIS/Include/cmsis_gcc.h **** 
 282:STM32_XPD/CMSIS/Include/cmsis_gcc.h **** 
 283:STM32_XPD/CMSIS/Include/cmsis_gcc.h **** #if (defined (__ARM_FEATURE_CMSE ) && (__ARM_FEATURE_CMSE == 3))
 284:STM32_XPD/CMSIS/Include/cmsis_gcc.h **** /**
 285:STM32_XPD/CMSIS/Include/cmsis_gcc.h ****   \brief   Set Process Stack Pointer (non-secure)
 286:STM32_XPD/CMSIS/Include/cmsis_gcc.h ****   \details Assigns the given value to the non-secure Process Stack Pointer (PSP) when in secure sta
 287:STM32_XPD/CMSIS/Include/cmsis_gcc.h ****   \param [in]    topOfProcStack  Process Stack Pointer value to set
 288:STM32_XPD/CMSIS/Include/cmsis_gcc.h ****  */
 289:STM32_XPD/CMSIS/Include/cmsis_gcc.h **** __STATIC_FORCEINLINE void __TZ_set_PSP_NS(uint32_t topOfProcStack)
 290:STM32_XPD/CMSIS/Include/cmsis_gcc.h **** {
 291:STM32_XPD/CMSIS/Include/cmsis_gcc.h ****   __ASM volatile ("MSR psp_ns, %0" : : "r" (topOfProcStack) : );
 292:STM32_XPD/CMSIS/Include/cmsis_gcc.h **** }
 293:STM32_XPD/CMSIS/Include/cmsis_gcc.h **** #endif
 294:STM32_XPD/CMSIS/Include/cmsis_gcc.h **** 
 295:STM32_XPD/CMSIS/Include/cmsis_gcc.h **** 
 296:STM32_XPD/CMSIS/Include/cmsis_gcc.h **** /**
ARM GAS  /tmp/cctR0i1S.s 			page 28


 297:STM32_XPD/CMSIS/Include/cmsis_gcc.h ****   \brief   Get Main Stack Pointer
 298:STM32_XPD/CMSIS/Include/cmsis_gcc.h ****   \details Returns the current value of the Main Stack Pointer (MSP).
 299:STM32_XPD/CMSIS/Include/cmsis_gcc.h ****   \return               MSP Register value
 300:STM32_XPD/CMSIS/Include/cmsis_gcc.h ****  */
 301:STM32_XPD/CMSIS/Include/cmsis_gcc.h **** __STATIC_FORCEINLINE uint32_t __get_MSP(void)
 302:STM32_XPD/CMSIS/Include/cmsis_gcc.h **** {
 303:STM32_XPD/CMSIS/Include/cmsis_gcc.h ****   uint32_t result;
 304:STM32_XPD/CMSIS/Include/cmsis_gcc.h **** 
 305:STM32_XPD/CMSIS/Include/cmsis_gcc.h ****   __ASM volatile ("MRS %0, msp" : "=r" (result) );
 306:STM32_XPD/CMSIS/Include/cmsis_gcc.h ****   return(result);
 307:STM32_XPD/CMSIS/Include/cmsis_gcc.h **** }
 308:STM32_XPD/CMSIS/Include/cmsis_gcc.h **** 
 309:STM32_XPD/CMSIS/Include/cmsis_gcc.h **** 
 310:STM32_XPD/CMSIS/Include/cmsis_gcc.h **** #if (defined (__ARM_FEATURE_CMSE ) && (__ARM_FEATURE_CMSE == 3))
 311:STM32_XPD/CMSIS/Include/cmsis_gcc.h **** /**
 312:STM32_XPD/CMSIS/Include/cmsis_gcc.h ****   \brief   Get Main Stack Pointer (non-secure)
 313:STM32_XPD/CMSIS/Include/cmsis_gcc.h ****   \details Returns the current value of the non-secure Main Stack Pointer (MSP) when in secure stat
 314:STM32_XPD/CMSIS/Include/cmsis_gcc.h ****   \return               MSP Register value
 315:STM32_XPD/CMSIS/Include/cmsis_gcc.h ****  */
 316:STM32_XPD/CMSIS/Include/cmsis_gcc.h **** __STATIC_FORCEINLINE uint32_t __TZ_get_MSP_NS(void)
 317:STM32_XPD/CMSIS/Include/cmsis_gcc.h **** {
 318:STM32_XPD/CMSIS/Include/cmsis_gcc.h ****   uint32_t result;
 319:STM32_XPD/CMSIS/Include/cmsis_gcc.h **** 
 320:STM32_XPD/CMSIS/Include/cmsis_gcc.h ****   __ASM volatile ("MRS %0, msp_ns" : "=r" (result) );
 321:STM32_XPD/CMSIS/Include/cmsis_gcc.h ****   return(result);
 322:STM32_XPD/CMSIS/Include/cmsis_gcc.h **** }
 323:STM32_XPD/CMSIS/Include/cmsis_gcc.h **** #endif
 324:STM32_XPD/CMSIS/Include/cmsis_gcc.h **** 
 325:STM32_XPD/CMSIS/Include/cmsis_gcc.h **** 
 326:STM32_XPD/CMSIS/Include/cmsis_gcc.h **** /**
 327:STM32_XPD/CMSIS/Include/cmsis_gcc.h ****   \brief   Set Main Stack Pointer
 328:STM32_XPD/CMSIS/Include/cmsis_gcc.h ****   \details Assigns the given value to the Main Stack Pointer (MSP).
 329:STM32_XPD/CMSIS/Include/cmsis_gcc.h ****   \param [in]    topOfMainStack  Main Stack Pointer value to set
 330:STM32_XPD/CMSIS/Include/cmsis_gcc.h ****  */
 331:STM32_XPD/CMSIS/Include/cmsis_gcc.h **** __STATIC_FORCEINLINE void __set_MSP(uint32_t topOfMainStack)
 332:STM32_XPD/CMSIS/Include/cmsis_gcc.h **** {
 333:STM32_XPD/CMSIS/Include/cmsis_gcc.h ****   __ASM volatile ("MSR msp, %0" : : "r" (topOfMainStack) : );
 334:STM32_XPD/CMSIS/Include/cmsis_gcc.h **** }
 335:STM32_XPD/CMSIS/Include/cmsis_gcc.h **** 
 336:STM32_XPD/CMSIS/Include/cmsis_gcc.h **** 
 337:STM32_XPD/CMSIS/Include/cmsis_gcc.h **** #if (defined (__ARM_FEATURE_CMSE ) && (__ARM_FEATURE_CMSE == 3))
 338:STM32_XPD/CMSIS/Include/cmsis_gcc.h **** /**
 339:STM32_XPD/CMSIS/Include/cmsis_gcc.h ****   \brief   Set Main Stack Pointer (non-secure)
 340:STM32_XPD/CMSIS/Include/cmsis_gcc.h ****   \details Assigns the given value to the non-secure Main Stack Pointer (MSP) when in secure state.
 341:STM32_XPD/CMSIS/Include/cmsis_gcc.h ****   \param [in]    topOfMainStack  Main Stack Pointer value to set
 342:STM32_XPD/CMSIS/Include/cmsis_gcc.h ****  */
 343:STM32_XPD/CMSIS/Include/cmsis_gcc.h **** __STATIC_FORCEINLINE void __TZ_set_MSP_NS(uint32_t topOfMainStack)
 344:STM32_XPD/CMSIS/Include/cmsis_gcc.h **** {
 345:STM32_XPD/CMSIS/Include/cmsis_gcc.h ****   __ASM volatile ("MSR msp_ns, %0" : : "r" (topOfMainStack) : );
 346:STM32_XPD/CMSIS/Include/cmsis_gcc.h **** }
 347:STM32_XPD/CMSIS/Include/cmsis_gcc.h **** #endif
 348:STM32_XPD/CMSIS/Include/cmsis_gcc.h **** 
 349:STM32_XPD/CMSIS/Include/cmsis_gcc.h **** 
 350:STM32_XPD/CMSIS/Include/cmsis_gcc.h **** #if (defined (__ARM_FEATURE_CMSE ) && (__ARM_FEATURE_CMSE == 3))
 351:STM32_XPD/CMSIS/Include/cmsis_gcc.h **** /**
 352:STM32_XPD/CMSIS/Include/cmsis_gcc.h ****   \brief   Get Stack Pointer (non-secure)
 353:STM32_XPD/CMSIS/Include/cmsis_gcc.h ****   \details Returns the current value of the non-secure Stack Pointer (SP) when in secure state.
ARM GAS  /tmp/cctR0i1S.s 			page 29


 354:STM32_XPD/CMSIS/Include/cmsis_gcc.h ****   \return               SP Register value
 355:STM32_XPD/CMSIS/Include/cmsis_gcc.h ****  */
 356:STM32_XPD/CMSIS/Include/cmsis_gcc.h **** __STATIC_FORCEINLINE uint32_t __TZ_get_SP_NS(void)
 357:STM32_XPD/CMSIS/Include/cmsis_gcc.h **** {
 358:STM32_XPD/CMSIS/Include/cmsis_gcc.h ****   uint32_t result;
 359:STM32_XPD/CMSIS/Include/cmsis_gcc.h **** 
 360:STM32_XPD/CMSIS/Include/cmsis_gcc.h ****   __ASM volatile ("MRS %0, sp_ns" : "=r" (result) );
 361:STM32_XPD/CMSIS/Include/cmsis_gcc.h ****   return(result);
 362:STM32_XPD/CMSIS/Include/cmsis_gcc.h **** }
 363:STM32_XPD/CMSIS/Include/cmsis_gcc.h **** 
 364:STM32_XPD/CMSIS/Include/cmsis_gcc.h **** 
 365:STM32_XPD/CMSIS/Include/cmsis_gcc.h **** /**
 366:STM32_XPD/CMSIS/Include/cmsis_gcc.h ****   \brief   Set Stack Pointer (non-secure)
 367:STM32_XPD/CMSIS/Include/cmsis_gcc.h ****   \details Assigns the given value to the non-secure Stack Pointer (SP) when in secure state.
 368:STM32_XPD/CMSIS/Include/cmsis_gcc.h ****   \param [in]    topOfStack  Stack Pointer value to set
 369:STM32_XPD/CMSIS/Include/cmsis_gcc.h ****  */
 370:STM32_XPD/CMSIS/Include/cmsis_gcc.h **** __STATIC_FORCEINLINE void __TZ_set_SP_NS(uint32_t topOfStack)
 371:STM32_XPD/CMSIS/Include/cmsis_gcc.h **** {
 372:STM32_XPD/CMSIS/Include/cmsis_gcc.h ****   __ASM volatile ("MSR sp_ns, %0" : : "r" (topOfStack) : );
 373:STM32_XPD/CMSIS/Include/cmsis_gcc.h **** }
 374:STM32_XPD/CMSIS/Include/cmsis_gcc.h **** #endif
 375:STM32_XPD/CMSIS/Include/cmsis_gcc.h **** 
 376:STM32_XPD/CMSIS/Include/cmsis_gcc.h **** 
 377:STM32_XPD/CMSIS/Include/cmsis_gcc.h **** /**
 378:STM32_XPD/CMSIS/Include/cmsis_gcc.h ****   \brief   Get Priority Mask
 379:STM32_XPD/CMSIS/Include/cmsis_gcc.h ****   \details Returns the current state of the priority mask bit from the Priority Mask Register.
 380:STM32_XPD/CMSIS/Include/cmsis_gcc.h ****   \return               Priority Mask value
 381:STM32_XPD/CMSIS/Include/cmsis_gcc.h ****  */
 382:STM32_XPD/CMSIS/Include/cmsis_gcc.h **** __STATIC_FORCEINLINE uint32_t __get_PRIMASK(void)
 383:STM32_XPD/CMSIS/Include/cmsis_gcc.h **** {
 384:STM32_XPD/CMSIS/Include/cmsis_gcc.h ****   uint32_t result;
 385:STM32_XPD/CMSIS/Include/cmsis_gcc.h **** 
 386:STM32_XPD/CMSIS/Include/cmsis_gcc.h ****   __ASM volatile ("MRS %0, primask" : "=r" (result) :: "memory");
 387:STM32_XPD/CMSIS/Include/cmsis_gcc.h ****   return(result);
 388:STM32_XPD/CMSIS/Include/cmsis_gcc.h **** }
 389:STM32_XPD/CMSIS/Include/cmsis_gcc.h **** 
 390:STM32_XPD/CMSIS/Include/cmsis_gcc.h **** 
 391:STM32_XPD/CMSIS/Include/cmsis_gcc.h **** #if (defined (__ARM_FEATURE_CMSE ) && (__ARM_FEATURE_CMSE == 3))
 392:STM32_XPD/CMSIS/Include/cmsis_gcc.h **** /**
 393:STM32_XPD/CMSIS/Include/cmsis_gcc.h ****   \brief   Get Priority Mask (non-secure)
 394:STM32_XPD/CMSIS/Include/cmsis_gcc.h ****   \details Returns the current state of the non-secure priority mask bit from the Priority Mask Reg
 395:STM32_XPD/CMSIS/Include/cmsis_gcc.h ****   \return               Priority Mask value
 396:STM32_XPD/CMSIS/Include/cmsis_gcc.h ****  */
 397:STM32_XPD/CMSIS/Include/cmsis_gcc.h **** __STATIC_FORCEINLINE uint32_t __TZ_get_PRIMASK_NS(void)
 398:STM32_XPD/CMSIS/Include/cmsis_gcc.h **** {
 399:STM32_XPD/CMSIS/Include/cmsis_gcc.h ****   uint32_t result;
 400:STM32_XPD/CMSIS/Include/cmsis_gcc.h **** 
 401:STM32_XPD/CMSIS/Include/cmsis_gcc.h ****   __ASM volatile ("MRS %0, primask_ns" : "=r" (result) :: "memory");
 402:STM32_XPD/CMSIS/Include/cmsis_gcc.h ****   return(result);
 403:STM32_XPD/CMSIS/Include/cmsis_gcc.h **** }
 404:STM32_XPD/CMSIS/Include/cmsis_gcc.h **** #endif
 405:STM32_XPD/CMSIS/Include/cmsis_gcc.h **** 
 406:STM32_XPD/CMSIS/Include/cmsis_gcc.h **** 
 407:STM32_XPD/CMSIS/Include/cmsis_gcc.h **** /**
 408:STM32_XPD/CMSIS/Include/cmsis_gcc.h ****   \brief   Set Priority Mask
 409:STM32_XPD/CMSIS/Include/cmsis_gcc.h ****   \details Assigns the given value to the Priority Mask Register.
 410:STM32_XPD/CMSIS/Include/cmsis_gcc.h ****   \param [in]    priMask  Priority Mask
ARM GAS  /tmp/cctR0i1S.s 			page 30


 411:STM32_XPD/CMSIS/Include/cmsis_gcc.h ****  */
 412:STM32_XPD/CMSIS/Include/cmsis_gcc.h **** __STATIC_FORCEINLINE void __set_PRIMASK(uint32_t priMask)
 413:STM32_XPD/CMSIS/Include/cmsis_gcc.h **** {
 414:STM32_XPD/CMSIS/Include/cmsis_gcc.h ****   __ASM volatile ("MSR primask, %0" : : "r" (priMask) : "memory");
 415:STM32_XPD/CMSIS/Include/cmsis_gcc.h **** }
 416:STM32_XPD/CMSIS/Include/cmsis_gcc.h **** 
 417:STM32_XPD/CMSIS/Include/cmsis_gcc.h **** 
 418:STM32_XPD/CMSIS/Include/cmsis_gcc.h **** #if (defined (__ARM_FEATURE_CMSE ) && (__ARM_FEATURE_CMSE == 3))
 419:STM32_XPD/CMSIS/Include/cmsis_gcc.h **** /**
 420:STM32_XPD/CMSIS/Include/cmsis_gcc.h ****   \brief   Set Priority Mask (non-secure)
 421:STM32_XPD/CMSIS/Include/cmsis_gcc.h ****   \details Assigns the given value to the non-secure Priority Mask Register when in secure state.
 422:STM32_XPD/CMSIS/Include/cmsis_gcc.h ****   \param [in]    priMask  Priority Mask
 423:STM32_XPD/CMSIS/Include/cmsis_gcc.h ****  */
 424:STM32_XPD/CMSIS/Include/cmsis_gcc.h **** __STATIC_FORCEINLINE void __TZ_set_PRIMASK_NS(uint32_t priMask)
 425:STM32_XPD/CMSIS/Include/cmsis_gcc.h **** {
 426:STM32_XPD/CMSIS/Include/cmsis_gcc.h ****   __ASM volatile ("MSR primask_ns, %0" : : "r" (priMask) : "memory");
 427:STM32_XPD/CMSIS/Include/cmsis_gcc.h **** }
 428:STM32_XPD/CMSIS/Include/cmsis_gcc.h **** #endif
 429:STM32_XPD/CMSIS/Include/cmsis_gcc.h **** 
 430:STM32_XPD/CMSIS/Include/cmsis_gcc.h **** 
 431:STM32_XPD/CMSIS/Include/cmsis_gcc.h **** #if ((defined (__ARM_ARCH_7M__      ) && (__ARM_ARCH_7M__      == 1)) || \
 432:STM32_XPD/CMSIS/Include/cmsis_gcc.h ****      (defined (__ARM_ARCH_7EM__     ) && (__ARM_ARCH_7EM__     == 1)) || \
 433:STM32_XPD/CMSIS/Include/cmsis_gcc.h ****      (defined (__ARM_ARCH_8M_MAIN__ ) && (__ARM_ARCH_8M_MAIN__ == 1))    )
 434:STM32_XPD/CMSIS/Include/cmsis_gcc.h **** /**
 435:STM32_XPD/CMSIS/Include/cmsis_gcc.h ****   \brief   Enable FIQ
 436:STM32_XPD/CMSIS/Include/cmsis_gcc.h ****   \details Enables FIQ interrupts by clearing the F-bit in the CPSR.
 437:STM32_XPD/CMSIS/Include/cmsis_gcc.h ****            Can only be executed in Privileged modes.
 438:STM32_XPD/CMSIS/Include/cmsis_gcc.h ****  */
 439:STM32_XPD/CMSIS/Include/cmsis_gcc.h **** __STATIC_FORCEINLINE void __enable_fault_irq(void)
 440:STM32_XPD/CMSIS/Include/cmsis_gcc.h **** {
 441:STM32_XPD/CMSIS/Include/cmsis_gcc.h ****   __ASM volatile ("cpsie f" : : : "memory");
 442:STM32_XPD/CMSIS/Include/cmsis_gcc.h **** }
 443:STM32_XPD/CMSIS/Include/cmsis_gcc.h **** 
 444:STM32_XPD/CMSIS/Include/cmsis_gcc.h **** 
 445:STM32_XPD/CMSIS/Include/cmsis_gcc.h **** /**
 446:STM32_XPD/CMSIS/Include/cmsis_gcc.h ****   \brief   Disable FIQ
 447:STM32_XPD/CMSIS/Include/cmsis_gcc.h ****   \details Disables FIQ interrupts by setting the F-bit in the CPSR.
 448:STM32_XPD/CMSIS/Include/cmsis_gcc.h ****            Can only be executed in Privileged modes.
 449:STM32_XPD/CMSIS/Include/cmsis_gcc.h ****  */
 450:STM32_XPD/CMSIS/Include/cmsis_gcc.h **** __STATIC_FORCEINLINE void __disable_fault_irq(void)
 451:STM32_XPD/CMSIS/Include/cmsis_gcc.h **** {
 452:STM32_XPD/CMSIS/Include/cmsis_gcc.h ****   __ASM volatile ("cpsid f" : : : "memory");
 453:STM32_XPD/CMSIS/Include/cmsis_gcc.h **** }
 454:STM32_XPD/CMSIS/Include/cmsis_gcc.h **** 
 455:STM32_XPD/CMSIS/Include/cmsis_gcc.h **** 
 456:STM32_XPD/CMSIS/Include/cmsis_gcc.h **** /**
 457:STM32_XPD/CMSIS/Include/cmsis_gcc.h ****   \brief   Get Base Priority
 458:STM32_XPD/CMSIS/Include/cmsis_gcc.h ****   \details Returns the current value of the Base Priority register.
 459:STM32_XPD/CMSIS/Include/cmsis_gcc.h ****   \return               Base Priority register value
 460:STM32_XPD/CMSIS/Include/cmsis_gcc.h ****  */
 461:STM32_XPD/CMSIS/Include/cmsis_gcc.h **** __STATIC_FORCEINLINE uint32_t __get_BASEPRI(void)
 462:STM32_XPD/CMSIS/Include/cmsis_gcc.h **** {
 463:STM32_XPD/CMSIS/Include/cmsis_gcc.h ****   uint32_t result;
 464:STM32_XPD/CMSIS/Include/cmsis_gcc.h **** 
 465:STM32_XPD/CMSIS/Include/cmsis_gcc.h ****   __ASM volatile ("MRS %0, basepri" : "=r" (result) );
 466:STM32_XPD/CMSIS/Include/cmsis_gcc.h ****   return(result);
 467:STM32_XPD/CMSIS/Include/cmsis_gcc.h **** }
ARM GAS  /tmp/cctR0i1S.s 			page 31


 468:STM32_XPD/CMSIS/Include/cmsis_gcc.h **** 
 469:STM32_XPD/CMSIS/Include/cmsis_gcc.h **** 
 470:STM32_XPD/CMSIS/Include/cmsis_gcc.h **** #if (defined (__ARM_FEATURE_CMSE ) && (__ARM_FEATURE_CMSE == 3))
 471:STM32_XPD/CMSIS/Include/cmsis_gcc.h **** /**
 472:STM32_XPD/CMSIS/Include/cmsis_gcc.h ****   \brief   Get Base Priority (non-secure)
 473:STM32_XPD/CMSIS/Include/cmsis_gcc.h ****   \details Returns the current value of the non-secure Base Priority register when in secure state.
 474:STM32_XPD/CMSIS/Include/cmsis_gcc.h ****   \return               Base Priority register value
 475:STM32_XPD/CMSIS/Include/cmsis_gcc.h ****  */
 476:STM32_XPD/CMSIS/Include/cmsis_gcc.h **** __STATIC_FORCEINLINE uint32_t __TZ_get_BASEPRI_NS(void)
 477:STM32_XPD/CMSIS/Include/cmsis_gcc.h **** {
 478:STM32_XPD/CMSIS/Include/cmsis_gcc.h ****   uint32_t result;
 479:STM32_XPD/CMSIS/Include/cmsis_gcc.h **** 
 480:STM32_XPD/CMSIS/Include/cmsis_gcc.h ****   __ASM volatile ("MRS %0, basepri_ns" : "=r" (result) );
 481:STM32_XPD/CMSIS/Include/cmsis_gcc.h ****   return(result);
 482:STM32_XPD/CMSIS/Include/cmsis_gcc.h **** }
 483:STM32_XPD/CMSIS/Include/cmsis_gcc.h **** #endif
 484:STM32_XPD/CMSIS/Include/cmsis_gcc.h **** 
 485:STM32_XPD/CMSIS/Include/cmsis_gcc.h **** 
 486:STM32_XPD/CMSIS/Include/cmsis_gcc.h **** /**
 487:STM32_XPD/CMSIS/Include/cmsis_gcc.h ****   \brief   Set Base Priority
 488:STM32_XPD/CMSIS/Include/cmsis_gcc.h ****   \details Assigns the given value to the Base Priority register.
 489:STM32_XPD/CMSIS/Include/cmsis_gcc.h ****   \param [in]    basePri  Base Priority value to set
 490:STM32_XPD/CMSIS/Include/cmsis_gcc.h ****  */
 491:STM32_XPD/CMSIS/Include/cmsis_gcc.h **** __STATIC_FORCEINLINE void __set_BASEPRI(uint32_t basePri)
 492:STM32_XPD/CMSIS/Include/cmsis_gcc.h **** {
 493:STM32_XPD/CMSIS/Include/cmsis_gcc.h ****   __ASM volatile ("MSR basepri, %0" : : "r" (basePri) : "memory");
 494:STM32_XPD/CMSIS/Include/cmsis_gcc.h **** }
 495:STM32_XPD/CMSIS/Include/cmsis_gcc.h **** 
 496:STM32_XPD/CMSIS/Include/cmsis_gcc.h **** 
 497:STM32_XPD/CMSIS/Include/cmsis_gcc.h **** #if (defined (__ARM_FEATURE_CMSE ) && (__ARM_FEATURE_CMSE == 3))
 498:STM32_XPD/CMSIS/Include/cmsis_gcc.h **** /**
 499:STM32_XPD/CMSIS/Include/cmsis_gcc.h ****   \brief   Set Base Priority (non-secure)
 500:STM32_XPD/CMSIS/Include/cmsis_gcc.h ****   \details Assigns the given value to the non-secure Base Priority register when in secure state.
 501:STM32_XPD/CMSIS/Include/cmsis_gcc.h ****   \param [in]    basePri  Base Priority value to set
 502:STM32_XPD/CMSIS/Include/cmsis_gcc.h ****  */
 503:STM32_XPD/CMSIS/Include/cmsis_gcc.h **** __STATIC_FORCEINLINE void __TZ_set_BASEPRI_NS(uint32_t basePri)
 504:STM32_XPD/CMSIS/Include/cmsis_gcc.h **** {
 505:STM32_XPD/CMSIS/Include/cmsis_gcc.h ****   __ASM volatile ("MSR basepri_ns, %0" : : "r" (basePri) : "memory");
 506:STM32_XPD/CMSIS/Include/cmsis_gcc.h **** }
 507:STM32_XPD/CMSIS/Include/cmsis_gcc.h **** #endif
 508:STM32_XPD/CMSIS/Include/cmsis_gcc.h **** 
 509:STM32_XPD/CMSIS/Include/cmsis_gcc.h **** 
 510:STM32_XPD/CMSIS/Include/cmsis_gcc.h **** /**
 511:STM32_XPD/CMSIS/Include/cmsis_gcc.h ****   \brief   Set Base Priority with condition
 512:STM32_XPD/CMSIS/Include/cmsis_gcc.h ****   \details Assigns the given value to the Base Priority register only if BASEPRI masking is disable
 513:STM32_XPD/CMSIS/Include/cmsis_gcc.h ****            or the new value increases the BASEPRI priority level.
 514:STM32_XPD/CMSIS/Include/cmsis_gcc.h ****   \param [in]    basePri  Base Priority value to set
 515:STM32_XPD/CMSIS/Include/cmsis_gcc.h ****  */
 516:STM32_XPD/CMSIS/Include/cmsis_gcc.h **** __STATIC_FORCEINLINE void __set_BASEPRI_MAX(uint32_t basePri)
 517:STM32_XPD/CMSIS/Include/cmsis_gcc.h **** {
 518:STM32_XPD/CMSIS/Include/cmsis_gcc.h ****   __ASM volatile ("MSR basepri_max, %0" : : "r" (basePri) : "memory");
 519:STM32_XPD/CMSIS/Include/cmsis_gcc.h **** }
 520:STM32_XPD/CMSIS/Include/cmsis_gcc.h **** 
 521:STM32_XPD/CMSIS/Include/cmsis_gcc.h **** 
 522:STM32_XPD/CMSIS/Include/cmsis_gcc.h **** /**
 523:STM32_XPD/CMSIS/Include/cmsis_gcc.h ****   \brief   Get Fault Mask
 524:STM32_XPD/CMSIS/Include/cmsis_gcc.h ****   \details Returns the current value of the Fault Mask register.
ARM GAS  /tmp/cctR0i1S.s 			page 32


 525:STM32_XPD/CMSIS/Include/cmsis_gcc.h ****   \return               Fault Mask register value
 526:STM32_XPD/CMSIS/Include/cmsis_gcc.h ****  */
 527:STM32_XPD/CMSIS/Include/cmsis_gcc.h **** __STATIC_FORCEINLINE uint32_t __get_FAULTMASK(void)
 528:STM32_XPD/CMSIS/Include/cmsis_gcc.h **** {
 529:STM32_XPD/CMSIS/Include/cmsis_gcc.h ****   uint32_t result;
 530:STM32_XPD/CMSIS/Include/cmsis_gcc.h **** 
 531:STM32_XPD/CMSIS/Include/cmsis_gcc.h ****   __ASM volatile ("MRS %0, faultmask" : "=r" (result) );
 532:STM32_XPD/CMSIS/Include/cmsis_gcc.h ****   return(result);
 533:STM32_XPD/CMSIS/Include/cmsis_gcc.h **** }
 534:STM32_XPD/CMSIS/Include/cmsis_gcc.h **** 
 535:STM32_XPD/CMSIS/Include/cmsis_gcc.h **** 
 536:STM32_XPD/CMSIS/Include/cmsis_gcc.h **** #if (defined (__ARM_FEATURE_CMSE ) && (__ARM_FEATURE_CMSE == 3))
 537:STM32_XPD/CMSIS/Include/cmsis_gcc.h **** /**
 538:STM32_XPD/CMSIS/Include/cmsis_gcc.h ****   \brief   Get Fault Mask (non-secure)
 539:STM32_XPD/CMSIS/Include/cmsis_gcc.h ****   \details Returns the current value of the non-secure Fault Mask register when in secure state.
 540:STM32_XPD/CMSIS/Include/cmsis_gcc.h ****   \return               Fault Mask register value
 541:STM32_XPD/CMSIS/Include/cmsis_gcc.h ****  */
 542:STM32_XPD/CMSIS/Include/cmsis_gcc.h **** __STATIC_FORCEINLINE uint32_t __TZ_get_FAULTMASK_NS(void)
 543:STM32_XPD/CMSIS/Include/cmsis_gcc.h **** {
 544:STM32_XPD/CMSIS/Include/cmsis_gcc.h ****   uint32_t result;
 545:STM32_XPD/CMSIS/Include/cmsis_gcc.h **** 
 546:STM32_XPD/CMSIS/Include/cmsis_gcc.h ****   __ASM volatile ("MRS %0, faultmask_ns" : "=r" (result) );
 547:STM32_XPD/CMSIS/Include/cmsis_gcc.h ****   return(result);
 548:STM32_XPD/CMSIS/Include/cmsis_gcc.h **** }
 549:STM32_XPD/CMSIS/Include/cmsis_gcc.h **** #endif
 550:STM32_XPD/CMSIS/Include/cmsis_gcc.h **** 
 551:STM32_XPD/CMSIS/Include/cmsis_gcc.h **** 
 552:STM32_XPD/CMSIS/Include/cmsis_gcc.h **** /**
 553:STM32_XPD/CMSIS/Include/cmsis_gcc.h ****   \brief   Set Fault Mask
 554:STM32_XPD/CMSIS/Include/cmsis_gcc.h ****   \details Assigns the given value to the Fault Mask register.
 555:STM32_XPD/CMSIS/Include/cmsis_gcc.h ****   \param [in]    faultMask  Fault Mask value to set
 556:STM32_XPD/CMSIS/Include/cmsis_gcc.h ****  */
 557:STM32_XPD/CMSIS/Include/cmsis_gcc.h **** __STATIC_FORCEINLINE void __set_FAULTMASK(uint32_t faultMask)
 558:STM32_XPD/CMSIS/Include/cmsis_gcc.h **** {
 559:STM32_XPD/CMSIS/Include/cmsis_gcc.h ****   __ASM volatile ("MSR faultmask, %0" : : "r" (faultMask) : "memory");
 560:STM32_XPD/CMSIS/Include/cmsis_gcc.h **** }
 561:STM32_XPD/CMSIS/Include/cmsis_gcc.h **** 
 562:STM32_XPD/CMSIS/Include/cmsis_gcc.h **** 
 563:STM32_XPD/CMSIS/Include/cmsis_gcc.h **** #if (defined (__ARM_FEATURE_CMSE ) && (__ARM_FEATURE_CMSE == 3))
 564:STM32_XPD/CMSIS/Include/cmsis_gcc.h **** /**
 565:STM32_XPD/CMSIS/Include/cmsis_gcc.h ****   \brief   Set Fault Mask (non-secure)
 566:STM32_XPD/CMSIS/Include/cmsis_gcc.h ****   \details Assigns the given value to the non-secure Fault Mask register when in secure state.
 567:STM32_XPD/CMSIS/Include/cmsis_gcc.h ****   \param [in]    faultMask  Fault Mask value to set
 568:STM32_XPD/CMSIS/Include/cmsis_gcc.h ****  */
 569:STM32_XPD/CMSIS/Include/cmsis_gcc.h **** __STATIC_FORCEINLINE void __TZ_set_FAULTMASK_NS(uint32_t faultMask)
 570:STM32_XPD/CMSIS/Include/cmsis_gcc.h **** {
 571:STM32_XPD/CMSIS/Include/cmsis_gcc.h ****   __ASM volatile ("MSR faultmask_ns, %0" : : "r" (faultMask) : "memory");
 572:STM32_XPD/CMSIS/Include/cmsis_gcc.h **** }
 573:STM32_XPD/CMSIS/Include/cmsis_gcc.h **** #endif
 574:STM32_XPD/CMSIS/Include/cmsis_gcc.h **** 
 575:STM32_XPD/CMSIS/Include/cmsis_gcc.h **** #endif /* ((defined (__ARM_ARCH_7M__      ) && (__ARM_ARCH_7M__      == 1)) || \
 576:STM32_XPD/CMSIS/Include/cmsis_gcc.h ****            (defined (__ARM_ARCH_7EM__     ) && (__ARM_ARCH_7EM__     == 1)) || \
 577:STM32_XPD/CMSIS/Include/cmsis_gcc.h ****            (defined (__ARM_ARCH_8M_MAIN__ ) && (__ARM_ARCH_8M_MAIN__ == 1))    ) */
 578:STM32_XPD/CMSIS/Include/cmsis_gcc.h **** 
 579:STM32_XPD/CMSIS/Include/cmsis_gcc.h **** 
 580:STM32_XPD/CMSIS/Include/cmsis_gcc.h **** #if ((defined (__ARM_ARCH_8M_MAIN__ ) && (__ARM_ARCH_8M_MAIN__ == 1)) || \
 581:STM32_XPD/CMSIS/Include/cmsis_gcc.h ****      (defined (__ARM_ARCH_8M_BASE__ ) && (__ARM_ARCH_8M_BASE__ == 1))    )
ARM GAS  /tmp/cctR0i1S.s 			page 33


 582:STM32_XPD/CMSIS/Include/cmsis_gcc.h **** 
 583:STM32_XPD/CMSIS/Include/cmsis_gcc.h **** /**
 584:STM32_XPD/CMSIS/Include/cmsis_gcc.h ****   \brief   Get Process Stack Pointer Limit
 585:STM32_XPD/CMSIS/Include/cmsis_gcc.h ****   Devices without ARMv8-M Main Extensions (i.e. Cortex-M23) lack the non-secure
 586:STM32_XPD/CMSIS/Include/cmsis_gcc.h ****   Stack Pointer Limit register hence zero is returned always in non-secure
 587:STM32_XPD/CMSIS/Include/cmsis_gcc.h ****   mode.
 588:STM32_XPD/CMSIS/Include/cmsis_gcc.h ****   
 589:STM32_XPD/CMSIS/Include/cmsis_gcc.h ****   \details Returns the current value of the Process Stack Pointer Limit (PSPLIM).
 590:STM32_XPD/CMSIS/Include/cmsis_gcc.h ****   \return               PSPLIM Register value
 591:STM32_XPD/CMSIS/Include/cmsis_gcc.h ****  */
 592:STM32_XPD/CMSIS/Include/cmsis_gcc.h **** __STATIC_FORCEINLINE uint32_t __get_PSPLIM(void)
 593:STM32_XPD/CMSIS/Include/cmsis_gcc.h **** {
 594:STM32_XPD/CMSIS/Include/cmsis_gcc.h **** #if (!(defined (__ARM_ARCH_8M_MAIN__ ) && (__ARM_ARCH_8M_MAIN__ == 1)) && \
 595:STM32_XPD/CMSIS/Include/cmsis_gcc.h ****     (!defined (__ARM_FEATURE_CMSE) || (__ARM_FEATURE_CMSE < 3)))
 596:STM32_XPD/CMSIS/Include/cmsis_gcc.h ****     // without main extensions, the non-secure PSPLIM is RAZ/WI
 597:STM32_XPD/CMSIS/Include/cmsis_gcc.h ****   return 0U;
 598:STM32_XPD/CMSIS/Include/cmsis_gcc.h **** #else
 599:STM32_XPD/CMSIS/Include/cmsis_gcc.h ****   uint32_t result;
 600:STM32_XPD/CMSIS/Include/cmsis_gcc.h ****   __ASM volatile ("MRS %0, psplim"  : "=r" (result) );
 601:STM32_XPD/CMSIS/Include/cmsis_gcc.h ****   return result;
 602:STM32_XPD/CMSIS/Include/cmsis_gcc.h **** #endif
 603:STM32_XPD/CMSIS/Include/cmsis_gcc.h **** }
 604:STM32_XPD/CMSIS/Include/cmsis_gcc.h **** 
 605:STM32_XPD/CMSIS/Include/cmsis_gcc.h **** #if (defined (__ARM_FEATURE_CMSE) && (__ARM_FEATURE_CMSE == 3))
 606:STM32_XPD/CMSIS/Include/cmsis_gcc.h **** /**
 607:STM32_XPD/CMSIS/Include/cmsis_gcc.h ****   \brief   Get Process Stack Pointer Limit (non-secure)
 608:STM32_XPD/CMSIS/Include/cmsis_gcc.h ****   Devices without ARMv8-M Main Extensions (i.e. Cortex-M23) lack the non-secure
 609:STM32_XPD/CMSIS/Include/cmsis_gcc.h ****   Stack Pointer Limit register hence zero is returned always.
 610:STM32_XPD/CMSIS/Include/cmsis_gcc.h **** 
 611:STM32_XPD/CMSIS/Include/cmsis_gcc.h ****   \details Returns the current value of the non-secure Process Stack Pointer Limit (PSPLIM) when in
 612:STM32_XPD/CMSIS/Include/cmsis_gcc.h ****   \return               PSPLIM Register value
 613:STM32_XPD/CMSIS/Include/cmsis_gcc.h ****  */
 614:STM32_XPD/CMSIS/Include/cmsis_gcc.h **** __STATIC_FORCEINLINE uint32_t __TZ_get_PSPLIM_NS(void)
 615:STM32_XPD/CMSIS/Include/cmsis_gcc.h **** {
 616:STM32_XPD/CMSIS/Include/cmsis_gcc.h **** #if (!(defined (__ARM_ARCH_8M_MAIN__ ) && (__ARM_ARCH_8M_MAIN__ == 1)))
 617:STM32_XPD/CMSIS/Include/cmsis_gcc.h ****   // without main extensions, the non-secure PSPLIM is RAZ/WI
 618:STM32_XPD/CMSIS/Include/cmsis_gcc.h ****   return 0U;
 619:STM32_XPD/CMSIS/Include/cmsis_gcc.h **** #else
 620:STM32_XPD/CMSIS/Include/cmsis_gcc.h ****   uint32_t result;
 621:STM32_XPD/CMSIS/Include/cmsis_gcc.h ****   __ASM volatile ("MRS %0, psplim_ns"  : "=r" (result) );
 622:STM32_XPD/CMSIS/Include/cmsis_gcc.h ****   return result;
 623:STM32_XPD/CMSIS/Include/cmsis_gcc.h **** #endif
 624:STM32_XPD/CMSIS/Include/cmsis_gcc.h **** }
 625:STM32_XPD/CMSIS/Include/cmsis_gcc.h **** #endif
 626:STM32_XPD/CMSIS/Include/cmsis_gcc.h **** 
 627:STM32_XPD/CMSIS/Include/cmsis_gcc.h **** 
 628:STM32_XPD/CMSIS/Include/cmsis_gcc.h **** /**
 629:STM32_XPD/CMSIS/Include/cmsis_gcc.h ****   \brief   Set Process Stack Pointer Limit
 630:STM32_XPD/CMSIS/Include/cmsis_gcc.h ****   Devices without ARMv8-M Main Extensions (i.e. Cortex-M23) lack the non-secure
 631:STM32_XPD/CMSIS/Include/cmsis_gcc.h ****   Stack Pointer Limit register hence the write is silently ignored in non-secure
 632:STM32_XPD/CMSIS/Include/cmsis_gcc.h ****   mode.
 633:STM32_XPD/CMSIS/Include/cmsis_gcc.h ****   
 634:STM32_XPD/CMSIS/Include/cmsis_gcc.h ****   \details Assigns the given value to the Process Stack Pointer Limit (PSPLIM).
 635:STM32_XPD/CMSIS/Include/cmsis_gcc.h ****   \param [in]    ProcStackPtrLimit  Process Stack Pointer Limit value to set
 636:STM32_XPD/CMSIS/Include/cmsis_gcc.h ****  */
 637:STM32_XPD/CMSIS/Include/cmsis_gcc.h **** __STATIC_FORCEINLINE void __set_PSPLIM(uint32_t ProcStackPtrLimit)
 638:STM32_XPD/CMSIS/Include/cmsis_gcc.h **** {
ARM GAS  /tmp/cctR0i1S.s 			page 34


 639:STM32_XPD/CMSIS/Include/cmsis_gcc.h **** #if (!(defined (__ARM_ARCH_8M_MAIN__ ) && (__ARM_ARCH_8M_MAIN__ == 1)) && \
 640:STM32_XPD/CMSIS/Include/cmsis_gcc.h ****     (!defined (__ARM_FEATURE_CMSE) || (__ARM_FEATURE_CMSE < 3)))
 641:STM32_XPD/CMSIS/Include/cmsis_gcc.h ****   // without main extensions, the non-secure PSPLIM is RAZ/WI
 642:STM32_XPD/CMSIS/Include/cmsis_gcc.h ****   (void)ProcStackPtrLimit;
 643:STM32_XPD/CMSIS/Include/cmsis_gcc.h **** #else
 644:STM32_XPD/CMSIS/Include/cmsis_gcc.h ****   __ASM volatile ("MSR psplim, %0" : : "r" (ProcStackPtrLimit));
 645:STM32_XPD/CMSIS/Include/cmsis_gcc.h **** #endif
 646:STM32_XPD/CMSIS/Include/cmsis_gcc.h **** }
 647:STM32_XPD/CMSIS/Include/cmsis_gcc.h **** 
 648:STM32_XPD/CMSIS/Include/cmsis_gcc.h **** 
 649:STM32_XPD/CMSIS/Include/cmsis_gcc.h **** #if (defined (__ARM_FEATURE_CMSE  ) && (__ARM_FEATURE_CMSE   == 3))
 650:STM32_XPD/CMSIS/Include/cmsis_gcc.h **** /**
 651:STM32_XPD/CMSIS/Include/cmsis_gcc.h ****   \brief   Set Process Stack Pointer (non-secure)
 652:STM32_XPD/CMSIS/Include/cmsis_gcc.h ****   Devices without ARMv8-M Main Extensions (i.e. Cortex-M23) lack the non-secure
 653:STM32_XPD/CMSIS/Include/cmsis_gcc.h ****   Stack Pointer Limit register hence the write is silently ignored.
 654:STM32_XPD/CMSIS/Include/cmsis_gcc.h **** 
 655:STM32_XPD/CMSIS/Include/cmsis_gcc.h ****   \details Assigns the given value to the non-secure Process Stack Pointer Limit (PSPLIM) when in s
 656:STM32_XPD/CMSIS/Include/cmsis_gcc.h ****   \param [in]    ProcStackPtrLimit  Process Stack Pointer Limit value to set
 657:STM32_XPD/CMSIS/Include/cmsis_gcc.h ****  */
 658:STM32_XPD/CMSIS/Include/cmsis_gcc.h **** __STATIC_FORCEINLINE void __TZ_set_PSPLIM_NS(uint32_t ProcStackPtrLimit)
 659:STM32_XPD/CMSIS/Include/cmsis_gcc.h **** {
 660:STM32_XPD/CMSIS/Include/cmsis_gcc.h **** #if (!(defined (__ARM_ARCH_8M_MAIN__ ) && (__ARM_ARCH_8M_MAIN__ == 1)))
 661:STM32_XPD/CMSIS/Include/cmsis_gcc.h ****   // without main extensions, the non-secure PSPLIM is RAZ/WI
 662:STM32_XPD/CMSIS/Include/cmsis_gcc.h ****   (void)ProcStackPtrLimit;
 663:STM32_XPD/CMSIS/Include/cmsis_gcc.h **** #else
 664:STM32_XPD/CMSIS/Include/cmsis_gcc.h ****   __ASM volatile ("MSR psplim_ns, %0\n" : : "r" (ProcStackPtrLimit));
 665:STM32_XPD/CMSIS/Include/cmsis_gcc.h **** #endif
 666:STM32_XPD/CMSIS/Include/cmsis_gcc.h **** }
 667:STM32_XPD/CMSIS/Include/cmsis_gcc.h **** #endif
 668:STM32_XPD/CMSIS/Include/cmsis_gcc.h **** 
 669:STM32_XPD/CMSIS/Include/cmsis_gcc.h **** 
 670:STM32_XPD/CMSIS/Include/cmsis_gcc.h **** /**
 671:STM32_XPD/CMSIS/Include/cmsis_gcc.h ****   \brief   Get Main Stack Pointer Limit
 672:STM32_XPD/CMSIS/Include/cmsis_gcc.h ****   Devices without ARMv8-M Main Extensions (i.e. Cortex-M23) lack the non-secure
 673:STM32_XPD/CMSIS/Include/cmsis_gcc.h ****   Stack Pointer Limit register hence zero is returned always in non-secure
 674:STM32_XPD/CMSIS/Include/cmsis_gcc.h ****   mode.
 675:STM32_XPD/CMSIS/Include/cmsis_gcc.h **** 
 676:STM32_XPD/CMSIS/Include/cmsis_gcc.h ****   \details Returns the current value of the Main Stack Pointer Limit (MSPLIM).
 677:STM32_XPD/CMSIS/Include/cmsis_gcc.h ****   \return               MSPLIM Register value
 678:STM32_XPD/CMSIS/Include/cmsis_gcc.h ****  */
 679:STM32_XPD/CMSIS/Include/cmsis_gcc.h **** __STATIC_FORCEINLINE uint32_t __get_MSPLIM(void)
 680:STM32_XPD/CMSIS/Include/cmsis_gcc.h **** {
 681:STM32_XPD/CMSIS/Include/cmsis_gcc.h **** #if (!(defined (__ARM_ARCH_8M_MAIN__ ) && (__ARM_ARCH_8M_MAIN__ == 1)) && \
 682:STM32_XPD/CMSIS/Include/cmsis_gcc.h ****     (!defined (__ARM_FEATURE_CMSE) || (__ARM_FEATURE_CMSE < 3)))
 683:STM32_XPD/CMSIS/Include/cmsis_gcc.h ****   // without main extensions, the non-secure MSPLIM is RAZ/WI
 684:STM32_XPD/CMSIS/Include/cmsis_gcc.h ****   return 0U;
 685:STM32_XPD/CMSIS/Include/cmsis_gcc.h **** #else
 686:STM32_XPD/CMSIS/Include/cmsis_gcc.h ****   uint32_t result;
 687:STM32_XPD/CMSIS/Include/cmsis_gcc.h ****   __ASM volatile ("MRS %0, msplim" : "=r" (result) );
 688:STM32_XPD/CMSIS/Include/cmsis_gcc.h ****   return result;
 689:STM32_XPD/CMSIS/Include/cmsis_gcc.h **** #endif
 690:STM32_XPD/CMSIS/Include/cmsis_gcc.h **** }
 691:STM32_XPD/CMSIS/Include/cmsis_gcc.h **** 
 692:STM32_XPD/CMSIS/Include/cmsis_gcc.h **** 
 693:STM32_XPD/CMSIS/Include/cmsis_gcc.h **** #if (defined (__ARM_FEATURE_CMSE  ) && (__ARM_FEATURE_CMSE   == 3))
 694:STM32_XPD/CMSIS/Include/cmsis_gcc.h **** /**
 695:STM32_XPD/CMSIS/Include/cmsis_gcc.h ****   \brief   Get Main Stack Pointer Limit (non-secure)
ARM GAS  /tmp/cctR0i1S.s 			page 35


 696:STM32_XPD/CMSIS/Include/cmsis_gcc.h ****   Devices without ARMv8-M Main Extensions (i.e. Cortex-M23) lack the non-secure
 697:STM32_XPD/CMSIS/Include/cmsis_gcc.h ****   Stack Pointer Limit register hence zero is returned always.
 698:STM32_XPD/CMSIS/Include/cmsis_gcc.h **** 
 699:STM32_XPD/CMSIS/Include/cmsis_gcc.h ****   \details Returns the current value of the non-secure Main Stack Pointer Limit(MSPLIM) when in sec
 700:STM32_XPD/CMSIS/Include/cmsis_gcc.h ****   \return               MSPLIM Register value
 701:STM32_XPD/CMSIS/Include/cmsis_gcc.h ****  */
 702:STM32_XPD/CMSIS/Include/cmsis_gcc.h **** __STATIC_FORCEINLINE uint32_t __TZ_get_MSPLIM_NS(void)
 703:STM32_XPD/CMSIS/Include/cmsis_gcc.h **** {
 704:STM32_XPD/CMSIS/Include/cmsis_gcc.h **** #if (!(defined (__ARM_ARCH_8M_MAIN__ ) && (__ARM_ARCH_8M_MAIN__ == 1)))
 705:STM32_XPD/CMSIS/Include/cmsis_gcc.h ****   // without main extensions, the non-secure MSPLIM is RAZ/WI
 706:STM32_XPD/CMSIS/Include/cmsis_gcc.h ****   return 0U;
 707:STM32_XPD/CMSIS/Include/cmsis_gcc.h **** #else
 708:STM32_XPD/CMSIS/Include/cmsis_gcc.h ****   uint32_t result;
 709:STM32_XPD/CMSIS/Include/cmsis_gcc.h ****   __ASM volatile ("MRS %0, msplim_ns" : "=r" (result) );
 710:STM32_XPD/CMSIS/Include/cmsis_gcc.h ****   return result;
 711:STM32_XPD/CMSIS/Include/cmsis_gcc.h **** #endif
 712:STM32_XPD/CMSIS/Include/cmsis_gcc.h **** }
 713:STM32_XPD/CMSIS/Include/cmsis_gcc.h **** #endif
 714:STM32_XPD/CMSIS/Include/cmsis_gcc.h **** 
 715:STM32_XPD/CMSIS/Include/cmsis_gcc.h **** 
 716:STM32_XPD/CMSIS/Include/cmsis_gcc.h **** /**
 717:STM32_XPD/CMSIS/Include/cmsis_gcc.h ****   \brief   Set Main Stack Pointer Limit
 718:STM32_XPD/CMSIS/Include/cmsis_gcc.h ****   Devices without ARMv8-M Main Extensions (i.e. Cortex-M23) lack the non-secure
 719:STM32_XPD/CMSIS/Include/cmsis_gcc.h ****   Stack Pointer Limit register hence the write is silently ignored in non-secure
 720:STM32_XPD/CMSIS/Include/cmsis_gcc.h ****   mode.
 721:STM32_XPD/CMSIS/Include/cmsis_gcc.h **** 
 722:STM32_XPD/CMSIS/Include/cmsis_gcc.h ****   \details Assigns the given value to the Main Stack Pointer Limit (MSPLIM).
 723:STM32_XPD/CMSIS/Include/cmsis_gcc.h ****   \param [in]    MainStackPtrLimit  Main Stack Pointer Limit value to set
 724:STM32_XPD/CMSIS/Include/cmsis_gcc.h ****  */
 725:STM32_XPD/CMSIS/Include/cmsis_gcc.h **** __STATIC_FORCEINLINE void __set_MSPLIM(uint32_t MainStackPtrLimit)
 726:STM32_XPD/CMSIS/Include/cmsis_gcc.h **** {
 727:STM32_XPD/CMSIS/Include/cmsis_gcc.h **** #if (!(defined (__ARM_ARCH_8M_MAIN__ ) && (__ARM_ARCH_8M_MAIN__ == 1)) && \
 728:STM32_XPD/CMSIS/Include/cmsis_gcc.h ****     (!defined (__ARM_FEATURE_CMSE) || (__ARM_FEATURE_CMSE < 3)))
 729:STM32_XPD/CMSIS/Include/cmsis_gcc.h ****   // without main extensions, the non-secure MSPLIM is RAZ/WI
 730:STM32_XPD/CMSIS/Include/cmsis_gcc.h ****   (void)MainStackPtrLimit;
 731:STM32_XPD/CMSIS/Include/cmsis_gcc.h **** #else
 732:STM32_XPD/CMSIS/Include/cmsis_gcc.h ****   __ASM volatile ("MSR msplim, %0" : : "r" (MainStackPtrLimit));
 733:STM32_XPD/CMSIS/Include/cmsis_gcc.h **** #endif
 734:STM32_XPD/CMSIS/Include/cmsis_gcc.h **** }
 735:STM32_XPD/CMSIS/Include/cmsis_gcc.h **** 
 736:STM32_XPD/CMSIS/Include/cmsis_gcc.h **** 
 737:STM32_XPD/CMSIS/Include/cmsis_gcc.h **** #if (defined (__ARM_FEATURE_CMSE  ) && (__ARM_FEATURE_CMSE   == 3))
 738:STM32_XPD/CMSIS/Include/cmsis_gcc.h **** /**
 739:STM32_XPD/CMSIS/Include/cmsis_gcc.h ****   \brief   Set Main Stack Pointer Limit (non-secure)
 740:STM32_XPD/CMSIS/Include/cmsis_gcc.h ****   Devices without ARMv8-M Main Extensions (i.e. Cortex-M23) lack the non-secure
 741:STM32_XPD/CMSIS/Include/cmsis_gcc.h ****   Stack Pointer Limit register hence the write is silently ignored.
 742:STM32_XPD/CMSIS/Include/cmsis_gcc.h **** 
 743:STM32_XPD/CMSIS/Include/cmsis_gcc.h ****   \details Assigns the given value to the non-secure Main Stack Pointer Limit (MSPLIM) when in secu
 744:STM32_XPD/CMSIS/Include/cmsis_gcc.h ****   \param [in]    MainStackPtrLimit  Main Stack Pointer value to set
 745:STM32_XPD/CMSIS/Include/cmsis_gcc.h ****  */
 746:STM32_XPD/CMSIS/Include/cmsis_gcc.h **** __STATIC_FORCEINLINE void __TZ_set_MSPLIM_NS(uint32_t MainStackPtrLimit)
 747:STM32_XPD/CMSIS/Include/cmsis_gcc.h **** {
 748:STM32_XPD/CMSIS/Include/cmsis_gcc.h **** #if (!(defined (__ARM_ARCH_8M_MAIN__ ) && (__ARM_ARCH_8M_MAIN__ == 1)))
 749:STM32_XPD/CMSIS/Include/cmsis_gcc.h ****   // without main extensions, the non-secure MSPLIM is RAZ/WI
 750:STM32_XPD/CMSIS/Include/cmsis_gcc.h ****   (void)MainStackPtrLimit;
 751:STM32_XPD/CMSIS/Include/cmsis_gcc.h **** #else
 752:STM32_XPD/CMSIS/Include/cmsis_gcc.h ****   __ASM volatile ("MSR msplim_ns, %0" : : "r" (MainStackPtrLimit));
ARM GAS  /tmp/cctR0i1S.s 			page 36


 753:STM32_XPD/CMSIS/Include/cmsis_gcc.h **** #endif
 754:STM32_XPD/CMSIS/Include/cmsis_gcc.h **** }
 755:STM32_XPD/CMSIS/Include/cmsis_gcc.h **** #endif
 756:STM32_XPD/CMSIS/Include/cmsis_gcc.h **** 
 757:STM32_XPD/CMSIS/Include/cmsis_gcc.h **** #endif /* ((defined (__ARM_ARCH_8M_MAIN__ ) && (__ARM_ARCH_8M_MAIN__ == 1)) || \
 758:STM32_XPD/CMSIS/Include/cmsis_gcc.h ****            (defined (__ARM_ARCH_8M_BASE__ ) && (__ARM_ARCH_8M_BASE__ == 1))    ) */
 759:STM32_XPD/CMSIS/Include/cmsis_gcc.h **** 
 760:STM32_XPD/CMSIS/Include/cmsis_gcc.h **** 
 761:STM32_XPD/CMSIS/Include/cmsis_gcc.h **** /**
 762:STM32_XPD/CMSIS/Include/cmsis_gcc.h ****   \brief   Get FPSCR
 763:STM32_XPD/CMSIS/Include/cmsis_gcc.h ****   \details Returns the current value of the Floating Point Status/Control register.
 764:STM32_XPD/CMSIS/Include/cmsis_gcc.h ****   \return               Floating Point Status/Control register value
 765:STM32_XPD/CMSIS/Include/cmsis_gcc.h ****  */
 766:STM32_XPD/CMSIS/Include/cmsis_gcc.h **** __STATIC_FORCEINLINE uint32_t __get_FPSCR(void)
 767:STM32_XPD/CMSIS/Include/cmsis_gcc.h **** {
 768:STM32_XPD/CMSIS/Include/cmsis_gcc.h **** #if ((defined (__FPU_PRESENT) && (__FPU_PRESENT == 1U)) && \
 769:STM32_XPD/CMSIS/Include/cmsis_gcc.h ****      (defined (__FPU_USED   ) && (__FPU_USED    == 1U))     )
 770:STM32_XPD/CMSIS/Include/cmsis_gcc.h **** #if __has_builtin(__builtin_arm_get_fpscr) 
 771:STM32_XPD/CMSIS/Include/cmsis_gcc.h **** // Re-enable using built-in when GCC has been fixed
 772:STM32_XPD/CMSIS/Include/cmsis_gcc.h **** // || (__GNUC__ > 7) || (__GNUC__ == 7 && __GNUC_MINOR__ >= 2)
 773:STM32_XPD/CMSIS/Include/cmsis_gcc.h ****   /* see https://gcc.gnu.org/ml/gcc-patches/2017-04/msg00443.html */
 774:STM32_XPD/CMSIS/Include/cmsis_gcc.h ****   return __builtin_arm_get_fpscr();
 775:STM32_XPD/CMSIS/Include/cmsis_gcc.h **** #else
 776:STM32_XPD/CMSIS/Include/cmsis_gcc.h ****   uint32_t result;
 777:STM32_XPD/CMSIS/Include/cmsis_gcc.h **** 
 778:STM32_XPD/CMSIS/Include/cmsis_gcc.h ****   __ASM volatile ("VMRS %0, fpscr" : "=r" (result) );
 779:STM32_XPD/CMSIS/Include/cmsis_gcc.h ****   return(result);
 780:STM32_XPD/CMSIS/Include/cmsis_gcc.h **** #endif
 781:STM32_XPD/CMSIS/Include/cmsis_gcc.h **** #else
 782:STM32_XPD/CMSIS/Include/cmsis_gcc.h ****   return(0U);
 783:STM32_XPD/CMSIS/Include/cmsis_gcc.h **** #endif
 784:STM32_XPD/CMSIS/Include/cmsis_gcc.h **** }
 785:STM32_XPD/CMSIS/Include/cmsis_gcc.h **** 
 786:STM32_XPD/CMSIS/Include/cmsis_gcc.h **** 
 787:STM32_XPD/CMSIS/Include/cmsis_gcc.h **** /**
 788:STM32_XPD/CMSIS/Include/cmsis_gcc.h ****   \brief   Set FPSCR
 789:STM32_XPD/CMSIS/Include/cmsis_gcc.h ****   \details Assigns the given value to the Floating Point Status/Control register.
 790:STM32_XPD/CMSIS/Include/cmsis_gcc.h ****   \param [in]    fpscr  Floating Point Status/Control value to set
 791:STM32_XPD/CMSIS/Include/cmsis_gcc.h ****  */
 792:STM32_XPD/CMSIS/Include/cmsis_gcc.h **** __STATIC_FORCEINLINE void __set_FPSCR(uint32_t fpscr)
 793:STM32_XPD/CMSIS/Include/cmsis_gcc.h **** {
 794:STM32_XPD/CMSIS/Include/cmsis_gcc.h **** #if ((defined (__FPU_PRESENT) && (__FPU_PRESENT == 1U)) && \
 795:STM32_XPD/CMSIS/Include/cmsis_gcc.h ****      (defined (__FPU_USED   ) && (__FPU_USED    == 1U))     )
 796:STM32_XPD/CMSIS/Include/cmsis_gcc.h **** #if __has_builtin(__builtin_arm_set_fpscr)
 797:STM32_XPD/CMSIS/Include/cmsis_gcc.h **** // Re-enable using built-in when GCC has been fixed
 798:STM32_XPD/CMSIS/Include/cmsis_gcc.h **** // || (__GNUC__ > 7) || (__GNUC__ == 7 && __GNUC_MINOR__ >= 2)
 799:STM32_XPD/CMSIS/Include/cmsis_gcc.h ****   /* see https://gcc.gnu.org/ml/gcc-patches/2017-04/msg00443.html */
 800:STM32_XPD/CMSIS/Include/cmsis_gcc.h ****   __builtin_arm_set_fpscr(fpscr);
 801:STM32_XPD/CMSIS/Include/cmsis_gcc.h **** #else
 802:STM32_XPD/CMSIS/Include/cmsis_gcc.h ****   __ASM volatile ("VMSR fpscr, %0" : : "r" (fpscr) : "vfpcc", "memory");
 803:STM32_XPD/CMSIS/Include/cmsis_gcc.h **** #endif
 804:STM32_XPD/CMSIS/Include/cmsis_gcc.h **** #else
 805:STM32_XPD/CMSIS/Include/cmsis_gcc.h ****   (void)fpscr;
 806:STM32_XPD/CMSIS/Include/cmsis_gcc.h **** #endif
 807:STM32_XPD/CMSIS/Include/cmsis_gcc.h **** }
 808:STM32_XPD/CMSIS/Include/cmsis_gcc.h **** 
 809:STM32_XPD/CMSIS/Include/cmsis_gcc.h **** 
ARM GAS  /tmp/cctR0i1S.s 			page 37


 810:STM32_XPD/CMSIS/Include/cmsis_gcc.h **** /*@} end of CMSIS_Core_RegAccFunctions */
 811:STM32_XPD/CMSIS/Include/cmsis_gcc.h **** 
 812:STM32_XPD/CMSIS/Include/cmsis_gcc.h **** 
 813:STM32_XPD/CMSIS/Include/cmsis_gcc.h **** /* ##########################  Core Instruction Access  ######################### */
 814:STM32_XPD/CMSIS/Include/cmsis_gcc.h **** /** \defgroup CMSIS_Core_InstructionInterface CMSIS Core Instruction Interface
 815:STM32_XPD/CMSIS/Include/cmsis_gcc.h ****   Access to dedicated instructions
 816:STM32_XPD/CMSIS/Include/cmsis_gcc.h ****   @{
 817:STM32_XPD/CMSIS/Include/cmsis_gcc.h **** */
 818:STM32_XPD/CMSIS/Include/cmsis_gcc.h **** 
 819:STM32_XPD/CMSIS/Include/cmsis_gcc.h **** /* Define macros for porting to both thumb1 and thumb2.
 820:STM32_XPD/CMSIS/Include/cmsis_gcc.h ****  * For thumb1, use low register (r0-r7), specified by constraint "l"
 821:STM32_XPD/CMSIS/Include/cmsis_gcc.h ****  * Otherwise, use general registers, specified by constraint "r" */
 822:STM32_XPD/CMSIS/Include/cmsis_gcc.h **** #if defined (__thumb__) && !defined (__thumb2__)
 823:STM32_XPD/CMSIS/Include/cmsis_gcc.h **** #define __CMSIS_GCC_OUT_REG(r) "=l" (r)
 824:STM32_XPD/CMSIS/Include/cmsis_gcc.h **** #define __CMSIS_GCC_RW_REG(r) "+l" (r)
 825:STM32_XPD/CMSIS/Include/cmsis_gcc.h **** #define __CMSIS_GCC_USE_REG(r) "l" (r)
 826:STM32_XPD/CMSIS/Include/cmsis_gcc.h **** #else
 827:STM32_XPD/CMSIS/Include/cmsis_gcc.h **** #define __CMSIS_GCC_OUT_REG(r) "=r" (r)
 828:STM32_XPD/CMSIS/Include/cmsis_gcc.h **** #define __CMSIS_GCC_RW_REG(r) "+r" (r)
 829:STM32_XPD/CMSIS/Include/cmsis_gcc.h **** #define __CMSIS_GCC_USE_REG(r) "r" (r)
 830:STM32_XPD/CMSIS/Include/cmsis_gcc.h **** #endif
 831:STM32_XPD/CMSIS/Include/cmsis_gcc.h **** 
 832:STM32_XPD/CMSIS/Include/cmsis_gcc.h **** /**
 833:STM32_XPD/CMSIS/Include/cmsis_gcc.h ****   \brief   No Operation
 834:STM32_XPD/CMSIS/Include/cmsis_gcc.h ****   \details No Operation does nothing. This instruction can be used for code alignment purposes.
 835:STM32_XPD/CMSIS/Include/cmsis_gcc.h ****  */
 836:STM32_XPD/CMSIS/Include/cmsis_gcc.h **** #define __NOP()                             __ASM volatile ("nop")
 837:STM32_XPD/CMSIS/Include/cmsis_gcc.h **** 
 838:STM32_XPD/CMSIS/Include/cmsis_gcc.h **** /**
 839:STM32_XPD/CMSIS/Include/cmsis_gcc.h ****   \brief   Wait For Interrupt
 840:STM32_XPD/CMSIS/Include/cmsis_gcc.h ****   \details Wait For Interrupt is a hint instruction that suspends execution until one of a number o
 841:STM32_XPD/CMSIS/Include/cmsis_gcc.h ****  */
 842:STM32_XPD/CMSIS/Include/cmsis_gcc.h **** #define __WFI()                             __ASM volatile ("wfi")
 843:STM32_XPD/CMSIS/Include/cmsis_gcc.h **** 
 844:STM32_XPD/CMSIS/Include/cmsis_gcc.h **** 
 845:STM32_XPD/CMSIS/Include/cmsis_gcc.h **** /**
 846:STM32_XPD/CMSIS/Include/cmsis_gcc.h ****   \brief   Wait For Event
 847:STM32_XPD/CMSIS/Include/cmsis_gcc.h ****   \details Wait For Event is a hint instruction that permits the processor to enter
 848:STM32_XPD/CMSIS/Include/cmsis_gcc.h ****            a low-power state until one of a number of events occurs.
 849:STM32_XPD/CMSIS/Include/cmsis_gcc.h ****  */
 850:STM32_XPD/CMSIS/Include/cmsis_gcc.h **** #define __WFE()                             __ASM volatile ("wfe")
 851:STM32_XPD/CMSIS/Include/cmsis_gcc.h **** 
 852:STM32_XPD/CMSIS/Include/cmsis_gcc.h **** 
 853:STM32_XPD/CMSIS/Include/cmsis_gcc.h **** /**
 854:STM32_XPD/CMSIS/Include/cmsis_gcc.h ****   \brief   Send Event
 855:STM32_XPD/CMSIS/Include/cmsis_gcc.h ****   \details Send Event is a hint instruction. It causes an event to be signaled to the CPU.
 856:STM32_XPD/CMSIS/Include/cmsis_gcc.h ****  */
 857:STM32_XPD/CMSIS/Include/cmsis_gcc.h **** #define __SEV()                             __ASM volatile ("sev")
 858:STM32_XPD/CMSIS/Include/cmsis_gcc.h **** 
 859:STM32_XPD/CMSIS/Include/cmsis_gcc.h **** 
 860:STM32_XPD/CMSIS/Include/cmsis_gcc.h **** /**
 861:STM32_XPD/CMSIS/Include/cmsis_gcc.h ****   \brief   Instruction Synchronization Barrier
 862:STM32_XPD/CMSIS/Include/cmsis_gcc.h ****   \details Instruction Synchronization Barrier flushes the pipeline in the processor,
 863:STM32_XPD/CMSIS/Include/cmsis_gcc.h ****            so that all instructions following the ISB are fetched from cache or memory,
 864:STM32_XPD/CMSIS/Include/cmsis_gcc.h ****            after the instruction has been completed.
 865:STM32_XPD/CMSIS/Include/cmsis_gcc.h ****  */
 866:STM32_XPD/CMSIS/Include/cmsis_gcc.h **** __STATIC_FORCEINLINE void __ISB(void)
ARM GAS  /tmp/cctR0i1S.s 			page 38


 867:STM32_XPD/CMSIS/Include/cmsis_gcc.h **** {
 868:STM32_XPD/CMSIS/Include/cmsis_gcc.h ****   __ASM volatile ("isb 0xF":::"memory");
 869:STM32_XPD/CMSIS/Include/cmsis_gcc.h **** }
 870:STM32_XPD/CMSIS/Include/cmsis_gcc.h **** 
 871:STM32_XPD/CMSIS/Include/cmsis_gcc.h **** 
 872:STM32_XPD/CMSIS/Include/cmsis_gcc.h **** /**
 873:STM32_XPD/CMSIS/Include/cmsis_gcc.h ****   \brief   Data Synchronization Barrier
 874:STM32_XPD/CMSIS/Include/cmsis_gcc.h ****   \details Acts as a special kind of Data Memory Barrier.
 875:STM32_XPD/CMSIS/Include/cmsis_gcc.h ****            It completes when all explicit memory accesses before this instruction complete.
 876:STM32_XPD/CMSIS/Include/cmsis_gcc.h ****  */
 877:STM32_XPD/CMSIS/Include/cmsis_gcc.h **** __STATIC_FORCEINLINE void __DSB(void)
 878:STM32_XPD/CMSIS/Include/cmsis_gcc.h **** {
 879:STM32_XPD/CMSIS/Include/cmsis_gcc.h ****   __ASM volatile ("dsb 0xF":::"memory");
 880:STM32_XPD/CMSIS/Include/cmsis_gcc.h **** }
 881:STM32_XPD/CMSIS/Include/cmsis_gcc.h **** 
 882:STM32_XPD/CMSIS/Include/cmsis_gcc.h **** 
 883:STM32_XPD/CMSIS/Include/cmsis_gcc.h **** /**
 884:STM32_XPD/CMSIS/Include/cmsis_gcc.h ****   \brief   Data Memory Barrier
 885:STM32_XPD/CMSIS/Include/cmsis_gcc.h ****   \details Ensures the apparent order of the explicit memory operations before
 886:STM32_XPD/CMSIS/Include/cmsis_gcc.h ****            and after the instruction, without ensuring their completion.
 887:STM32_XPD/CMSIS/Include/cmsis_gcc.h ****  */
 888:STM32_XPD/CMSIS/Include/cmsis_gcc.h **** __STATIC_FORCEINLINE void __DMB(void)
 889:STM32_XPD/CMSIS/Include/cmsis_gcc.h **** {
 890:STM32_XPD/CMSIS/Include/cmsis_gcc.h ****   __ASM volatile ("dmb 0xF":::"memory");
 891:STM32_XPD/CMSIS/Include/cmsis_gcc.h **** }
 892:STM32_XPD/CMSIS/Include/cmsis_gcc.h **** 
 893:STM32_XPD/CMSIS/Include/cmsis_gcc.h **** 
 894:STM32_XPD/CMSIS/Include/cmsis_gcc.h **** /**
 895:STM32_XPD/CMSIS/Include/cmsis_gcc.h ****   \brief   Reverse byte order (32 bit)
 896:STM32_XPD/CMSIS/Include/cmsis_gcc.h ****   \details Reverses the byte order in unsigned integer value. For example, 0x12345678 becomes 0x785
 897:STM32_XPD/CMSIS/Include/cmsis_gcc.h ****   \param [in]    value  Value to reverse
 898:STM32_XPD/CMSIS/Include/cmsis_gcc.h ****   \return               Reversed value
 899:STM32_XPD/CMSIS/Include/cmsis_gcc.h ****  */
 900:STM32_XPD/CMSIS/Include/cmsis_gcc.h **** __STATIC_FORCEINLINE uint32_t __REV(uint32_t value)
 901:STM32_XPD/CMSIS/Include/cmsis_gcc.h **** {
 902:STM32_XPD/CMSIS/Include/cmsis_gcc.h **** #if (__GNUC__ > 4) || (__GNUC__ == 4 && __GNUC_MINOR__ >= 5)
 903:STM32_XPD/CMSIS/Include/cmsis_gcc.h ****   return __builtin_bswap32(value);
 904:STM32_XPD/CMSIS/Include/cmsis_gcc.h **** #else
 905:STM32_XPD/CMSIS/Include/cmsis_gcc.h ****   uint32_t result;
 906:STM32_XPD/CMSIS/Include/cmsis_gcc.h **** 
 907:STM32_XPD/CMSIS/Include/cmsis_gcc.h ****   __ASM volatile ("rev %0, %1" : __CMSIS_GCC_OUT_REG (result) : __CMSIS_GCC_USE_REG (value) );
 908:STM32_XPD/CMSIS/Include/cmsis_gcc.h ****   return result;
 909:STM32_XPD/CMSIS/Include/cmsis_gcc.h **** #endif
 910:STM32_XPD/CMSIS/Include/cmsis_gcc.h **** }
 911:STM32_XPD/CMSIS/Include/cmsis_gcc.h **** 
 912:STM32_XPD/CMSIS/Include/cmsis_gcc.h **** 
 913:STM32_XPD/CMSIS/Include/cmsis_gcc.h **** /**
 914:STM32_XPD/CMSIS/Include/cmsis_gcc.h ****   \brief   Reverse byte order (16 bit)
 915:STM32_XPD/CMSIS/Include/cmsis_gcc.h ****   \details Reverses the byte order within each halfword of a word. For example, 0x12345678 becomes 
 916:STM32_XPD/CMSIS/Include/cmsis_gcc.h ****   \param [in]    value  Value to reverse
 917:STM32_XPD/CMSIS/Include/cmsis_gcc.h ****   \return               Reversed value
 918:STM32_XPD/CMSIS/Include/cmsis_gcc.h ****  */
 919:STM32_XPD/CMSIS/Include/cmsis_gcc.h **** __STATIC_FORCEINLINE uint32_t __REV16(uint32_t value)
 920:STM32_XPD/CMSIS/Include/cmsis_gcc.h **** {
 921:STM32_XPD/CMSIS/Include/cmsis_gcc.h ****   uint32_t result;
 922:STM32_XPD/CMSIS/Include/cmsis_gcc.h **** 
 923:STM32_XPD/CMSIS/Include/cmsis_gcc.h ****   __ASM volatile ("rev16 %0, %1" : __CMSIS_GCC_OUT_REG (result) : __CMSIS_GCC_USE_REG (value) );
ARM GAS  /tmp/cctR0i1S.s 			page 39


 924:STM32_XPD/CMSIS/Include/cmsis_gcc.h ****   return result;
 925:STM32_XPD/CMSIS/Include/cmsis_gcc.h **** }
 926:STM32_XPD/CMSIS/Include/cmsis_gcc.h **** 
 927:STM32_XPD/CMSIS/Include/cmsis_gcc.h **** 
 928:STM32_XPD/CMSIS/Include/cmsis_gcc.h **** /**
 929:STM32_XPD/CMSIS/Include/cmsis_gcc.h ****   \brief   Reverse byte order (16 bit)
 930:STM32_XPD/CMSIS/Include/cmsis_gcc.h ****   \details Reverses the byte order in a 16-bit value and returns the signed 16-bit result. For exam
 931:STM32_XPD/CMSIS/Include/cmsis_gcc.h ****   \param [in]    value  Value to reverse
 932:STM32_XPD/CMSIS/Include/cmsis_gcc.h ****   \return               Reversed value
 933:STM32_XPD/CMSIS/Include/cmsis_gcc.h ****  */
 934:STM32_XPD/CMSIS/Include/cmsis_gcc.h **** __STATIC_FORCEINLINE int16_t __REVSH(int16_t value)
 935:STM32_XPD/CMSIS/Include/cmsis_gcc.h **** {
 936:STM32_XPD/CMSIS/Include/cmsis_gcc.h **** #if (__GNUC__ > 4) || (__GNUC__ == 4 && __GNUC_MINOR__ >= 8)
 937:STM32_XPD/CMSIS/Include/cmsis_gcc.h ****   return (int16_t)__builtin_bswap16(value);
 104              		.loc 2 937 19 is_stmt 0 discriminator 2 view .LVU21
 105 0032 62BA     		rev16	r2, r4
 106              	.LBE36:
 107              	.LBE35:
 108              		.loc 1 1125 7 discriminator 2 view .LVU22
 109 0034 4468     		ldr	r4, [r0, #4]
 110              	.LVL5:
1126:lwIP/src/core/ipv4/etharp.c ****   LWIP_DEBUGF(ETHARP_DEBUG | LWIP_DBG_TRACE, ("etharp_raw: sending raw ARP packet.\n"));
 111              		.loc 1 1126 88 is_stmt 1 discriminator 2 view .LVU23
1127:lwIP/src/core/ipv4/etharp.c ****   hdr->opcode = lwip_htons(opcode);
 112              		.loc 1 1127 3 discriminator 2 view .LVU24
 113              	.LBB38:
 114              	.LBI35:
 934:STM32_XPD/CMSIS/Include/cmsis_gcc.h **** {
 115              		.loc 2 934 30 discriminator 2 view .LVU25
 116              	.LBB37:
 117              		.loc 2 937 3 discriminator 2 view .LVU26
 118              		.loc 2 937 3 is_stmt 0 discriminator 2 view .LVU27
 119              	.LBE37:
 120              	.LBE38:
 121              		.loc 1 1127 15 discriminator 2 view .LVU28
 122 0036 E280     		strh	r2, [r4, #6]	@ unaligned
1128:lwIP/src/core/ipv4/etharp.c **** 
1129:lwIP/src/core/ipv4/etharp.c ****   LWIP_ASSERT("netif->hwaddr_len must be the same as ETH_HWADDR_LEN for etharp!",
 123              		.loc 1 1129 3 is_stmt 1 discriminator 2 view .LVU29
 124              		.loc 1 1129 3 discriminator 2 view .LVU30
 125 0038 98F824C0 		ldrb	ip, [r8, #36]	@ zero_extendqisi2
 126 003c BCF1060F 		cmp	ip, #6
 127 0040 0BD0     		beq	.L7
 128              		.loc 1 1129 3 discriminator 1 view .LVU31
 129 0042 1E48     		ldr	r0, .L14
 130              	.LVL6:
 131              		.loc 1 1129 3 is_stmt 0 discriminator 1 view .LVU32
 132 0044 FFF7FEFF 		bl	printf
 133              	.LVL7:
 134              	.L8:
 135              		.loc 1 1129 3 is_stmt 1 discriminator 3 view .LVU33
 136              		.loc 1 1129 3 discriminator 3 view .LVU34
 137              		.loc 1 1129 3 discriminator 3 view .LVU35
 138              		.loc 1 1129 3 discriminator 3 view .LVU36
 139              		.loc 1 1129 3 discriminator 3 view .LVU37
 140              		.loc 1 1129 3 discriminator 3 view .LVU38
 141 0048 FEE7     		b	.L8
ARM GAS  /tmp/cctR0i1S.s 			page 40


 142              	.LVL8:
 143              	.L13:
1122:lwIP/src/core/ipv4/etharp.c ****               (p->len >= SIZEOF_ETHARP_HDR));
 144              		.loc 1 1122 3 discriminator 1 view .LVU39
 145 004a 1D48     		ldr	r0, .L14+4
 146              	.LVL9:
1122:lwIP/src/core/ipv4/etharp.c ****               (p->len >= SIZEOF_ETHARP_HDR));
 147              		.loc 1 1122 3 is_stmt 0 discriminator 1 view .LVU40
 148 004c FFF7FEFF 		bl	printf
 149              	.LVL10:
 150              	.L6:
1122:lwIP/src/core/ipv4/etharp.c ****               (p->len >= SIZEOF_ETHARP_HDR));
 151              		.loc 1 1122 3 is_stmt 1 discriminator 2 view .LVU41
1122:lwIP/src/core/ipv4/etharp.c ****               (p->len >= SIZEOF_ETHARP_HDR));
 152              		.loc 1 1122 3 discriminator 2 view .LVU42
1122:lwIP/src/core/ipv4/etharp.c ****               (p->len >= SIZEOF_ETHARP_HDR));
 153              		.loc 1 1122 3 discriminator 2 view .LVU43
1122:lwIP/src/core/ipv4/etharp.c ****               (p->len >= SIZEOF_ETHARP_HDR));
 154              		.loc 1 1122 3 discriminator 2 view .LVU44
1122:lwIP/src/core/ipv4/etharp.c ****               (p->len >= SIZEOF_ETHARP_HDR));
 155              		.loc 1 1122 3 discriminator 2 view .LVU45
1122:lwIP/src/core/ipv4/etharp.c ****               (p->len >= SIZEOF_ETHARP_HDR));
 156              		.loc 1 1122 3 discriminator 2 view .LVU46
 157 0050 FEE7     		b	.L6
 158              	.LVL11:
 159              	.L12:
1111:lwIP/src/core/ipv4/etharp.c **** 
 160              		.loc 1 1111 3 discriminator 1 view .LVU47
 161 0052 1C48     		ldr	r0, .L14+8
 162              	.LVL12:
1111:lwIP/src/core/ipv4/etharp.c **** 
 163              		.loc 1 1111 3 is_stmt 0 discriminator 1 view .LVU48
 164 0054 FFF7FEFF 		bl	printf
 165              	.LVL13:
 166              	.L3:
1111:lwIP/src/core/ipv4/etharp.c **** 
 167              		.loc 1 1111 3 is_stmt 1 discriminator 1 view .LVU49
1111:lwIP/src/core/ipv4/etharp.c **** 
 168              		.loc 1 1111 3 discriminator 1 view .LVU50
1111:lwIP/src/core/ipv4/etharp.c **** 
 169              		.loc 1 1111 3 discriminator 1 view .LVU51
1111:lwIP/src/core/ipv4/etharp.c **** 
 170              		.loc 1 1111 3 discriminator 1 view .LVU52
1111:lwIP/src/core/ipv4/etharp.c **** 
 171              		.loc 1 1111 3 discriminator 1 view .LVU53
1111:lwIP/src/core/ipv4/etharp.c **** 
 172              		.loc 1 1111 3 discriminator 1 view .LVU54
 173 0058 FEE7     		b	.L3
 174              	.LVL14:
 175              	.L7:
 176              		.loc 1 1129 3 discriminator 2 view .LVU55
1130:lwIP/src/core/ipv4/etharp.c ****               (netif->hwaddr_len == ETH_HWADDR_LEN));
1131:lwIP/src/core/ipv4/etharp.c **** 
1132:lwIP/src/core/ipv4/etharp.c ****   /* Write the ARP MAC-Addresses */
1133:lwIP/src/core/ipv4/etharp.c ****   SMEMCPY(&hdr->shwaddr, hwsrc_addr, ETH_HWADDR_LEN);
 177              		.loc 1 1133 3 discriminator 2 view .LVU56
 178 005a D9F80010 		ldr	r1, [r9]	@ unaligned
ARM GAS  /tmp/cctR0i1S.s 			page 41


1134:lwIP/src/core/ipv4/etharp.c ****   SMEMCPY(&hdr->dhwaddr, hwdst_addr, ETH_HWADDR_LEN);
1135:lwIP/src/core/ipv4/etharp.c ****   /* Copy struct ip4_addr_wordaligned to aligned ip4_addr, to support compilers without
1136:lwIP/src/core/ipv4/etharp.c ****    * structure packing. */
1137:lwIP/src/core/ipv4/etharp.c ****   IPADDR_WORDALIGNED_COPY_FROM_IP4_ADDR_T(&hdr->sipaddr, ipsrc_addr);
1138:lwIP/src/core/ipv4/etharp.c ****   IPADDR_WORDALIGNED_COPY_FROM_IP4_ADDR_T(&hdr->dipaddr, ipdst_addr);
1139:lwIP/src/core/ipv4/etharp.c **** 
1140:lwIP/src/core/ipv4/etharp.c ****   hdr->hwtype = PP_HTONS(LWIP_IANA_HWTYPE_ETHERNET);
1141:lwIP/src/core/ipv4/etharp.c ****   hdr->proto = PP_HTONS(ETHTYPE_IP);
1142:lwIP/src/core/ipv4/etharp.c ****   /* set hwlen and protolen */
1143:lwIP/src/core/ipv4/etharp.c ****   hdr->hwlen = ETH_HWADDR_LEN;
1144:lwIP/src/core/ipv4/etharp.c ****   hdr->protolen = sizeof(ip4_addr_t);
1145:lwIP/src/core/ipv4/etharp.c **** 
1146:lwIP/src/core/ipv4/etharp.c ****   /* send ARP query */
1147:lwIP/src/core/ipv4/etharp.c **** #if LWIP_AUTOIP
1148:lwIP/src/core/ipv4/etharp.c ****   /* If we are using Link-Local, all ARP packets that contain a Link-Local
1149:lwIP/src/core/ipv4/etharp.c ****    * 'sender IP address' MUST be sent using link-layer broadcast instead of
1150:lwIP/src/core/ipv4/etharp.c ****    * link-layer unicast. (See RFC3927 Section 2.5, last paragraph) */
1151:lwIP/src/core/ipv4/etharp.c ****   if (ip4_addr_islinklocal(ipsrc_addr)) {
1152:lwIP/src/core/ipv4/etharp.c ****     ethernet_output(netif, p, ethsrc_addr, &ethbroadcast, ETHTYPE_ARP);
1153:lwIP/src/core/ipv4/etharp.c ****   } else
1154:lwIP/src/core/ipv4/etharp.c **** #endif /* LWIP_AUTOIP */
1155:lwIP/src/core/ipv4/etharp.c ****   {
1156:lwIP/src/core/ipv4/etharp.c ****     ethernet_output(netif, p, ethsrc_addr, ethdst_addr, ETHTYPE_ARP);
 179              		.loc 1 1156 5 is_stmt 0 discriminator 2 view .LVU57
 180 005e 40F6060E 		movw	lr, #2054
 181 0062 4046     		mov	r0, r8
 182              	.LVL15:
1144:lwIP/src/core/ipv4/etharp.c **** 
 183              		.loc 1 1144 17 discriminator 2 view .LVU58
 184 0064 4FF00408 		mov	r8, #4
 185              	.LVL16:
1133:lwIP/src/core/ipv4/etharp.c ****   SMEMCPY(&hdr->dhwaddr, hwdst_addr, ETH_HWADDR_LEN);
 186              		.loc 1 1133 3 discriminator 2 view .LVU59
 187 0068 A160     		str	r1, [r4, #8]	@ unaligned
 188              		.loc 1 1156 5 discriminator 2 view .LVU60
 189 006a 5246     		mov	r2, r10
1133:lwIP/src/core/ipv4/etharp.c ****   SMEMCPY(&hdr->dhwaddr, hwdst_addr, ETH_HWADDR_LEN);
 190              		.loc 1 1133 3 discriminator 2 view .LVU61
 191 006c B9F80410 		ldrh	r1, [r9, #4]	@ unaligned
 192 0070 A181     		strh	r1, [r4, #12]	@ unaligned
1134:lwIP/src/core/ipv4/etharp.c ****   SMEMCPY(&hdr->dhwaddr, hwdst_addr, ETH_HWADDR_LEN);
 193              		.loc 1 1134 3 is_stmt 1 discriminator 2 view .LVU62
 194              		.loc 1 1156 5 is_stmt 0 discriminator 2 view .LVU63
 195 0072 2946     		mov	r1, r5
1134:lwIP/src/core/ipv4/etharp.c ****   SMEMCPY(&hdr->dhwaddr, hwdst_addr, ETH_HWADDR_LEN);
 196              		.loc 1 1134 3 discriminator 2 view .LVU64
 197 0074 D6F80090 		ldr	r9, [r6]	@ unaligned
 198              	.LVL17:
1134:lwIP/src/core/ipv4/etharp.c ****   SMEMCPY(&hdr->dhwaddr, hwdst_addr, ETH_HWADDR_LEN);
 199              		.loc 1 1134 3 discriminator 2 view .LVU65
 200 0078 C4F81290 		str	r9, [r4, #18]	@ unaligned
 201 007c B6F80490 		ldrh	r9, [r6, #4]	@ unaligned
 202 0080 0E9E     		ldr	r6, [sp, #56]
 203 0082 A4F81690 		strh	r9, [r4, #22]	@ unaligned
1137:lwIP/src/core/ipv4/etharp.c ****   IPADDR_WORDALIGNED_COPY_FROM_IP4_ADDR_T(&hdr->dipaddr, ipdst_addr);
 204              		.loc 1 1137 3 is_stmt 1 discriminator 2 view .LVU66
 205 0086 D7F80090 		ldr	r9, [r7]	@ unaligned
ARM GAS  /tmp/cctR0i1S.s 			page 42


1140:lwIP/src/core/ipv4/etharp.c ****   hdr->proto = PP_HTONS(ETHTYPE_IP);
 206              		.loc 1 1140 15 is_stmt 0 discriminator 2 view .LVU67
 207 008a 0F4F     		ldr	r7, .L14+12
1137:lwIP/src/core/ipv4/etharp.c ****   IPADDR_WORDALIGNED_COPY_FROM_IP4_ADDR_T(&hdr->dipaddr, ipdst_addr);
 208              		.loc 1 1137 3 discriminator 2 view .LVU68
 209 008c C4F80E90 		str	r9, [r4, #14]	@ unaligned
1138:lwIP/src/core/ipv4/etharp.c **** 
 210              		.loc 1 1138 3 is_stmt 1 discriminator 2 view .LVU69
 211 0090 3668     		ldr	r6, [r6]	@ unaligned
1143:lwIP/src/core/ipv4/etharp.c ****   hdr->protolen = sizeof(ip4_addr_t);
 212              		.loc 1 1143 14 is_stmt 0 discriminator 2 view .LVU70
 213 0092 84F804C0 		strb	ip, [r4, #4]
1138:lwIP/src/core/ipv4/etharp.c **** 
 214              		.loc 1 1138 3 discriminator 2 view .LVU71
 215 0096 A661     		str	r6, [r4, #24]	@ unaligned
1140:lwIP/src/core/ipv4/etharp.c ****   hdr->proto = PP_HTONS(ETHTYPE_IP);
 216              		.loc 1 1140 3 is_stmt 1 discriminator 2 view .LVU72
1141:lwIP/src/core/ipv4/etharp.c ****   /* set hwlen and protolen */
 217              		.loc 1 1141 3 discriminator 2 view .LVU73
1140:lwIP/src/core/ipv4/etharp.c ****   hdr->proto = PP_HTONS(ETHTYPE_IP);
 218              		.loc 1 1140 15 is_stmt 0 discriminator 2 view .LVU74
 219 0098 2760     		str	r7, [r4]	@ unaligned
1143:lwIP/src/core/ipv4/etharp.c ****   hdr->protolen = sizeof(ip4_addr_t);
 220              		.loc 1 1143 3 is_stmt 1 discriminator 2 view .LVU75
1144:lwIP/src/core/ipv4/etharp.c **** 
 221              		.loc 1 1144 3 discriminator 2 view .LVU76
1144:lwIP/src/core/ipv4/etharp.c **** 
 222              		.loc 1 1144 17 is_stmt 0 discriminator 2 view .LVU77
 223 009a 84F80580 		strb	r8, [r4, #5]
 224              		.loc 1 1156 5 is_stmt 1 discriminator 2 view .LVU78
 225 009e CDF800E0 		str	lr, [sp]
 226 00a2 FFF7FEFF 		bl	ethernet_output
 227              	.LVL18:
1157:lwIP/src/core/ipv4/etharp.c ****   }
1158:lwIP/src/core/ipv4/etharp.c **** 
1159:lwIP/src/core/ipv4/etharp.c ****   ETHARP_STATS_INC(etharp.xmit);
 228              		.loc 1 1159 32 discriminator 2 view .LVU79
1160:lwIP/src/core/ipv4/etharp.c ****   /* free ARP query packet */
1161:lwIP/src/core/ipv4/etharp.c ****   pbuf_free(p);
 229              		.loc 1 1161 3 discriminator 2 view .LVU80
 230 00a6 2846     		mov	r0, r5
 231 00a8 FFF7FEFF 		bl	pbuf_free
 232              	.LVL19:
1162:lwIP/src/core/ipv4/etharp.c ****   p = NULL;
 233              		.loc 1 1162 3 discriminator 2 view .LVU81
1163:lwIP/src/core/ipv4/etharp.c ****   /* could not allocate pbuf for ARP request */
1164:lwIP/src/core/ipv4/etharp.c **** 
1165:lwIP/src/core/ipv4/etharp.c ****   return result;
 234              		.loc 1 1165 3 discriminator 2 view .LVU82
 235              		.loc 1 1165 10 is_stmt 0 discriminator 2 view .LVU83
 236 00ac 0020     		movs	r0, #0
 237              	.LVL20:
 238              	.L4:
1166:lwIP/src/core/ipv4/etharp.c **** }
 239              		.loc 1 1166 1 view .LVU84
 240 00ae 04B0     		add	sp, sp, #16
 241              	.LCFI2:
ARM GAS  /tmp/cctR0i1S.s 			page 43


 242              		.cfi_remember_state
 243              		.cfi_def_cfa_offset 32
 244              		@ sp needed
 245 00b0 BDE8F087 		pop	{r4, r5, r6, r7, r8, r9, r10, pc}
 246              	.LVL21:
 247              	.L9:
 248              	.LCFI3:
 249              		.cfi_restore_state
1120:lwIP/src/core/ipv4/etharp.c ****   }
 250              		.loc 1 1120 12 view .LVU85
 251 00b4 4FF0FF30 		mov	r0, #-1
 252              	.LVL22:
1120:lwIP/src/core/ipv4/etharp.c ****   }
 253              		.loc 1 1120 12 view .LVU86
 254 00b8 F9E7     		b	.L4
 255              	.L15:
 256 00ba 00BF     		.align	2
 257              	.L14:
 258 00bc 44000000 		.word	.LC2
 259 00c0 10000000 		.word	.LC1
 260 00c4 00000000 		.word	.LC0
 261 00c8 00010800 		.word	524544
 262              		.cfi_endproc
 263              	.LFE116:
 265              		.section	.rodata.etharp_output_to_arp_index.str1.4,"aMS",%progbits,1
 266              		.align	2
 267              	.LC3:
 268 0000 6172705F 		.ascii	"arp_table[arp_idx].state >= ETHARP_STATE_STABLE\000"
 268      7461626C 
 268      655B6172 
 268      705F6964 
 268      785D2E73 
 269              		.section	.text.etharp_output_to_arp_index,"ax",%progbits
 270              		.align	1
 271              		.p2align 2,,3
 272              		.syntax unified
 273              		.thumb
 274              		.thumb_func
 275              		.fpu fpv4-sp-d16
 277              	etharp_output_to_arp_index:
 278              	.LVL23:
 279              	.LFB113:
 749:lwIP/src/core/ipv4/etharp.c ****   LWIP_ASSERT("arp_table[arp_idx].state >= ETHARP_STATE_STABLE",
 280              		.loc 1 749 1 is_stmt 1 view -0
 281              		.cfi_startproc
 282              		@ args = 0, pretend = 0, frame = 0
 283              		@ frame_needed = 0, uses_anonymous_args = 0
 749:lwIP/src/core/ipv4/etharp.c ****   LWIP_ASSERT("arp_table[arp_idx].state >= ETHARP_STATE_STABLE",
 284              		.loc 1 749 1 is_stmt 0 view .LVU88
 285 0000 2DE9F043 		push	{r4, r5, r6, r7, r8, r9, lr}
 286              	.LCFI4:
 287              		.cfi_def_cfa_offset 28
 288              		.cfi_offset 4, -28
 289              		.cfi_offset 5, -24
 290              		.cfi_offset 6, -20
 291              		.cfi_offset 7, -16
 292              		.cfi_offset 8, -12
ARM GAS  /tmp/cctR0i1S.s 			page 44


 293              		.cfi_offset 9, -8
 294              		.cfi_offset 14, -4
 750:lwIP/src/core/ipv4/etharp.c ****               arp_table[arp_idx].state >= ETHARP_STATE_STABLE);
 295              		.loc 1 750 3 view .LVU89
 296 0004 274B     		ldr	r3, .L28
 297 0006 02EB4206 		add	r6, r2, r2, lsl #1
 749:lwIP/src/core/ipv4/etharp.c ****   LWIP_ASSERT("arp_table[arp_idx].state >= ETHARP_STATE_STABLE",
 298              		.loc 1 749 1 view .LVU90
 299 000a 0F46     		mov	r7, r1
 750:lwIP/src/core/ipv4/etharp.c ****               arp_table[arp_idx].state >= ETHARP_STATE_STABLE);
 300              		.loc 1 750 3 is_stmt 1 view .LVU91
 750:lwIP/src/core/ipv4/etharp.c ****               arp_table[arp_idx].state >= ETHARP_STATE_STABLE);
 301              		.loc 1 750 3 view .LVU92
 749:lwIP/src/core/ipv4/etharp.c ****   LWIP_ASSERT("arp_table[arp_idx].state >= ETHARP_STATE_STABLE",
 302              		.loc 1 749 1 is_stmt 0 view .LVU93
 303 000c 85B0     		sub	sp, sp, #20
 304              	.LCFI5:
 305              		.cfi_def_cfa_offset 48
 750:lwIP/src/core/ipv4/etharp.c ****               arp_table[arp_idx].state >= ETHARP_STATE_STABLE);
 306              		.loc 1 750 3 view .LVU94
 307 000e 03EBC606 		add	r6, r3, r6, lsl #3
 308 0012 317D     		ldrb	r1, [r6, #20]	@ zero_extendqisi2
 309              	.LVL24:
 750:lwIP/src/core/ipv4/etharp.c ****               arp_table[arp_idx].state >= ETHARP_STATE_STABLE);
 310              		.loc 1 750 3 view .LVU95
 311 0014 0129     		cmp	r1, #1
 312 0016 30D9     		bls	.L25
 750:lwIP/src/core/ipv4/etharp.c ****               arp_table[arp_idx].state >= ETHARP_STATE_STABLE);
 313              		.loc 1 750 3 is_stmt 1 discriminator 2 view .LVU96
 755:lwIP/src/core/ipv4/etharp.c ****     if (arp_table[arp_idx].ctime >= ARP_AGE_REREQUEST_USED_BROADCAST) {
 314              		.loc 1 755 3 discriminator 2 view .LVU97
 315 0018 02EB4202 		add	r2, r2, r2, lsl #1
 316              	.LVL25:
 755:lwIP/src/core/ipv4/etharp.c ****     if (arp_table[arp_idx].ctime >= ARP_AGE_REREQUEST_USED_BROADCAST) {
 317              		.loc 1 755 6 is_stmt 0 discriminator 2 view .LVU98
 318 001c 0229     		cmp	r1, #2
 319 001e 0546     		mov	r5, r0
 320 0020 00F11E09 		add	r9, r0, #30
 321 0024 4FEAC204 		lsl	r4, r2, #3
 322 0028 04F10C08 		add	r8, r4, #12
 323 002c 9844     		add	r8, r8, r3
 324 002e 0BD0     		beq	.L26
 325              	.LVL26:
 326              	.L20:
 769:lwIP/src/core/ipv4/etharp.c **** }
 327              		.loc 1 769 3 is_stmt 1 view .LVU99
 769:lwIP/src/core/ipv4/etharp.c **** }
 328              		.loc 1 769 10 is_stmt 0 view .LVU100
 329 0030 4FF40064 		mov	r4, #2048
 330 0034 4346     		mov	r3, r8
 331 0036 4A46     		mov	r2, r9
 332 0038 3946     		mov	r1, r7
 333 003a 2846     		mov	r0, r5
 334 003c 0094     		str	r4, [sp]
 335 003e FFF7FEFF 		bl	ethernet_output
 336              	.LVL27:
 770:lwIP/src/core/ipv4/etharp.c **** 
ARM GAS  /tmp/cctR0i1S.s 			page 45


 337              		.loc 1 770 1 view .LVU101
 338 0042 05B0     		add	sp, sp, #20
 339              	.LCFI6:
 340              		.cfi_remember_state
 341              		.cfi_def_cfa_offset 28
 342              		@ sp needed
 343 0044 BDE8F083 		pop	{r4, r5, r6, r7, r8, r9, pc}
 344              	.LVL28:
 345              	.L26:
 346              	.LCFI7:
 347              		.cfi_restore_state
 756:lwIP/src/core/ipv4/etharp.c ****       /* issue a standard request using broadcast */
 348              		.loc 1 756 5 is_stmt 1 view .LVU102
 756:lwIP/src/core/ipv4/etharp.c ****       /* issue a standard request using broadcast */
 349              		.loc 1 756 27 is_stmt 0 view .LVU103
 350 0048 728A     		ldrh	r2, [r6, #18]
 756:lwIP/src/core/ipv4/etharp.c ****       /* issue a standard request using broadcast */
 351              		.loc 1 756 8 view .LVU104
 352 004a B2F58E7F 		cmp	r2, #284
 353 004e 18D8     		bhi	.L27
 761:lwIP/src/core/ipv4/etharp.c ****       /* issue a unicast request (for 15 seconds) to prevent unnecessary broadcast */
 354              		.loc 1 761 12 is_stmt 1 view .LVU105
 761:lwIP/src/core/ipv4/etharp.c ****       /* issue a unicast request (for 15 seconds) to prevent unnecessary broadcast */
 355              		.loc 1 761 15 is_stmt 0 view .LVU106
 356 0050 B2F5877F 		cmp	r2, #270
 357 0054 ECD3     		bcc	.L20
 763:lwIP/src/core/ipv4/etharp.c ****         arp_table[arp_idx].state = ETHARP_STATE_STABLE_REREQUESTING_1;
 358              		.loc 1 763 7 is_stmt 1 view .LVU107
 359              	.LVL29:
 360              	.LBB39:
 361              	.LBI39:
1167:lwIP/src/core/ipv4/etharp.c **** 
1168:lwIP/src/core/ipv4/etharp.c **** /**
1169:lwIP/src/core/ipv4/etharp.c ****  * Send an ARP request packet asking for ipaddr to a specific eth address.
1170:lwIP/src/core/ipv4/etharp.c ****  * Used to send unicast request to refresh the ARP table just before an entry
1171:lwIP/src/core/ipv4/etharp.c ****  * times out
1172:lwIP/src/core/ipv4/etharp.c ****  *
1173:lwIP/src/core/ipv4/etharp.c ****  * @param netif the lwip network interface on which to send the request
1174:lwIP/src/core/ipv4/etharp.c ****  * @param ipaddr the IP address for which to ask
1175:lwIP/src/core/ipv4/etharp.c ****  * @param hw_dst_addr the ethernet address to send this packet to
1176:lwIP/src/core/ipv4/etharp.c ****  * @return ERR_OK if the request has been sent
1177:lwIP/src/core/ipv4/etharp.c ****  *         ERR_MEM if the ARP packet couldn't be allocated
1178:lwIP/src/core/ipv4/etharp.c ****  *         any other err_t on failure
1179:lwIP/src/core/ipv4/etharp.c ****  */
1180:lwIP/src/core/ipv4/etharp.c **** static err_t
1181:lwIP/src/core/ipv4/etharp.c **** etharp_request_dst(struct netif *netif, const ip4_addr_t *ipaddr, const struct eth_addr *hw_dst_add
 362              		.loc 1 1181 1 view .LVU108
 363              	.LBB40:
1182:lwIP/src/core/ipv4/etharp.c **** {
1183:lwIP/src/core/ipv4/etharp.c ****   return etharp_raw(netif, (struct eth_addr *)netif->hwaddr, hw_dst_addr,
 364              		.loc 1 1183 3 view .LVU109
 365              	.LBE40:
 366              	.LBE39:
 763:lwIP/src/core/ipv4/etharp.c ****         arp_table[arp_idx].state = ETHARP_STATE_STABLE_REREQUESTING_1;
 367              		.loc 1 763 37 is_stmt 0 view .LVU110
 368 0056 0434     		adds	r4, r4, #4
 369              	.LVL30:
ARM GAS  /tmp/cctR0i1S.s 			page 46


 370              	.LBB43:
 371              	.LBB41:
 372              		.loc 1 1183 10 view .LVU111
 373 0058 0122     		movs	r2, #1
 374 005a 1349     		ldr	r1, .L28+4
 375              	.LBE41:
 376              	.LBE43:
 763:lwIP/src/core/ipv4/etharp.c ****         arp_table[arp_idx].state = ETHARP_STATE_STABLE_REREQUESTING_1;
 377              		.loc 1 763 37 view .LVU112
 378 005c 1C44     		add	r4, r4, r3
 379              	.LBB44:
 380              	.LBB42:
 381              		.loc 1 1183 10 view .LVU113
 382 005e 0392     		str	r2, [sp, #12]
 383 0060 0191     		str	r1, [sp, #4]
 384 0062 4B46     		mov	r3, r9
 385 0064 4246     		mov	r2, r8
 386 0066 4946     		mov	r1, r9
 387 0068 0090     		str	r0, [sp]
 388 006a 0294     		str	r4, [sp, #8]
 389 006c FFF7FEFF 		bl	etharp_raw
 390              	.LVL31:
 391              		.loc 1 1183 10 view .LVU114
 392              	.LBE42:
 393              	.LBE44:
 763:lwIP/src/core/ipv4/etharp.c ****         arp_table[arp_idx].state = ETHARP_STATE_STABLE_REREQUESTING_1;
 394              		.loc 1 763 10 view .LVU115
 395 0070 0028     		cmp	r0, #0
 396 0072 DDD1     		bne	.L20
 397              	.L24:
 764:lwIP/src/core/ipv4/etharp.c ****       }
 398              		.loc 1 764 9 is_stmt 1 view .LVU116
 764:lwIP/src/core/ipv4/etharp.c ****       }
 399              		.loc 1 764 34 is_stmt 0 view .LVU117
 400 0074 0323     		movs	r3, #3
 401 0076 3375     		strb	r3, [r6, #20]
 402 0078 DAE7     		b	.L20
 403              	.LVL32:
 404              	.L25:
 750:lwIP/src/core/ipv4/etharp.c ****               arp_table[arp_idx].state >= ETHARP_STATE_STABLE);
 405              		.loc 1 750 3 is_stmt 1 discriminator 1 view .LVU118
 406 007a 0C48     		ldr	r0, .L28+8
 407              	.LVL33:
 750:lwIP/src/core/ipv4/etharp.c ****               arp_table[arp_idx].state >= ETHARP_STATE_STABLE);
 408              		.loc 1 750 3 is_stmt 0 discriminator 1 view .LVU119
 409 007c FFF7FEFF 		bl	printf
 410              	.LVL34:
 411              	.L18:
 750:lwIP/src/core/ipv4/etharp.c ****               arp_table[arp_idx].state >= ETHARP_STATE_STABLE);
 412              		.loc 1 750 3 is_stmt 1 discriminator 1 view .LVU120
 750:lwIP/src/core/ipv4/etharp.c ****               arp_table[arp_idx].state >= ETHARP_STATE_STABLE);
 413              		.loc 1 750 3 discriminator 1 view .LVU121
 750:lwIP/src/core/ipv4/etharp.c ****               arp_table[arp_idx].state >= ETHARP_STATE_STABLE);
 414              		.loc 1 750 3 discriminator 1 view .LVU122
 750:lwIP/src/core/ipv4/etharp.c ****               arp_table[arp_idx].state >= ETHARP_STATE_STABLE);
 415              		.loc 1 750 3 discriminator 1 view .LVU123
 750:lwIP/src/core/ipv4/etharp.c ****               arp_table[arp_idx].state >= ETHARP_STATE_STABLE);
ARM GAS  /tmp/cctR0i1S.s 			page 47


 416              		.loc 1 750 3 discriminator 1 view .LVU124
 750:lwIP/src/core/ipv4/etharp.c ****               arp_table[arp_idx].state >= ETHARP_STATE_STABLE);
 417              		.loc 1 750 3 discriminator 1 view .LVU125
 418 0080 FEE7     		b	.L18
 419              	.LVL35:
 420              	.L27:
 758:lwIP/src/core/ipv4/etharp.c ****         arp_table[arp_idx].state = ETHARP_STATE_STABLE_REREQUESTING_1;
 421              		.loc 1 758 7 view .LVU126
 422              	.LBB45:
 423              	.LBI45:
1184:lwIP/src/core/ipv4/etharp.c ****                     (struct eth_addr *)netif->hwaddr, netif_ip4_addr(netif), &ethzero,
1185:lwIP/src/core/ipv4/etharp.c ****                     ipaddr, ARP_REQUEST);
1186:lwIP/src/core/ipv4/etharp.c **** }
1187:lwIP/src/core/ipv4/etharp.c **** 
1188:lwIP/src/core/ipv4/etharp.c **** /**
1189:lwIP/src/core/ipv4/etharp.c ****  * Send an ARP request packet asking for ipaddr.
1190:lwIP/src/core/ipv4/etharp.c ****  *
1191:lwIP/src/core/ipv4/etharp.c ****  * @param netif the lwip network interface on which to send the request
1192:lwIP/src/core/ipv4/etharp.c ****  * @param ipaddr the IP address for which to ask
1193:lwIP/src/core/ipv4/etharp.c ****  * @return ERR_OK if the request has been sent
1194:lwIP/src/core/ipv4/etharp.c ****  *         ERR_MEM if the ARP packet couldn't be allocated
1195:lwIP/src/core/ipv4/etharp.c ****  *         any other err_t on failure
1196:lwIP/src/core/ipv4/etharp.c ****  */
1197:lwIP/src/core/ipv4/etharp.c **** err_t
1198:lwIP/src/core/ipv4/etharp.c **** etharp_request(struct netif *netif, const ip4_addr_t *ipaddr)
 424              		.loc 1 1198 1 view .LVU127
 425              	.LBB46:
1199:lwIP/src/core/ipv4/etharp.c **** {
1200:lwIP/src/core/ipv4/etharp.c ****   LWIP_DEBUGF(ETHARP_DEBUG | LWIP_DBG_TRACE, ("etharp_request: sending ARP request.\n"));
 426              		.loc 1 1200 89 view .LVU128
1201:lwIP/src/core/ipv4/etharp.c ****   return etharp_request_dst(netif, ipaddr, &ethbroadcast);
 427              		.loc 1 1201 3 view .LVU129
 428              	.LBB47:
 429              	.LBI47:
1181:lwIP/src/core/ipv4/etharp.c **** {
 430              		.loc 1 1181 1 view .LVU130
 431              	.LBB48:
1183:lwIP/src/core/ipv4/etharp.c ****                     (struct eth_addr *)netif->hwaddr, netif_ip4_addr(netif), &ethzero,
 432              		.loc 1 1183 3 view .LVU131
 433              	.LBE48:
 434              	.LBE47:
 435              	.LBE46:
 436              	.LBE45:
 758:lwIP/src/core/ipv4/etharp.c ****         arp_table[arp_idx].state = ETHARP_STATE_STABLE_REREQUESTING_1;
 437              		.loc 1 758 33 is_stmt 0 view .LVU132
 438 0082 221D     		adds	r2, r4, #4
 439              	.LBB55:
 440              	.LBB53:
 441              	.LBB51:
 442              	.LBB49:
1183:lwIP/src/core/ipv4/etharp.c ****                     (struct eth_addr *)netif->hwaddr, netif_ip4_addr(netif), &ethzero,
 443              		.loc 1 1183 10 view .LVU133
 444 0084 0121     		movs	r1, #1
 445 0086 084C     		ldr	r4, .L28+4
 446              	.LVL36:
1183:lwIP/src/core/ipv4/etharp.c ****                     (struct eth_addr *)netif->hwaddr, netif_ip4_addr(netif), &ethzero,
 447              		.loc 1 1183 10 view .LVU134
ARM GAS  /tmp/cctR0i1S.s 			page 48


 448              	.LBE49:
 449              	.LBE51:
 450              	.LBE53:
 451              	.LBE55:
 758:lwIP/src/core/ipv4/etharp.c ****         arp_table[arp_idx].state = ETHARP_STATE_STABLE_REREQUESTING_1;
 452              		.loc 1 758 33 view .LVU135
 453 0088 1A44     		add	r2, r2, r3
 454              	.LBB56:
 455              	.LBB54:
 456              	.LBB52:
 457              	.LBB50:
1183:lwIP/src/core/ipv4/etharp.c ****                     (struct eth_addr *)netif->hwaddr, netif_ip4_addr(netif), &ethzero,
 458              		.loc 1 1183 10 view .LVU136
 459 008a 0391     		str	r1, [sp, #12]
 460 008c 4B46     		mov	r3, r9
 461 008e 4946     		mov	r1, r9
 462 0090 0292     		str	r2, [sp, #8]
 463 0092 0090     		str	r0, [sp]
 464 0094 064A     		ldr	r2, .L28+12
 465 0096 0194     		str	r4, [sp, #4]
 466 0098 FFF7FEFF 		bl	etharp_raw
 467              	.LVL37:
1183:lwIP/src/core/ipv4/etharp.c ****                     (struct eth_addr *)netif->hwaddr, netif_ip4_addr(netif), &ethzero,
 468              		.loc 1 1183 10 view .LVU137
 469              	.LBE50:
 470              	.LBE52:
 471              	.LBE54:
 472              	.LBE56:
 758:lwIP/src/core/ipv4/etharp.c ****         arp_table[arp_idx].state = ETHARP_STATE_STABLE_REREQUESTING_1;
 473              		.loc 1 758 10 view .LVU138
 474 009c 0028     		cmp	r0, #0
 475 009e C7D1     		bne	.L20
 476 00a0 E8E7     		b	.L24
 477              	.L29:
 478 00a2 00BF     		.align	2
 479              	.L28:
 480 00a4 00000000 		.word	.LANCHOR0
 481 00a8 00000000 		.word	ethzero
 482 00ac 00000000 		.word	.LC3
 483 00b0 00000000 		.word	ethbroadcast
 484              		.cfi_endproc
 485              	.LFE113:
 487              		.section	.rodata.etharp_find_entry.isra.0.str1.4,"aMS",%progbits,1
 488              		.align	2
 489              	.LC4:
 490 0000 6172705F 		.ascii	"arp_table[i].q == NULL\000"
 490      7461626C 
 490      655B695D 
 490      2E71203D 
 490      3D204E55 
 491 0017 00       		.align	2
 492              	.LC5:
 493 0018 6172705F 		.ascii	"arp_table[i].state == ETHARP_STATE_EMPTY\000"
 493      7461626C 
 493      655B695D 
 493      2E737461 
 493      7465203D 
ARM GAS  /tmp/cctR0i1S.s 			page 49


 494              		.section	.text.etharp_find_entry.isra.0,"ax",%progbits
 495              		.align	1
 496              		.p2align 2,,3
 497              		.syntax unified
 498              		.thumb
 499              		.thumb_func
 500              		.fpu fpv4-sp-d16
 502              	etharp_find_entry.isra.0:
 503              	.LVL38:
 504              	.LFB119:
 256:lwIP/src/core/ipv4/etharp.c **** {
 505              		.loc 1 256 1 is_stmt 1 view -0
 506              		.cfi_startproc
 507              		@ args = 0, pretend = 0, frame = 0
 508              		@ frame_needed = 0, uses_anonymous_args = 0
 283:lwIP/src/core/ipv4/etharp.c ****     u8_t state = arp_table[i].state;
 509              		.loc 1 283 15 view .LVU140
 256:lwIP/src/core/ipv4/etharp.c **** {
 510              		.loc 1 256 1 is_stmt 0 view .LVU141
 511 0000 2DE9F84F 		push	{r3, r4, r5, r6, r7, r8, r9, r10, fp, lr}
 512              	.LCFI8:
 513              		.cfi_def_cfa_offset 40
 514              		.cfi_offset 3, -40
 515              		.cfi_offset 4, -36
 516              		.cfi_offset 5, -32
 517              		.cfi_offset 6, -28
 518              		.cfi_offset 7, -24
 519              		.cfi_offset 8, -20
 520              		.cfi_offset 9, -16
 521              		.cfi_offset 10, -12
 522              		.cfi_offset 11, -8
 523              		.cfi_offset 14, -4
 524              	.LBB57:
 284:lwIP/src/core/ipv4/etharp.c ****     /* no empty entry found yet and now we do find one? */
 525              		.loc 1 284 10 view .LVU142
 526 0004 944C     		ldr	r4, .L360
 527 0006 8346     		mov	fp, r0
 528              	.LBE57:
 256:lwIP/src/core/ipv4/etharp.c **** {
 529              		.loc 1 256 1 view .LVU143
 530 0008 8946     		mov	r9, r1
 531              	.LBB58:
 284:lwIP/src/core/ipv4/etharp.c ****     /* no empty entry found yet and now we do find one? */
 532              		.loc 1 284 10 view .LVU144
 533 000a 237D     		ldrb	r3, [r4, #20]	@ zero_extendqisi2
 534 000c 0028     		cmp	r0, #0
 535 000e 00F0D681 		beq	.L335
 284:lwIP/src/core/ipv4/etharp.c ****     /* no empty entry found yet and now we do find one? */
 536              		.loc 1 284 5 is_stmt 1 view .LVU145
 537              	.LVL39:
 286:lwIP/src/core/ipv4/etharp.c ****       LWIP_DEBUGF(ETHARP_DEBUG, ("etharp_find_entry: found empty entry %d\n", (int)i));
 538              		.loc 1 286 5 view .LVU146
 286:lwIP/src/core/ipv4/etharp.c ****       LWIP_DEBUGF(ETHARP_DEBUG, ("etharp_find_entry: found empty entry %d\n", (int)i));
 539              		.loc 1 286 8 is_stmt 0 view .LVU147
 540 0012 002B     		cmp	r3, #0
 541 0014 00F08280 		beq	.L81
 290:lwIP/src/core/ipv4/etharp.c ****       LWIP_ASSERT("state == ETHARP_STATE_PENDING || state >= ETHARP_STATE_STABLE",
ARM GAS  /tmp/cctR0i1S.s 			page 50


 542              		.loc 1 290 12 is_stmt 1 view .LVU148
 291:lwIP/src/core/ipv4/etharp.c ****                   state == ETHARP_STATE_PENDING || state >= ETHARP_STATE_STABLE);
 543              		.loc 1 291 7 view .LVU149
 291:lwIP/src/core/ipv4/etharp.c ****                   state == ETHARP_STATE_PENDING || state >= ETHARP_STATE_STABLE);
 544              		.loc 1 291 7 view .LVU150
 291:lwIP/src/core/ipv4/etharp.c ****                   state == ETHARP_STATE_PENDING || state >= ETHARP_STATE_STABLE);
 545              		.loc 1 291 7 view .LVU151
 294:lwIP/src/core/ipv4/etharp.c **** #if ETHARP_TABLE_MATCH_NETIF
 546              		.loc 1 294 7 view .LVU152
 294:lwIP/src/core/ipv4/etharp.c **** #if ETHARP_TABLE_MATCH_NETIF
 547              		.loc 1 294 18 is_stmt 0 view .LVU153
 548 0018 0168     		ldr	r1, [r0]
 549              	.LVL40:
 294:lwIP/src/core/ipv4/etharp.c **** #if ETHARP_TABLE_MATCH_NETIF
 550              		.loc 1 294 18 view .LVU154
 551 001a 6268     		ldr	r2, [r4, #4]
 552 001c 9142     		cmp	r1, r2
 553 001e 00F0BA82 		beq	.L187
 304:lwIP/src/core/ipv4/etharp.c ****         /* pending with queued packets? */
 554              		.loc 1 304 7 is_stmt 1 view .LVU155
 304:lwIP/src/core/ipv4/etharp.c ****         /* pending with queued packets? */
 555              		.loc 1 304 10 is_stmt 0 view .LVU156
 556 0022 012B     		cmp	r3, #1
 557 0024 B4F812C0 		ldrh	ip, [r4, #18]
 558 0028 00F06E82 		beq	.L336
 559 002c E646     		mov	lr, ip
 560              	.LBE58:
 262:lwIP/src/core/ipv4/etharp.c ****   /* its age */
 561              		.loc 1 262 9 view .LVU157
 562 002e 0A23     		movs	r3, #10
 563              	.LVL41:
 264:lwIP/src/core/ipv4/etharp.c **** 
 564              		.loc 1 264 24 view .LVU158
 565 0030 4FF0000C 		mov	ip, #0
 258:lwIP/src/core/ipv4/etharp.c ****   s16_t empty = ARP_TABLE_SIZE;
 566              		.loc 1 258 9 view .LVU159
 567 0034 1A46     		mov	r2, r3
 264:lwIP/src/core/ipv4/etharp.c **** 
 568              		.loc 1 264 9 view .LVU160
 569 0036 E046     		mov	r8, ip
 283:lwIP/src/core/ipv4/etharp.c ****     u8_t state = arp_table[i].state;
 570              		.loc 1 283 10 view .LVU161
 571 0038 6546     		mov	r5, ip
 572              	.L83:
 573              	.LVL42:
 283:lwIP/src/core/ipv4/etharp.c ****     u8_t state = arp_table[i].state;
 574              		.loc 1 283 35 is_stmt 1 view .LVU162
 283:lwIP/src/core/ipv4/etharp.c ****     u8_t state = arp_table[i].state;
 575              		.loc 1 283 15 view .LVU163
 576              	.LBB59:
 284:lwIP/src/core/ipv4/etharp.c ****     /* no empty entry found yet and now we do find one? */
 577              		.loc 1 284 5 view .LVU164
 284:lwIP/src/core/ipv4/etharp.c ****     /* no empty entry found yet and now we do find one? */
 578              		.loc 1 284 10 is_stmt 0 view .LVU165
 579 003a 94F82C10 		ldrb	r1, [r4, #44]	@ zero_extendqisi2
 580              	.LVL43:
 286:lwIP/src/core/ipv4/etharp.c ****       LWIP_DEBUGF(ETHARP_DEBUG, ("etharp_find_entry: found empty entry %d\n", (int)i));
ARM GAS  /tmp/cctR0i1S.s 			page 51


 581              		.loc 1 286 5 is_stmt 1 view .LVU166
 286:lwIP/src/core/ipv4/etharp.c ****       LWIP_DEBUGF(ETHARP_DEBUG, ("etharp_find_entry: found empty entry %d\n", (int)i));
 582              		.loc 1 286 8 is_stmt 0 view .LVU167
 583 003e 0029     		cmp	r1, #0
 584 0040 40F08683 		bne	.L337
 585              	.LVL44:
 286:lwIP/src/core/ipv4/etharp.c ****       LWIP_DEBUGF(ETHARP_DEBUG, ("etharp_find_entry: found empty entry %d\n", (int)i));
 586              		.loc 1 286 8 view .LVU168
 587              	.LBE59:
 283:lwIP/src/core/ipv4/etharp.c ****     u8_t state = arp_table[i].state;
 588              		.loc 1 283 35 is_stmt 1 view .LVU169
 283:lwIP/src/core/ipv4/etharp.c ****     u8_t state = arp_table[i].state;
 589              		.loc 1 283 15 view .LVU170
 590              	.LBB60:
 284:lwIP/src/core/ipv4/etharp.c ****     /* no empty entry found yet and now we do find one? */
 591              		.loc 1 284 5 view .LVU171
 284:lwIP/src/core/ipv4/etharp.c ****     /* no empty entry found yet and now we do find one? */
 592              		.loc 1 284 10 is_stmt 0 view .LVU172
 593 0044 94F84410 		ldrb	r1, [r4, #68]	@ zero_extendqisi2
 594              	.LVL45:
 286:lwIP/src/core/ipv4/etharp.c ****       LWIP_DEBUGF(ETHARP_DEBUG, ("etharp_find_entry: found empty entry %d\n", (int)i));
 595              		.loc 1 286 5 is_stmt 1 view .LVU173
 596              	.LBE60:
 283:lwIP/src/core/ipv4/etharp.c ****     u8_t state = arp_table[i].state;
 597              		.loc 1 283 35 is_stmt 0 view .LVU174
 598 0048 0120     		movs	r0, #1
 599              	.LVL46:
 600              	.L153:
 601              	.LBB61:
 290:lwIP/src/core/ipv4/etharp.c ****       LWIP_ASSERT("state == ETHARP_STATE_PENDING || state >= ETHARP_STATE_STABLE",
 602              		.loc 1 290 12 is_stmt 1 view .LVU175
 290:lwIP/src/core/ipv4/etharp.c ****       LWIP_ASSERT("state == ETHARP_STATE_PENDING || state >= ETHARP_STATE_STABLE",
 603              		.loc 1 290 15 is_stmt 0 view .LVU176
 604 004a 71B1     		cbz	r1, .L90
 605              	.L326:
 291:lwIP/src/core/ipv4/etharp.c ****                   state == ETHARP_STATE_PENDING || state >= ETHARP_STATE_STABLE);
 606              		.loc 1 291 7 is_stmt 1 view .LVU177
 291:lwIP/src/core/ipv4/etharp.c ****                   state == ETHARP_STATE_PENDING || state >= ETHARP_STATE_STABLE);
 607              		.loc 1 291 7 view .LVU178
 291:lwIP/src/core/ipv4/etharp.c ****                   state == ETHARP_STATE_PENDING || state >= ETHARP_STATE_STABLE);
 608              		.loc 1 291 7 view .LVU179
 294:lwIP/src/core/ipv4/etharp.c **** #if ETHARP_TABLE_MATCH_NETIF
 609              		.loc 1 294 7 view .LVU180
 294:lwIP/src/core/ipv4/etharp.c **** #if ETHARP_TABLE_MATCH_NETIF
 610              		.loc 1 294 18 is_stmt 0 view .LVU181
 611 004c DBF80070 		ldr	r7, [fp]
 612 0050 666B     		ldr	r6, [r4, #52]
 613 0052 B742     		cmp	r7, r6
 614 0054 00F06683 		beq	.L191
 304:lwIP/src/core/ipv4/etharp.c ****         /* pending with queued packets? */
 615              		.loc 1 304 7 is_stmt 1 view .LVU182
 304:lwIP/src/core/ipv4/etharp.c ****         /* pending with queued packets? */
 616              		.loc 1 304 10 is_stmt 0 view .LVU183
 617 0058 0129     		cmp	r1, #1
 618 005a B4F84270 		ldrh	r7, [r4, #66]
 619 005e 00F07082 		beq	.L91
 320:lwIP/src/core/ipv4/etharp.c **** #if ETHARP_SUPPORT_STATIC_ENTRIES
ARM GAS  /tmp/cctR0i1S.s 			page 52


 620              		.loc 1 320 14 is_stmt 1 view .LVU184
 327:lwIP/src/core/ipv4/etharp.c ****             old_stable = i;
 621              		.loc 1 327 11 view .LVU185
 327:lwIP/src/core/ipv4/etharp.c ****             old_stable = i;
 622              		.loc 1 327 14 is_stmt 0 view .LVU186
 623 0062 7745     		cmp	r7, lr
 624 0064 01D3     		bcc	.L90
 625 0066 BE46     		mov	lr, r7
 626              	.LBE61:
 283:lwIP/src/core/ipv4/etharp.c ****     u8_t state = arp_table[i].state;
 627              		.loc 1 283 35 view .LVU187
 628 0068 0225     		movs	r5, #2
 629              	.LVL47:
 630              	.L90:
 283:lwIP/src/core/ipv4/etharp.c ****     u8_t state = arp_table[i].state;
 631              		.loc 1 283 35 is_stmt 1 view .LVU188
 283:lwIP/src/core/ipv4/etharp.c ****     u8_t state = arp_table[i].state;
 632              		.loc 1 283 15 view .LVU189
 633              	.LBB62:
 284:lwIP/src/core/ipv4/etharp.c ****     /* no empty entry found yet and now we do find one? */
 634              		.loc 1 284 5 view .LVU190
 286:lwIP/src/core/ipv4/etharp.c ****       LWIP_DEBUGF(ETHARP_DEBUG, ("etharp_find_entry: found empty entry %d\n", (int)i));
 635              		.loc 1 286 8 is_stmt 0 view .LVU191
 636 006a 0A28     		cmp	r0, #10
 284:lwIP/src/core/ipv4/etharp.c ****     /* no empty entry found yet and now we do find one? */
 637              		.loc 1 284 10 view .LVU192
 638 006c 94F85C10 		ldrb	r1, [r4, #92]	@ zero_extendqisi2
 639              	.LVL48:
 286:lwIP/src/core/ipv4/etharp.c ****       LWIP_DEBUGF(ETHARP_DEBUG, ("etharp_find_entry: found empty entry %d\n", (int)i));
 640              		.loc 1 286 5 is_stmt 1 view .LVU193
 286:lwIP/src/core/ipv4/etharp.c ****       LWIP_DEBUGF(ETHARP_DEBUG, ("etharp_find_entry: found empty entry %d\n", (int)i));
 641              		.loc 1 286 8 is_stmt 0 view .LVU194
 642 0070 77D1     		bne	.L152
 286:lwIP/src/core/ipv4/etharp.c ****       LWIP_DEBUGF(ETHARP_DEBUG, ("etharp_find_entry: found empty entry %d\n", (int)i));
 643              		.loc 1 286 8 view .LVU195
 644 0072 0029     		cmp	r1, #0
 645 0074 76D1     		bne	.L327
 646              	.LVL49:
 286:lwIP/src/core/ipv4/etharp.c ****       LWIP_DEBUGF(ETHARP_DEBUG, ("etharp_find_entry: found empty entry %d\n", (int)i));
 647              		.loc 1 286 8 view .LVU196
 648              	.LBE62:
 283:lwIP/src/core/ipv4/etharp.c ****     u8_t state = arp_table[i].state;
 649              		.loc 1 283 35 is_stmt 1 view .LVU197
 283:lwIP/src/core/ipv4/etharp.c ****     u8_t state = arp_table[i].state;
 650              		.loc 1 283 15 view .LVU198
 651              	.LBB63:
 284:lwIP/src/core/ipv4/etharp.c ****     /* no empty entry found yet and now we do find one? */
 652              		.loc 1 284 5 view .LVU199
 284:lwIP/src/core/ipv4/etharp.c ****     /* no empty entry found yet and now we do find one? */
 653              		.loc 1 284 10 is_stmt 0 view .LVU200
 654 0076 94F87410 		ldrb	r1, [r4, #116]	@ zero_extendqisi2
 655              	.LVL50:
 286:lwIP/src/core/ipv4/etharp.c ****       LWIP_DEBUGF(ETHARP_DEBUG, ("etharp_find_entry: found empty entry %d\n", (int)i));
 656              		.loc 1 286 5 is_stmt 1 view .LVU201
 657              	.LBE63:
 283:lwIP/src/core/ipv4/etharp.c ****     u8_t state = arp_table[i].state;
 658              		.loc 1 283 35 is_stmt 0 view .LVU202
ARM GAS  /tmp/cctR0i1S.s 			page 53


 659 007a 0320     		movs	r0, #3
 660              	.LVL51:
 661              	.L151:
 662              	.LBB64:
 290:lwIP/src/core/ipv4/etharp.c ****       LWIP_ASSERT("state == ETHARP_STATE_PENDING || state >= ETHARP_STATE_STABLE",
 663              		.loc 1 290 12 is_stmt 1 view .LVU203
 290:lwIP/src/core/ipv4/etharp.c ****       LWIP_ASSERT("state == ETHARP_STATE_PENDING || state >= ETHARP_STATE_STABLE",
 664              		.loc 1 290 15 is_stmt 0 view .LVU204
 665 007c 71B1     		cbz	r1, .L100
 666              	.L328:
 291:lwIP/src/core/ipv4/etharp.c ****                   state == ETHARP_STATE_PENDING || state >= ETHARP_STATE_STABLE);
 667              		.loc 1 291 7 is_stmt 1 view .LVU205
 291:lwIP/src/core/ipv4/etharp.c ****                   state == ETHARP_STATE_PENDING || state >= ETHARP_STATE_STABLE);
 668              		.loc 1 291 7 view .LVU206
 291:lwIP/src/core/ipv4/etharp.c ****                   state == ETHARP_STATE_PENDING || state >= ETHARP_STATE_STABLE);
 669              		.loc 1 291 7 view .LVU207
 294:lwIP/src/core/ipv4/etharp.c **** #if ETHARP_TABLE_MATCH_NETIF
 670              		.loc 1 294 7 view .LVU208
 294:lwIP/src/core/ipv4/etharp.c **** #if ETHARP_TABLE_MATCH_NETIF
 671              		.loc 1 294 18 is_stmt 0 view .LVU209
 672 007e DBF80070 		ldr	r7, [fp]
 673 0082 666E     		ldr	r6, [r4, #100]
 674 0084 B742     		cmp	r7, r6
 675 0086 00F05583 		beq	.L193
 304:lwIP/src/core/ipv4/etharp.c ****         /* pending with queued packets? */
 676              		.loc 1 304 7 is_stmt 1 view .LVU210
 304:lwIP/src/core/ipv4/etharp.c ****         /* pending with queued packets? */
 677              		.loc 1 304 10 is_stmt 0 view .LVU211
 678 008a 0129     		cmp	r1, #1
 679 008c B4F87270 		ldrh	r7, [r4, #114]
 680 0090 00F04482 		beq	.L101
 320:lwIP/src/core/ipv4/etharp.c **** #if ETHARP_SUPPORT_STATIC_ENTRIES
 681              		.loc 1 320 14 is_stmt 1 view .LVU212
 327:lwIP/src/core/ipv4/etharp.c ****             old_stable = i;
 682              		.loc 1 327 11 view .LVU213
 327:lwIP/src/core/ipv4/etharp.c ****             old_stable = i;
 683              		.loc 1 327 14 is_stmt 0 view .LVU214
 684 0094 7745     		cmp	r7, lr
 685 0096 01D3     		bcc	.L100
 686 0098 BE46     		mov	lr, r7
 687              	.LBE64:
 283:lwIP/src/core/ipv4/etharp.c ****     u8_t state = arp_table[i].state;
 688              		.loc 1 283 35 view .LVU215
 689 009a 0425     		movs	r5, #4
 690              	.LVL52:
 691              	.L100:
 283:lwIP/src/core/ipv4/etharp.c ****     u8_t state = arp_table[i].state;
 692              		.loc 1 283 35 is_stmt 1 view .LVU216
 283:lwIP/src/core/ipv4/etharp.c ****     u8_t state = arp_table[i].state;
 693              		.loc 1 283 15 view .LVU217
 694              	.LBB65:
 284:lwIP/src/core/ipv4/etharp.c ****     /* no empty entry found yet and now we do find one? */
 695              		.loc 1 284 5 view .LVU218
 286:lwIP/src/core/ipv4/etharp.c ****       LWIP_DEBUGF(ETHARP_DEBUG, ("etharp_find_entry: found empty entry %d\n", (int)i));
 696              		.loc 1 286 8 is_stmt 0 view .LVU219
 697 009c 0A28     		cmp	r0, #10
 284:lwIP/src/core/ipv4/etharp.c ****     /* no empty entry found yet and now we do find one? */
ARM GAS  /tmp/cctR0i1S.s 			page 54


 698              		.loc 1 284 10 view .LVU220
 699 009e 94F88C10 		ldrb	r1, [r4, #140]	@ zero_extendqisi2
 700              	.LVL53:
 286:lwIP/src/core/ipv4/etharp.c ****       LWIP_DEBUGF(ETHARP_DEBUG, ("etharp_find_entry: found empty entry %d\n", (int)i));
 701              		.loc 1 286 5 is_stmt 1 view .LVU221
 286:lwIP/src/core/ipv4/etharp.c ****       LWIP_DEBUGF(ETHARP_DEBUG, ("etharp_find_entry: found empty entry %d\n", (int)i));
 702              		.loc 1 286 8 is_stmt 0 view .LVU222
 703 00a2 79D1     		bne	.L150
 286:lwIP/src/core/ipv4/etharp.c ****       LWIP_DEBUGF(ETHARP_DEBUG, ("etharp_find_entry: found empty entry %d\n", (int)i));
 704              		.loc 1 286 8 view .LVU223
 705 00a4 0029     		cmp	r1, #0
 706 00a6 78D1     		bne	.L329
 707              	.LVL54:
 286:lwIP/src/core/ipv4/etharp.c ****       LWIP_DEBUGF(ETHARP_DEBUG, ("etharp_find_entry: found empty entry %d\n", (int)i));
 708              		.loc 1 286 8 view .LVU224
 709              	.LBE65:
 283:lwIP/src/core/ipv4/etharp.c ****     u8_t state = arp_table[i].state;
 710              		.loc 1 283 35 is_stmt 1 view .LVU225
 283:lwIP/src/core/ipv4/etharp.c ****     u8_t state = arp_table[i].state;
 711              		.loc 1 283 15 view .LVU226
 712              	.LBB66:
 284:lwIP/src/core/ipv4/etharp.c ****     /* no empty entry found yet and now we do find one? */
 713              		.loc 1 284 5 view .LVU227
 284:lwIP/src/core/ipv4/etharp.c ****     /* no empty entry found yet and now we do find one? */
 714              		.loc 1 284 10 is_stmt 0 view .LVU228
 715 00a8 94F8A410 		ldrb	r1, [r4, #164]	@ zero_extendqisi2
 716              	.LVL55:
 286:lwIP/src/core/ipv4/etharp.c ****       LWIP_DEBUGF(ETHARP_DEBUG, ("etharp_find_entry: found empty entry %d\n", (int)i));
 717              		.loc 1 286 5 is_stmt 1 view .LVU229
 718              	.LBE66:
 283:lwIP/src/core/ipv4/etharp.c ****     u8_t state = arp_table[i].state;
 719              		.loc 1 283 35 is_stmt 0 view .LVU230
 720 00ac 0520     		movs	r0, #5
 721              	.LVL56:
 722              	.L149:
 723              	.LBB67:
 290:lwIP/src/core/ipv4/etharp.c ****       LWIP_ASSERT("state == ETHARP_STATE_PENDING || state >= ETHARP_STATE_STABLE",
 724              		.loc 1 290 12 is_stmt 1 view .LVU231
 290:lwIP/src/core/ipv4/etharp.c ****       LWIP_ASSERT("state == ETHARP_STATE_PENDING || state >= ETHARP_STATE_STABLE",
 725              		.loc 1 290 15 is_stmt 0 view .LVU232
 726 00ae 79B1     		cbz	r1, .L110
 727              	.L330:
 291:lwIP/src/core/ipv4/etharp.c ****                   state == ETHARP_STATE_PENDING || state >= ETHARP_STATE_STABLE);
 728              		.loc 1 291 7 is_stmt 1 view .LVU233
 291:lwIP/src/core/ipv4/etharp.c ****                   state == ETHARP_STATE_PENDING || state >= ETHARP_STATE_STABLE);
 729              		.loc 1 291 7 view .LVU234
 291:lwIP/src/core/ipv4/etharp.c ****                   state == ETHARP_STATE_PENDING || state >= ETHARP_STATE_STABLE);
 730              		.loc 1 291 7 view .LVU235
 294:lwIP/src/core/ipv4/etharp.c **** #if ETHARP_TABLE_MATCH_NETIF
 731              		.loc 1 294 7 view .LVU236
 294:lwIP/src/core/ipv4/etharp.c **** #if ETHARP_TABLE_MATCH_NETIF
 732              		.loc 1 294 18 is_stmt 0 view .LVU237
 733 00b0 DBF80070 		ldr	r7, [fp]
 734 00b4 D4F89460 		ldr	r6, [r4, #148]
 735 00b8 B742     		cmp	r7, r6
 736 00ba 00F03583 		beq	.L195
 304:lwIP/src/core/ipv4/etharp.c ****         /* pending with queued packets? */
ARM GAS  /tmp/cctR0i1S.s 			page 55


 737              		.loc 1 304 7 is_stmt 1 view .LVU238
 304:lwIP/src/core/ipv4/etharp.c ****         /* pending with queued packets? */
 738              		.loc 1 304 10 is_stmt 0 view .LVU239
 739 00be 0129     		cmp	r1, #1
 740 00c0 B4F8A270 		ldrh	r7, [r4, #162]
 741 00c4 00F03382 		beq	.L111
 320:lwIP/src/core/ipv4/etharp.c **** #if ETHARP_SUPPORT_STATIC_ENTRIES
 742              		.loc 1 320 14 is_stmt 1 view .LVU240
 327:lwIP/src/core/ipv4/etharp.c ****             old_stable = i;
 743              		.loc 1 327 11 view .LVU241
 327:lwIP/src/core/ipv4/etharp.c ****             old_stable = i;
 744              		.loc 1 327 14 is_stmt 0 view .LVU242
 745 00c8 7745     		cmp	r7, lr
 746 00ca 01D3     		bcc	.L110
 747 00cc BE46     		mov	lr, r7
 748              	.LBE67:
 283:lwIP/src/core/ipv4/etharp.c ****     u8_t state = arp_table[i].state;
 749              		.loc 1 283 35 view .LVU243
 750 00ce 0625     		movs	r5, #6
 751              	.LVL57:
 752              	.L110:
 283:lwIP/src/core/ipv4/etharp.c ****     u8_t state = arp_table[i].state;
 753              		.loc 1 283 35 is_stmt 1 view .LVU244
 283:lwIP/src/core/ipv4/etharp.c ****     u8_t state = arp_table[i].state;
 754              		.loc 1 283 15 view .LVU245
 755              	.LBB68:
 284:lwIP/src/core/ipv4/etharp.c ****     /* no empty entry found yet and now we do find one? */
 756              		.loc 1 284 5 view .LVU246
 286:lwIP/src/core/ipv4/etharp.c ****       LWIP_DEBUGF(ETHARP_DEBUG, ("etharp_find_entry: found empty entry %d\n", (int)i));
 757              		.loc 1 286 8 is_stmt 0 view .LVU247
 758 00d0 0A28     		cmp	r0, #10
 284:lwIP/src/core/ipv4/etharp.c ****     /* no empty entry found yet and now we do find one? */
 759              		.loc 1 284 10 view .LVU248
 760 00d2 94F8BC10 		ldrb	r1, [r4, #188]	@ zero_extendqisi2
 761              	.LVL58:
 286:lwIP/src/core/ipv4/etharp.c ****       LWIP_DEBUGF(ETHARP_DEBUG, ("etharp_find_entry: found empty entry %d\n", (int)i));
 762              		.loc 1 286 5 is_stmt 1 view .LVU249
 286:lwIP/src/core/ipv4/etharp.c ****       LWIP_DEBUGF(ETHARP_DEBUG, ("etharp_find_entry: found empty entry %d\n", (int)i));
 763              		.loc 1 286 8 is_stmt 0 view .LVU250
 764 00d6 7AD1     		bne	.L148
 286:lwIP/src/core/ipv4/etharp.c ****       LWIP_DEBUGF(ETHARP_DEBUG, ("etharp_find_entry: found empty entry %d\n", (int)i));
 765              		.loc 1 286 8 view .LVU251
 766 00d8 0029     		cmp	r1, #0
 767 00da 79D1     		bne	.L331
 768              	.LVL59:
 286:lwIP/src/core/ipv4/etharp.c ****       LWIP_DEBUGF(ETHARP_DEBUG, ("etharp_find_entry: found empty entry %d\n", (int)i));
 769              		.loc 1 286 8 view .LVU252
 770              	.LBE68:
 283:lwIP/src/core/ipv4/etharp.c ****     u8_t state = arp_table[i].state;
 771              		.loc 1 283 35 is_stmt 1 view .LVU253
 283:lwIP/src/core/ipv4/etharp.c ****     u8_t state = arp_table[i].state;
 772              		.loc 1 283 15 view .LVU254
 773              	.LBB69:
 284:lwIP/src/core/ipv4/etharp.c ****     /* no empty entry found yet and now we do find one? */
 774              		.loc 1 284 5 view .LVU255
 284:lwIP/src/core/ipv4/etharp.c ****     /* no empty entry found yet and now we do find one? */
 775              		.loc 1 284 10 is_stmt 0 view .LVU256
ARM GAS  /tmp/cctR0i1S.s 			page 56


 776 00dc 94F8D410 		ldrb	r1, [r4, #212]	@ zero_extendqisi2
 777              	.LVL60:
 286:lwIP/src/core/ipv4/etharp.c ****       LWIP_DEBUGF(ETHARP_DEBUG, ("etharp_find_entry: found empty entry %d\n", (int)i));
 778              		.loc 1 286 5 is_stmt 1 view .LVU257
 779              	.LBE69:
 283:lwIP/src/core/ipv4/etharp.c ****     u8_t state = arp_table[i].state;
 780              		.loc 1 283 35 is_stmt 0 view .LVU258
 781 00e0 0720     		movs	r0, #7
 782              	.LVL61:
 783              	.L147:
 784              	.LBB70:
 290:lwIP/src/core/ipv4/etharp.c ****       LWIP_ASSERT("state == ETHARP_STATE_PENDING || state >= ETHARP_STATE_STABLE",
 785              		.loc 1 290 12 is_stmt 1 view .LVU259
 290:lwIP/src/core/ipv4/etharp.c ****       LWIP_ASSERT("state == ETHARP_STATE_PENDING || state >= ETHARP_STATE_STABLE",
 786              		.loc 1 290 15 is_stmt 0 view .LVU260
 787 00e2 0029     		cmp	r1, #0
 788 00e4 40F07781 		bne	.L332
 789              	.LVL62:
 790              	.L120:
 290:lwIP/src/core/ipv4/etharp.c ****       LWIP_ASSERT("state == ETHARP_STATE_PENDING || state >= ETHARP_STATE_STABLE",
 791              		.loc 1 290 15 view .LVU261
 792              	.LBE70:
 283:lwIP/src/core/ipv4/etharp.c ****     u8_t state = arp_table[i].state;
 793              		.loc 1 283 35 is_stmt 1 view .LVU262
 283:lwIP/src/core/ipv4/etharp.c ****     u8_t state = arp_table[i].state;
 794              		.loc 1 283 15 view .LVU263
 795              	.LBB71:
 284:lwIP/src/core/ipv4/etharp.c ****     /* no empty entry found yet and now we do find one? */
 796              		.loc 1 284 5 view .LVU264
 286:lwIP/src/core/ipv4/etharp.c ****       LWIP_DEBUGF(ETHARP_DEBUG, ("etharp_find_entry: found empty entry %d\n", (int)i));
 797              		.loc 1 286 8 is_stmt 0 view .LVU265
 798 00e8 0A28     		cmp	r0, #10
 284:lwIP/src/core/ipv4/etharp.c ****     /* no empty entry found yet and now we do find one? */
 799              		.loc 1 284 10 view .LVU266
 800 00ea 94F8EC10 		ldrb	r1, [r4, #236]	@ zero_extendqisi2
 801              	.LVL63:
 286:lwIP/src/core/ipv4/etharp.c ****       LWIP_DEBUGF(ETHARP_DEBUG, ("etharp_find_entry: found empty entry %d\n", (int)i));
 802              		.loc 1 286 5 is_stmt 1 view .LVU267
 286:lwIP/src/core/ipv4/etharp.c ****       LWIP_DEBUGF(ETHARP_DEBUG, ("etharp_find_entry: found empty entry %d\n", (int)i));
 803              		.loc 1 286 8 is_stmt 0 view .LVU268
 804 00ee 40F08A80 		bne	.L123
 286:lwIP/src/core/ipv4/etharp.c ****       LWIP_DEBUGF(ETHARP_DEBUG, ("etharp_find_entry: found empty entry %d\n", (int)i));
 805              		.loc 1 286 8 view .LVU269
 806 00f2 0029     		cmp	r1, #0
 807 00f4 40F08A80 		bne	.L333
 808              	.LVL64:
 286:lwIP/src/core/ipv4/etharp.c ****       LWIP_DEBUGF(ETHARP_DEBUG, ("etharp_find_entry: found empty entry %d\n", (int)i));
 809              		.loc 1 286 8 view .LVU270
 810              	.LBE71:
 283:lwIP/src/core/ipv4/etharp.c ****     u8_t state = arp_table[i].state;
 811              		.loc 1 283 35 is_stmt 1 view .LVU271
 283:lwIP/src/core/ipv4/etharp.c ****     u8_t state = arp_table[i].state;
 812              		.loc 1 283 15 view .LVU272
 338:lwIP/src/core/ipv4/etharp.c ****       /* or no empty entry found and not allowed to recycle? */
 813              		.loc 1 338 3 view .LVU273
 338:lwIP/src/core/ipv4/etharp.c ****       /* or no empty entry found and not allowed to recycle? */
 814              		.loc 1 338 6 is_stmt 0 view .LVU274
ARM GAS  /tmp/cctR0i1S.s 			page 57


 815 00f8 B9F1010F 		cmp	r9, #1
 816 00fc 40F05182 		bne	.L201
 283:lwIP/src/core/ipv4/etharp.c ****     u8_t state = arp_table[i].state;
 817              		.loc 1 283 35 view .LVU275
 818 0100 0920     		movs	r0, #9
 819              	.LVL65:
 820              	.L124:
 387:lwIP/src/core/ipv4/etharp.c ****   LWIP_ASSERT("arp_table[i].state == ETHARP_STATE_EMPTY",
 821              		.loc 1 387 3 is_stmt 1 view .LVU276
 387:lwIP/src/core/ipv4/etharp.c ****   LWIP_ASSERT("arp_table[i].state == ETHARP_STATE_EMPTY",
 822              		.loc 1 387 3 view .LVU277
 387:lwIP/src/core/ipv4/etharp.c ****   LWIP_ASSERT("arp_table[i].state == ETHARP_STATE_EMPTY",
 823              		.loc 1 387 3 view .LVU278
 388:lwIP/src/core/ipv4/etharp.c ****               arp_table[i].state == ETHARP_STATE_EMPTY);
 824              		.loc 1 388 3 view .LVU279
 388:lwIP/src/core/ipv4/etharp.c ****               arp_table[i].state == ETHARP_STATE_EMPTY);
 825              		.loc 1 388 3 view .LVU280
 826 0102 00EB4003 		add	r3, r0, r0, lsl #1
 827 0106 0746     		mov	r7, r0
 828 0108 04EBC303 		add	r3, r4, r3, lsl #3
 829 010c 1B7D     		ldrb	r3, [r3, #20]	@ zero_extendqisi2
 830 010e 002B     		cmp	r3, #0
 831 0110 00F04681 		beq	.L155
 832              	.LVL66:
 833              	.L137:
 388:lwIP/src/core/ipv4/etharp.c ****               arp_table[i].state == ETHARP_STATE_EMPTY);
 834              		.loc 1 388 3 view .LVU281
 835 0114 5148     		ldr	r0, .L360+4
 836              	.LVL67:
 388:lwIP/src/core/ipv4/etharp.c ****               arp_table[i].state == ETHARP_STATE_EMPTY);
 837              		.loc 1 388 3 is_stmt 0 view .LVU282
 838 0116 FFF7FEFF 		bl	printf
 839              	.LVL68:
 840              	.L135:
 388:lwIP/src/core/ipv4/etharp.c ****               arp_table[i].state == ETHARP_STATE_EMPTY);
 841              		.loc 1 388 3 is_stmt 1 view .LVU283
 388:lwIP/src/core/ipv4/etharp.c ****               arp_table[i].state == ETHARP_STATE_EMPTY);
 842              		.loc 1 388 3 view .LVU284
 388:lwIP/src/core/ipv4/etharp.c ****               arp_table[i].state == ETHARP_STATE_EMPTY);
 843              		.loc 1 388 3 view .LVU285
 388:lwIP/src/core/ipv4/etharp.c ****               arp_table[i].state == ETHARP_STATE_EMPTY);
 844              		.loc 1 388 3 view .LVU286
 388:lwIP/src/core/ipv4/etharp.c ****               arp_table[i].state == ETHARP_STATE_EMPTY);
 845              		.loc 1 388 3 view .LVU287
 388:lwIP/src/core/ipv4/etharp.c ****               arp_table[i].state == ETHARP_STATE_EMPTY);
 846              		.loc 1 388 3 view .LVU288
 847 011a FEE7     		b	.L135
 848              	.LVL69:
 849              	.L81:
 283:lwIP/src/core/ipv4/etharp.c ****     u8_t state = arp_table[i].state;
 850              		.loc 1 283 35 view .LVU289
 283:lwIP/src/core/ipv4/etharp.c ****     u8_t state = arp_table[i].state;
 851              		.loc 1 283 15 view .LVU290
 852              	.LBB72:
 284:lwIP/src/core/ipv4/etharp.c ****     /* no empty entry found yet and now we do find one? */
 853              		.loc 1 284 5 view .LVU291
 854              	.LBE72:
ARM GAS  /tmp/cctR0i1S.s 			page 58


 264:lwIP/src/core/ipv4/etharp.c **** 
 855              		.loc 1 264 41 is_stmt 0 view .LVU292
 856 011c 9E46     		mov	lr, r3
 857              	.LBB73:
 284:lwIP/src/core/ipv4/etharp.c ****     /* no empty entry found yet and now we do find one? */
 858              		.loc 1 284 10 view .LVU293
 859 011e 94F82C10 		ldrb	r1, [r4, #44]	@ zero_extendqisi2
 860              	.LVL70:
 286:lwIP/src/core/ipv4/etharp.c ****       LWIP_DEBUGF(ETHARP_DEBUG, ("etharp_find_entry: found empty entry %d\n", (int)i));
 861              		.loc 1 286 5 is_stmt 1 view .LVU294
 862              	.LBE73:
 262:lwIP/src/core/ipv4/etharp.c ****   /* its age */
 863              		.loc 1 262 9 is_stmt 0 view .LVU295
 864 0122 0A23     		movs	r3, #10
 264:lwIP/src/core/ipv4/etharp.c **** 
 865              		.loc 1 264 24 view .LVU296
 866 0124 F046     		mov	r8, lr
 264:lwIP/src/core/ipv4/etharp.c **** 
 867              		.loc 1 264 9 view .LVU297
 868 0126 F446     		mov	ip, lr
 283:lwIP/src/core/ipv4/etharp.c ****     u8_t state = arp_table[i].state;
 869              		.loc 1 283 10 view .LVU298
 870 0128 7046     		mov	r0, lr
 871              	.LVL71:
 258:lwIP/src/core/ipv4/etharp.c ****   s16_t empty = ARP_TABLE_SIZE;
 872              		.loc 1 258 39 view .LVU299
 873 012a 1D46     		mov	r5, r3
 874              	.LVL72:
 875              	.LBB74:
 290:lwIP/src/core/ipv4/etharp.c ****       LWIP_ASSERT("state == ETHARP_STATE_PENDING || state >= ETHARP_STATE_STABLE",
 876              		.loc 1 290 12 is_stmt 1 view .LVU300
 877              	.LBE74:
 258:lwIP/src/core/ipv4/etharp.c ****   s16_t empty = ARP_TABLE_SIZE;
 878              		.loc 1 258 9 is_stmt 0 view .LVU301
 879 012c 1A46     		mov	r2, r3
 880              	.LBB75:
 290:lwIP/src/core/ipv4/etharp.c ****       LWIP_ASSERT("state == ETHARP_STATE_PENDING || state >= ETHARP_STATE_STABLE",
 881              		.loc 1 290 15 view .LVU302
 882 012e 69B1     		cbz	r1, .L85
 883              	.LVL73:
 884              	.L359:
 291:lwIP/src/core/ipv4/etharp.c ****                   state == ETHARP_STATE_PENDING || state >= ETHARP_STATE_STABLE);
 885              		.loc 1 291 7 is_stmt 1 view .LVU303
 291:lwIP/src/core/ipv4/etharp.c ****                   state == ETHARP_STATE_PENDING || state >= ETHARP_STATE_STABLE);
 886              		.loc 1 291 7 view .LVU304
 291:lwIP/src/core/ipv4/etharp.c ****                   state == ETHARP_STATE_PENDING || state >= ETHARP_STATE_STABLE);
 887              		.loc 1 291 7 view .LVU305
 294:lwIP/src/core/ipv4/etharp.c **** #if ETHARP_TABLE_MATCH_NETIF
 888              		.loc 1 294 7 view .LVU306
 294:lwIP/src/core/ipv4/etharp.c **** #if ETHARP_TABLE_MATCH_NETIF
 889              		.loc 1 294 18 is_stmt 0 view .LVU307
 890 0130 DBF80070 		ldr	r7, [fp]
 891 0134 E669     		ldr	r6, [r4, #28]
 892 0136 B742     		cmp	r7, r6
 893 0138 00F00883 		beq	.L190
 304:lwIP/src/core/ipv4/etharp.c ****         /* pending with queued packets? */
 894              		.loc 1 304 7 is_stmt 1 view .LVU308
ARM GAS  /tmp/cctR0i1S.s 			page 59


 304:lwIP/src/core/ipv4/etharp.c ****         /* pending with queued packets? */
 895              		.loc 1 304 10 is_stmt 0 view .LVU309
 896 013c 0129     		cmp	r1, #1
 897 013e 678D     		ldrh	r7, [r4, #42]
 898 0140 00F01182 		beq	.L86
 320:lwIP/src/core/ipv4/etharp.c **** #if ETHARP_SUPPORT_STATIC_ENTRIES
 899              		.loc 1 320 14 is_stmt 1 view .LVU310
 327:lwIP/src/core/ipv4/etharp.c ****             old_stable = i;
 900              		.loc 1 327 11 view .LVU311
 327:lwIP/src/core/ipv4/etharp.c ****             old_stable = i;
 901              		.loc 1 327 14 is_stmt 0 view .LVU312
 902 0144 7745     		cmp	r7, lr
 903 0146 01D3     		bcc	.L85
 904 0148 BE46     		mov	lr, r7
 905              	.LBE75:
 283:lwIP/src/core/ipv4/etharp.c ****     u8_t state = arp_table[i].state;
 906              		.loc 1 283 35 view .LVU313
 907 014a 0125     		movs	r5, #1
 908              	.L85:
 283:lwIP/src/core/ipv4/etharp.c ****     u8_t state = arp_table[i].state;
 909              		.loc 1 283 35 is_stmt 1 view .LVU314
 910              	.LVL74:
 283:lwIP/src/core/ipv4/etharp.c ****     u8_t state = arp_table[i].state;
 911              		.loc 1 283 15 view .LVU315
 912              	.LBB76:
 284:lwIP/src/core/ipv4/etharp.c ****     /* no empty entry found yet and now we do find one? */
 913              		.loc 1 284 5 view .LVU316
 286:lwIP/src/core/ipv4/etharp.c ****       LWIP_DEBUGF(ETHARP_DEBUG, ("etharp_find_entry: found empty entry %d\n", (int)i));
 914              		.loc 1 286 8 is_stmt 0 view .LVU317
 915 014c 0A28     		cmp	r0, #10
 284:lwIP/src/core/ipv4/etharp.c ****     /* no empty entry found yet and now we do find one? */
 916              		.loc 1 284 10 view .LVU318
 917 014e 94F84410 		ldrb	r1, [r4, #68]	@ zero_extendqisi2
 918              	.LVL75:
 286:lwIP/src/core/ipv4/etharp.c ****       LWIP_DEBUGF(ETHARP_DEBUG, ("etharp_find_entry: found empty entry %d\n", (int)i));
 919              		.loc 1 286 5 is_stmt 1 view .LVU319
 286:lwIP/src/core/ipv4/etharp.c ****       LWIP_DEBUGF(ETHARP_DEBUG, ("etharp_find_entry: found empty entry %d\n", (int)i));
 920              		.loc 1 286 8 is_stmt 0 view .LVU320
 921 0152 7FF47AAF 		bne	.L153
 286:lwIP/src/core/ipv4/etharp.c ****       LWIP_DEBUGF(ETHARP_DEBUG, ("etharp_find_entry: found empty entry %d\n", (int)i));
 922              		.loc 1 286 8 view .LVU321
 923 0156 0029     		cmp	r1, #0
 924 0158 7FF478AF 		bne	.L326
 925              	.LVL76:
 286:lwIP/src/core/ipv4/etharp.c ****       LWIP_DEBUGF(ETHARP_DEBUG, ("etharp_find_entry: found empty entry %d\n", (int)i));
 926              		.loc 1 286 8 view .LVU322
 927              	.LBE76:
 283:lwIP/src/core/ipv4/etharp.c ****     u8_t state = arp_table[i].state;
 928              		.loc 1 283 35 is_stmt 1 view .LVU323
 283:lwIP/src/core/ipv4/etharp.c ****     u8_t state = arp_table[i].state;
 929              		.loc 1 283 15 view .LVU324
 930              	.LBB77:
 284:lwIP/src/core/ipv4/etharp.c ****     /* no empty entry found yet and now we do find one? */
 931              		.loc 1 284 5 view .LVU325
 284:lwIP/src/core/ipv4/etharp.c ****     /* no empty entry found yet and now we do find one? */
 932              		.loc 1 284 10 is_stmt 0 view .LVU326
 933 015c 94F85C10 		ldrb	r1, [r4, #92]	@ zero_extendqisi2
ARM GAS  /tmp/cctR0i1S.s 			page 60


 934              	.LVL77:
 286:lwIP/src/core/ipv4/etharp.c ****       LWIP_DEBUGF(ETHARP_DEBUG, ("etharp_find_entry: found empty entry %d\n", (int)i));
 935              		.loc 1 286 5 is_stmt 1 view .LVU327
 936              	.LBE77:
 283:lwIP/src/core/ipv4/etharp.c ****     u8_t state = arp_table[i].state;
 937              		.loc 1 283 35 is_stmt 0 view .LVU328
 938 0160 0220     		movs	r0, #2
 939              	.LVL78:
 940              	.L152:
 941              	.LBB78:
 290:lwIP/src/core/ipv4/etharp.c ****       LWIP_ASSERT("state == ETHARP_STATE_PENDING || state >= ETHARP_STATE_STABLE",
 942              		.loc 1 290 12 is_stmt 1 view .LVU329
 290:lwIP/src/core/ipv4/etharp.c ****       LWIP_ASSERT("state == ETHARP_STATE_PENDING || state >= ETHARP_STATE_STABLE",
 943              		.loc 1 290 15 is_stmt 0 view .LVU330
 944 0162 71B1     		cbz	r1, .L95
 945              	.L327:
 291:lwIP/src/core/ipv4/etharp.c ****                   state == ETHARP_STATE_PENDING || state >= ETHARP_STATE_STABLE);
 946              		.loc 1 291 7 is_stmt 1 view .LVU331
 291:lwIP/src/core/ipv4/etharp.c ****                   state == ETHARP_STATE_PENDING || state >= ETHARP_STATE_STABLE);
 947              		.loc 1 291 7 view .LVU332
 291:lwIP/src/core/ipv4/etharp.c ****                   state == ETHARP_STATE_PENDING || state >= ETHARP_STATE_STABLE);
 948              		.loc 1 291 7 view .LVU333
 294:lwIP/src/core/ipv4/etharp.c **** #if ETHARP_TABLE_MATCH_NETIF
 949              		.loc 1 294 7 view .LVU334
 294:lwIP/src/core/ipv4/etharp.c **** #if ETHARP_TABLE_MATCH_NETIF
 950              		.loc 1 294 18 is_stmt 0 view .LVU335
 951 0164 DBF80070 		ldr	r7, [fp]
 952 0168 E66C     		ldr	r6, [r4, #76]
 953 016a B742     		cmp	r7, r6
 954 016c 00F0E082 		beq	.L192
 304:lwIP/src/core/ipv4/etharp.c ****         /* pending with queued packets? */
 955              		.loc 1 304 7 is_stmt 1 view .LVU336
 304:lwIP/src/core/ipv4/etharp.c ****         /* pending with queued packets? */
 956              		.loc 1 304 10 is_stmt 0 view .LVU337
 957 0170 0129     		cmp	r1, #1
 958 0172 B4F85A70 		ldrh	r7, [r4, #90]
 959 0176 00F0ED81 		beq	.L96
 320:lwIP/src/core/ipv4/etharp.c **** #if ETHARP_SUPPORT_STATIC_ENTRIES
 960              		.loc 1 320 14 is_stmt 1 view .LVU338
 327:lwIP/src/core/ipv4/etharp.c ****             old_stable = i;
 961              		.loc 1 327 11 view .LVU339
 327:lwIP/src/core/ipv4/etharp.c ****             old_stable = i;
 962              		.loc 1 327 14 is_stmt 0 view .LVU340
 963 017a 7745     		cmp	r7, lr
 964 017c 01D3     		bcc	.L95
 965 017e BE46     		mov	lr, r7
 966              	.LBE78:
 283:lwIP/src/core/ipv4/etharp.c ****     u8_t state = arp_table[i].state;
 967              		.loc 1 283 35 view .LVU341
 968 0180 0325     		movs	r5, #3
 969              	.LVL79:
 970              	.L95:
 283:lwIP/src/core/ipv4/etharp.c ****     u8_t state = arp_table[i].state;
 971              		.loc 1 283 35 is_stmt 1 view .LVU342
 283:lwIP/src/core/ipv4/etharp.c ****     u8_t state = arp_table[i].state;
 972              		.loc 1 283 15 view .LVU343
 973              	.LBB79:
ARM GAS  /tmp/cctR0i1S.s 			page 61


 284:lwIP/src/core/ipv4/etharp.c ****     /* no empty entry found yet and now we do find one? */
 974              		.loc 1 284 5 view .LVU344
 286:lwIP/src/core/ipv4/etharp.c ****       LWIP_DEBUGF(ETHARP_DEBUG, ("etharp_find_entry: found empty entry %d\n", (int)i));
 975              		.loc 1 286 8 is_stmt 0 view .LVU345
 976 0182 0A28     		cmp	r0, #10
 284:lwIP/src/core/ipv4/etharp.c ****     /* no empty entry found yet and now we do find one? */
 977              		.loc 1 284 10 view .LVU346
 978 0184 94F87410 		ldrb	r1, [r4, #116]	@ zero_extendqisi2
 979              	.LVL80:
 286:lwIP/src/core/ipv4/etharp.c ****       LWIP_DEBUGF(ETHARP_DEBUG, ("etharp_find_entry: found empty entry %d\n", (int)i));
 980              		.loc 1 286 5 is_stmt 1 view .LVU347
 286:lwIP/src/core/ipv4/etharp.c ****       LWIP_DEBUGF(ETHARP_DEBUG, ("etharp_find_entry: found empty entry %d\n", (int)i));
 981              		.loc 1 286 8 is_stmt 0 view .LVU348
 982 0188 7FF478AF 		bne	.L151
 286:lwIP/src/core/ipv4/etharp.c ****       LWIP_DEBUGF(ETHARP_DEBUG, ("etharp_find_entry: found empty entry %d\n", (int)i));
 983              		.loc 1 286 8 view .LVU349
 984 018c 0029     		cmp	r1, #0
 985 018e 7FF476AF 		bne	.L328
 986              	.LVL81:
 286:lwIP/src/core/ipv4/etharp.c ****       LWIP_DEBUGF(ETHARP_DEBUG, ("etharp_find_entry: found empty entry %d\n", (int)i));
 987              		.loc 1 286 8 view .LVU350
 988              	.LBE79:
 283:lwIP/src/core/ipv4/etharp.c ****     u8_t state = arp_table[i].state;
 989              		.loc 1 283 35 is_stmt 1 view .LVU351
 283:lwIP/src/core/ipv4/etharp.c ****     u8_t state = arp_table[i].state;
 990              		.loc 1 283 15 view .LVU352
 991              	.LBB80:
 284:lwIP/src/core/ipv4/etharp.c ****     /* no empty entry found yet and now we do find one? */
 992              		.loc 1 284 5 view .LVU353
 284:lwIP/src/core/ipv4/etharp.c ****     /* no empty entry found yet and now we do find one? */
 993              		.loc 1 284 10 is_stmt 0 view .LVU354
 994 0192 94F88C10 		ldrb	r1, [r4, #140]	@ zero_extendqisi2
 995              	.LVL82:
 286:lwIP/src/core/ipv4/etharp.c ****       LWIP_DEBUGF(ETHARP_DEBUG, ("etharp_find_entry: found empty entry %d\n", (int)i));
 996              		.loc 1 286 5 is_stmt 1 view .LVU355
 997              	.LBE80:
 283:lwIP/src/core/ipv4/etharp.c ****     u8_t state = arp_table[i].state;
 998              		.loc 1 283 35 is_stmt 0 view .LVU356
 999 0196 0420     		movs	r0, #4
 1000              	.LVL83:
 1001              	.L150:
 1002              	.LBB81:
 290:lwIP/src/core/ipv4/etharp.c ****       LWIP_ASSERT("state == ETHARP_STATE_PENDING || state >= ETHARP_STATE_STABLE",
 1003              		.loc 1 290 12 is_stmt 1 view .LVU357
 290:lwIP/src/core/ipv4/etharp.c ****       LWIP_ASSERT("state == ETHARP_STATE_PENDING || state >= ETHARP_STATE_STABLE",
 1004              		.loc 1 290 15 is_stmt 0 view .LVU358
 1005 0198 71B1     		cbz	r1, .L105
 1006              	.L329:
 291:lwIP/src/core/ipv4/etharp.c ****                   state == ETHARP_STATE_PENDING || state >= ETHARP_STATE_STABLE);
 1007              		.loc 1 291 7 is_stmt 1 view .LVU359
 291:lwIP/src/core/ipv4/etharp.c ****                   state == ETHARP_STATE_PENDING || state >= ETHARP_STATE_STABLE);
 1008              		.loc 1 291 7 view .LVU360
 291:lwIP/src/core/ipv4/etharp.c ****                   state == ETHARP_STATE_PENDING || state >= ETHARP_STATE_STABLE);
 1009              		.loc 1 291 7 view .LVU361
 294:lwIP/src/core/ipv4/etharp.c **** #if ETHARP_TABLE_MATCH_NETIF
 1010              		.loc 1 294 7 view .LVU362
 294:lwIP/src/core/ipv4/etharp.c **** #if ETHARP_TABLE_MATCH_NETIF
ARM GAS  /tmp/cctR0i1S.s 			page 62


 1011              		.loc 1 294 18 is_stmt 0 view .LVU363
 1012 019a DBF80070 		ldr	r7, [fp]
 1013 019e E66F     		ldr	r6, [r4, #124]
 1014 01a0 B742     		cmp	r7, r6
 1015 01a2 00F0C982 		beq	.L194
 304:lwIP/src/core/ipv4/etharp.c ****         /* pending with queued packets? */
 1016              		.loc 1 304 7 is_stmt 1 view .LVU364
 304:lwIP/src/core/ipv4/etharp.c ****         /* pending with queued packets? */
 1017              		.loc 1 304 10 is_stmt 0 view .LVU365
 1018 01a6 0129     		cmp	r1, #1
 1019 01a8 B4F88A70 		ldrh	r7, [r4, #138]
 1020 01ac 00F09781 		beq	.L106
 320:lwIP/src/core/ipv4/etharp.c **** #if ETHARP_SUPPORT_STATIC_ENTRIES
 1021              		.loc 1 320 14 is_stmt 1 view .LVU366
 327:lwIP/src/core/ipv4/etharp.c ****             old_stable = i;
 1022              		.loc 1 327 11 view .LVU367
 327:lwIP/src/core/ipv4/etharp.c ****             old_stable = i;
 1023              		.loc 1 327 14 is_stmt 0 view .LVU368
 1024 01b0 7745     		cmp	r7, lr
 1025 01b2 01D3     		bcc	.L105
 1026 01b4 BE46     		mov	lr, r7
 1027              	.LBE81:
 283:lwIP/src/core/ipv4/etharp.c ****     u8_t state = arp_table[i].state;
 1028              		.loc 1 283 35 view .LVU369
 1029 01b6 0525     		movs	r5, #5
 1030              	.LVL84:
 1031              	.L105:
 283:lwIP/src/core/ipv4/etharp.c ****     u8_t state = arp_table[i].state;
 1032              		.loc 1 283 35 is_stmt 1 view .LVU370
 283:lwIP/src/core/ipv4/etharp.c ****     u8_t state = arp_table[i].state;
 1033              		.loc 1 283 15 view .LVU371
 1034              	.LBB82:
 284:lwIP/src/core/ipv4/etharp.c ****     /* no empty entry found yet and now we do find one? */
 1035              		.loc 1 284 5 view .LVU372
 286:lwIP/src/core/ipv4/etharp.c ****       LWIP_DEBUGF(ETHARP_DEBUG, ("etharp_find_entry: found empty entry %d\n", (int)i));
 1036              		.loc 1 286 8 is_stmt 0 view .LVU373
 1037 01b8 0A28     		cmp	r0, #10
 284:lwIP/src/core/ipv4/etharp.c ****     /* no empty entry found yet and now we do find one? */
 1038              		.loc 1 284 10 view .LVU374
 1039 01ba 94F8A410 		ldrb	r1, [r4, #164]	@ zero_extendqisi2
 1040              	.LVL85:
 286:lwIP/src/core/ipv4/etharp.c ****       LWIP_DEBUGF(ETHARP_DEBUG, ("etharp_find_entry: found empty entry %d\n", (int)i));
 1041              		.loc 1 286 5 is_stmt 1 view .LVU375
 286:lwIP/src/core/ipv4/etharp.c ****       LWIP_DEBUGF(ETHARP_DEBUG, ("etharp_find_entry: found empty entry %d\n", (int)i));
 1042              		.loc 1 286 8 is_stmt 0 view .LVU376
 1043 01be 7FF476AF 		bne	.L149
 286:lwIP/src/core/ipv4/etharp.c ****       LWIP_DEBUGF(ETHARP_DEBUG, ("etharp_find_entry: found empty entry %d\n", (int)i));
 1044              		.loc 1 286 8 view .LVU377
 1045 01c2 0029     		cmp	r1, #0
 1046 01c4 7FF474AF 		bne	.L330
 1047              	.LVL86:
 286:lwIP/src/core/ipv4/etharp.c ****       LWIP_DEBUGF(ETHARP_DEBUG, ("etharp_find_entry: found empty entry %d\n", (int)i));
 1048              		.loc 1 286 8 view .LVU378
 1049              	.LBE82:
 283:lwIP/src/core/ipv4/etharp.c ****     u8_t state = arp_table[i].state;
 1050              		.loc 1 283 35 is_stmt 1 view .LVU379
 283:lwIP/src/core/ipv4/etharp.c ****     u8_t state = arp_table[i].state;
ARM GAS  /tmp/cctR0i1S.s 			page 63


 1051              		.loc 1 283 15 view .LVU380
 1052              	.LBB83:
 284:lwIP/src/core/ipv4/etharp.c ****     /* no empty entry found yet and now we do find one? */
 1053              		.loc 1 284 5 view .LVU381
 284:lwIP/src/core/ipv4/etharp.c ****     /* no empty entry found yet and now we do find one? */
 1054              		.loc 1 284 10 is_stmt 0 view .LVU382
 1055 01c8 94F8BC10 		ldrb	r1, [r4, #188]	@ zero_extendqisi2
 1056              	.LVL87:
 286:lwIP/src/core/ipv4/etharp.c ****       LWIP_DEBUGF(ETHARP_DEBUG, ("etharp_find_entry: found empty entry %d\n", (int)i));
 1057              		.loc 1 286 5 is_stmt 1 view .LVU383
 1058              	.LBE83:
 283:lwIP/src/core/ipv4/etharp.c ****     u8_t state = arp_table[i].state;
 1059              		.loc 1 283 35 is_stmt 0 view .LVU384
 1060 01cc 0620     		movs	r0, #6
 1061              	.LVL88:
 1062              	.L148:
 1063              	.LBB84:
 290:lwIP/src/core/ipv4/etharp.c ****       LWIP_ASSERT("state == ETHARP_STATE_PENDING || state >= ETHARP_STATE_STABLE",
 1064              		.loc 1 290 12 is_stmt 1 view .LVU385
 290:lwIP/src/core/ipv4/etharp.c ****       LWIP_ASSERT("state == ETHARP_STATE_PENDING || state >= ETHARP_STATE_STABLE",
 1065              		.loc 1 290 15 is_stmt 0 view .LVU386
 1066 01ce 79B1     		cbz	r1, .L115
 1067              	.L331:
 291:lwIP/src/core/ipv4/etharp.c ****                   state == ETHARP_STATE_PENDING || state >= ETHARP_STATE_STABLE);
 1068              		.loc 1 291 7 is_stmt 1 view .LVU387
 291:lwIP/src/core/ipv4/etharp.c ****                   state == ETHARP_STATE_PENDING || state >= ETHARP_STATE_STABLE);
 1069              		.loc 1 291 7 view .LVU388
 291:lwIP/src/core/ipv4/etharp.c ****                   state == ETHARP_STATE_PENDING || state >= ETHARP_STATE_STABLE);
 1070              		.loc 1 291 7 view .LVU389
 294:lwIP/src/core/ipv4/etharp.c **** #if ETHARP_TABLE_MATCH_NETIF
 1071              		.loc 1 294 7 view .LVU390
 294:lwIP/src/core/ipv4/etharp.c **** #if ETHARP_TABLE_MATCH_NETIF
 1072              		.loc 1 294 18 is_stmt 0 view .LVU391
 1073 01d0 DBF80070 		ldr	r7, [fp]
 1074 01d4 D4F8AC60 		ldr	r6, [r4, #172]
 1075 01d8 B742     		cmp	r7, r6
 1076 01da 00F0A782 		beq	.L196
 304:lwIP/src/core/ipv4/etharp.c ****         /* pending with queued packets? */
 1077              		.loc 1 304 7 is_stmt 1 view .LVU392
 304:lwIP/src/core/ipv4/etharp.c ****         /* pending with queued packets? */
 1078              		.loc 1 304 10 is_stmt 0 view .LVU393
 1079 01de 0129     		cmp	r1, #1
 1080 01e0 B4F8BA70 		ldrh	r7, [r4, #186]
 1081 01e4 00F08581 		beq	.L116
 320:lwIP/src/core/ipv4/etharp.c **** #if ETHARP_SUPPORT_STATIC_ENTRIES
 1082              		.loc 1 320 14 is_stmt 1 view .LVU394
 327:lwIP/src/core/ipv4/etharp.c ****             old_stable = i;
 1083              		.loc 1 327 11 view .LVU395
 327:lwIP/src/core/ipv4/etharp.c ****             old_stable = i;
 1084              		.loc 1 327 14 is_stmt 0 view .LVU396
 1085 01e8 7745     		cmp	r7, lr
 1086 01ea 01D3     		bcc	.L115
 1087 01ec BE46     		mov	lr, r7
 1088              	.LBE84:
 283:lwIP/src/core/ipv4/etharp.c ****     u8_t state = arp_table[i].state;
 1089              		.loc 1 283 35 view .LVU397
 1090 01ee 0725     		movs	r5, #7
ARM GAS  /tmp/cctR0i1S.s 			page 64


 1091              	.LVL89:
 1092              	.L115:
 283:lwIP/src/core/ipv4/etharp.c ****     u8_t state = arp_table[i].state;
 1093              		.loc 1 283 35 is_stmt 1 view .LVU398
 283:lwIP/src/core/ipv4/etharp.c ****     u8_t state = arp_table[i].state;
 1094              		.loc 1 283 15 view .LVU399
 1095              	.LBB85:
 284:lwIP/src/core/ipv4/etharp.c ****     /* no empty entry found yet and now we do find one? */
 1096              		.loc 1 284 5 view .LVU400
 286:lwIP/src/core/ipv4/etharp.c ****       LWIP_DEBUGF(ETHARP_DEBUG, ("etharp_find_entry: found empty entry %d\n", (int)i));
 1097              		.loc 1 286 8 is_stmt 0 view .LVU401
 1098 01f0 0A28     		cmp	r0, #10
 284:lwIP/src/core/ipv4/etharp.c ****     /* no empty entry found yet and now we do find one? */
 1099              		.loc 1 284 10 view .LVU402
 1100 01f2 94F8D410 		ldrb	r1, [r4, #212]	@ zero_extendqisi2
 1101              	.LVL90:
 286:lwIP/src/core/ipv4/etharp.c ****       LWIP_DEBUGF(ETHARP_DEBUG, ("etharp_find_entry: found empty entry %d\n", (int)i));
 1102              		.loc 1 286 5 is_stmt 1 view .LVU403
 286:lwIP/src/core/ipv4/etharp.c ****       LWIP_DEBUGF(ETHARP_DEBUG, ("etharp_find_entry: found empty entry %d\n", (int)i));
 1103              		.loc 1 286 8 is_stmt 0 view .LVU404
 1104 01f6 7FF474AF 		bne	.L147
 286:lwIP/src/core/ipv4/etharp.c ****       LWIP_DEBUGF(ETHARP_DEBUG, ("etharp_find_entry: found empty entry %d\n", (int)i));
 1105              		.loc 1 286 8 view .LVU405
 1106 01fa 0029     		cmp	r1, #0
 1107 01fc 40F0EB80 		bne	.L332
 1108              	.LVL91:
 286:lwIP/src/core/ipv4/etharp.c ****       LWIP_DEBUGF(ETHARP_DEBUG, ("etharp_find_entry: found empty entry %d\n", (int)i));
 1109              		.loc 1 286 8 view .LVU406
 1110              	.LBE85:
 283:lwIP/src/core/ipv4/etharp.c ****     u8_t state = arp_table[i].state;
 1111              		.loc 1 283 35 is_stmt 1 view .LVU407
 283:lwIP/src/core/ipv4/etharp.c ****     u8_t state = arp_table[i].state;
 1112              		.loc 1 283 15 view .LVU408
 1113              	.LBB86:
 284:lwIP/src/core/ipv4/etharp.c ****     /* no empty entry found yet and now we do find one? */
 1114              		.loc 1 284 5 view .LVU409
 284:lwIP/src/core/ipv4/etharp.c ****     /* no empty entry found yet and now we do find one? */
 1115              		.loc 1 284 10 is_stmt 0 view .LVU410
 1116 0200 94F8EC10 		ldrb	r1, [r4, #236]	@ zero_extendqisi2
 1117              	.LVL92:
 286:lwIP/src/core/ipv4/etharp.c ****       LWIP_DEBUGF(ETHARP_DEBUG, ("etharp_find_entry: found empty entry %d\n", (int)i));
 1118              		.loc 1 286 5 is_stmt 1 view .LVU411
 1119              	.LBE86:
 283:lwIP/src/core/ipv4/etharp.c ****     u8_t state = arp_table[i].state;
 1120              		.loc 1 283 35 is_stmt 0 view .LVU412
 1121 0204 0820     		movs	r0, #8
 1122              	.LVL93:
 1123              	.L123:
 1124              	.LBB87:
 290:lwIP/src/core/ipv4/etharp.c ****       LWIP_ASSERT("state == ETHARP_STATE_PENDING || state >= ETHARP_STATE_STABLE",
 1125              		.loc 1 290 12 is_stmt 1 view .LVU413
 290:lwIP/src/core/ipv4/etharp.c ****       LWIP_ASSERT("state == ETHARP_STATE_PENDING || state >= ETHARP_STATE_STABLE",
 1126              		.loc 1 290 15 is_stmt 0 view .LVU414
 1127 0206 0029     		cmp	r1, #0
 1128 0208 00F0A080 		beq	.L80
 1129              	.L333:
 291:lwIP/src/core/ipv4/etharp.c ****                   state == ETHARP_STATE_PENDING || state >= ETHARP_STATE_STABLE);
ARM GAS  /tmp/cctR0i1S.s 			page 65


 1130              		.loc 1 291 7 is_stmt 1 view .LVU415
 291:lwIP/src/core/ipv4/etharp.c ****                   state == ETHARP_STATE_PENDING || state >= ETHARP_STATE_STABLE);
 1131              		.loc 1 291 7 view .LVU416
 291:lwIP/src/core/ipv4/etharp.c ****                   state == ETHARP_STATE_PENDING || state >= ETHARP_STATE_STABLE);
 1132              		.loc 1 291 7 view .LVU417
 294:lwIP/src/core/ipv4/etharp.c **** #if ETHARP_TABLE_MATCH_NETIF
 1133              		.loc 1 294 7 view .LVU418
 294:lwIP/src/core/ipv4/etharp.c **** #if ETHARP_TABLE_MATCH_NETIF
 1134              		.loc 1 294 18 is_stmt 0 view .LVU419
 1135 020c DBF80070 		ldr	r7, [fp]
 1136 0210 D4F8DC60 		ldr	r6, [r4, #220]
 1137 0214 B742     		cmp	r7, r6
 1138 0216 00F09182 		beq	.L338
 304:lwIP/src/core/ipv4/etharp.c ****         /* pending with queued packets? */
 1139              		.loc 1 304 7 is_stmt 1 view .LVU420
 304:lwIP/src/core/ipv4/etharp.c ****         /* pending with queued packets? */
 1140              		.loc 1 304 10 is_stmt 0 view .LVU421
 1141 021a 0129     		cmp	r1, #1
 1142 021c B4F8EA70 		ldrh	r7, [r4, #234]
 1143 0220 00F0B281 		beq	.L339
 320:lwIP/src/core/ipv4/etharp.c **** #if ETHARP_SUPPORT_STATIC_ENTRIES
 1144              		.loc 1 320 14 is_stmt 1 view .LVU422
 327:lwIP/src/core/ipv4/etharp.c ****             old_stable = i;
 1145              		.loc 1 327 11 view .LVU423
 327:lwIP/src/core/ipv4/etharp.c ****             old_stable = i;
 1146              		.loc 1 327 14 is_stmt 0 view .LVU424
 1147 0224 7745     		cmp	r7, lr
 1148 0226 C0F09180 		bcc	.L80
 1149              	.LVL94:
 327:lwIP/src/core/ipv4/etharp.c ****             old_stable = i;
 1150              		.loc 1 327 14 view .LVU425
 1151              	.LBE87:
 283:lwIP/src/core/ipv4/etharp.c ****     u8_t state = arp_table[i].state;
 1152              		.loc 1 283 35 is_stmt 1 view .LVU426
 283:lwIP/src/core/ipv4/etharp.c ****     u8_t state = arp_table[i].state;
 1153              		.loc 1 283 15 view .LVU427
 338:lwIP/src/core/ipv4/etharp.c ****       /* or no empty entry found and not allowed to recycle? */
 1154              		.loc 1 338 3 view .LVU428
 338:lwIP/src/core/ipv4/etharp.c ****       /* or no empty entry found and not allowed to recycle? */
 1155              		.loc 1 338 6 is_stmt 0 view .LVU429
 1156 022a B9F1010F 		cmp	r9, #1
 1157 022e 40F0B881 		bne	.L201
 338:lwIP/src/core/ipv4/etharp.c ****       /* or no empty entry found and not allowed to recycle? */
 1158              		.loc 1 338 46 view .LVU430
 1159 0232 0A28     		cmp	r0, #10
 1160 0234 7FF465AF 		bne	.L124
 1161              	.LVL95:
 1162              	.L200:
 283:lwIP/src/core/ipv4/etharp.c ****     u8_t state = arp_table[i].state;
 1163              		.loc 1 283 35 view .LVU431
 1164 0238 0925     		movs	r5, #9
 1165              	.LVL96:
 1166              	.L78:
 362:lwIP/src/core/ipv4/etharp.c ****       LWIP_DEBUGF(ETHARP_DEBUG | LWIP_DBG_TRACE, ("etharp_find_entry: selecting oldest stable entry
 1167              		.loc 1 362 7 is_stmt 1 view .LVU432
 363:lwIP/src/core/ipv4/etharp.c ****       /* no queued packets should exist on stable entries */
 1168              		.loc 1 363 116 view .LVU433
ARM GAS  /tmp/cctR0i1S.s 			page 66


 365:lwIP/src/core/ipv4/etharp.c ****       /* 3) found recyclable pending entry without queued packets? */
 1169              		.loc 1 365 7 view .LVU434
 365:lwIP/src/core/ipv4/etharp.c ****       /* 3) found recyclable pending entry without queued packets? */
 1170              		.loc 1 365 7 view .LVU435
 1171 023a 05EB4503 		add	r3, r5, r5, lsl #1
 1172 023e 2F46     		mov	r7, r5
 1173 0240 4FEA4508 		lsl	r8, r5, #1
 1174 0244 54F83330 		ldr	r3, [r4, r3, lsl #3]
 1175 0248 002B     		cmp	r3, #0
 1176 024a 00F09E80 		beq	.L131
 365:lwIP/src/core/ipv4/etharp.c ****       /* 3) found recyclable pending entry without queued packets? */
 1177              		.loc 1 365 7 view .LVU436
 1178 024e 0448     		ldr	r0, .L360+8
 1179              	.LVL97:
 365:lwIP/src/core/ipv4/etharp.c ****       /* 3) found recyclable pending entry without queued packets? */
 1180              		.loc 1 365 7 is_stmt 0 view .LVU437
 1181 0250 FFF7FEFF 		bl	printf
 1182              	.LVL98:
 1183              	.L132:
 365:lwIP/src/core/ipv4/etharp.c ****       /* 3) found recyclable pending entry without queued packets? */
 1184              		.loc 1 365 7 is_stmt 1 view .LVU438
 365:lwIP/src/core/ipv4/etharp.c ****       /* 3) found recyclable pending entry without queued packets? */
 1185              		.loc 1 365 7 view .LVU439
 365:lwIP/src/core/ipv4/etharp.c ****       /* 3) found recyclable pending entry without queued packets? */
 1186              		.loc 1 365 7 view .LVU440
 365:lwIP/src/core/ipv4/etharp.c ****       /* 3) found recyclable pending entry without queued packets? */
 1187              		.loc 1 365 7 view .LVU441
 365:lwIP/src/core/ipv4/etharp.c ****       /* 3) found recyclable pending entry without queued packets? */
 1188              		.loc 1 365 7 view .LVU442
 365:lwIP/src/core/ipv4/etharp.c ****       /* 3) found recyclable pending entry without queued packets? */
 1189              		.loc 1 365 7 view .LVU443
 1190 0254 FEE7     		b	.L132
 1191              	.L361:
 1192 0256 00BF     		.align	2
 1193              	.L360:
 1194 0258 00000000 		.word	.LANCHOR0
 1195 025c 18000000 		.word	.LC5
