ARM GAS  /tmp/ccxmoYw0.s 			page 1


   1              		.cpu cortex-m7
   2              		.eabi_attribute 27, 1
   3              		.eabi_attribute 28, 1
   4              		.eabi_attribute 20, 1
   5              		.eabi_attribute 21, 1
   6              		.eabi_attribute 23, 3
   7              		.eabi_attribute 24, 1
   8              		.eabi_attribute 25, 1
   9              		.eabi_attribute 26, 1
  10              		.eabi_attribute 30, 2
  11              		.eabi_attribute 34, 1
  12              		.eabi_attribute 18, 4
  13              		.file	"usb_device.c"
  14              		.text
  15              	.Ltext0:
  16              		.cfi_sections	.debug_frame
  17              		.section	.text.usb_device_init,"ax",%progbits
  18              		.align	1
  19              		.p2align 2,,3
  20              		.global	usb_device_init
  21              		.arch armv7e-m
  22              		.syntax unified
  23              		.thumb
  24              		.thumb_func
  25              		.fpu fpv4-sp-d16
  27              	usb_device_init:
  28              	.LVL0:
  29              	.LFB144:
  30              		.file 1 "Core/usb_device.c"
   1:Core/usb_device.c **** /**
   2:Core/usb_device.c ****   ******************************************************************************
   3:Core/usb_device.c ****   * @file    usb_device.c
   4:Core/usb_device.c ****   * @author  Benedek Kupper
   5:Core/usb_device.c ****   * @version 0.1
   6:Core/usb_device.c ****   * @date    2018-12-16
   7:Core/usb_device.c ****   * @brief   IPoverUSB USB device definition
   8:Core/usb_device.c ****   *
   9:Core/usb_device.c ****   * Copyright (c) 2018 Benedek Kupper
  10:Core/usb_device.c ****   *
  11:Core/usb_device.c ****   * Licensed under the Apache License, Version 2.0 (the "License");
  12:Core/usb_device.c ****   * you may not use this file except in compliance with the License.
  13:Core/usb_device.c ****   * You may obtain a copy of the License at
  14:Core/usb_device.c ****   *
  15:Core/usb_device.c ****   *     http://www.apache.org/licenses/LICENSE-2.0
  16:Core/usb_device.c ****   *
  17:Core/usb_device.c ****   * Unless required by applicable law or agreed to in writing, software
  18:Core/usb_device.c ****   * distributed under the License is distributed on an "AS IS" BASIS,
  19:Core/usb_device.c ****   * WITHOUT WARRANTIES OR CONDITIONS OF ANY KIND, either express or implied.
  20:Core/usb_device.c ****   * See the License for the specific language governing permissions and
  21:Core/usb_device.c ****   * limitations under the License.
  22:Core/usb_device.c ****   */
  23:Core/usb_device.c **** #include <usbd.h>
  24:Core/usb_device.c **** #include <stm32_rom_dfu.h>
  25:Core/usb_device.c **** #include <ncm_netif.h>
  26:Core/usb_device.c **** 
  27:Core/usb_device.c **** #include <usbd_cdc.h>
  28:Core/usb_device.c **** extern USBD_CDC_IfHandleType * const console_if;
ARM GAS  /tmp/ccxmoYw0.s 			page 2


  29:Core/usb_device.c **** 
  30:Core/usb_device.c **** USBD_DescriptionType _dev_cfg = {
  31:Core/usb_device.c ****     .Vendor = {
  32:Core/usb_device.c ****             .Name           = "STMicroelectronics",
  33:Core/usb_device.c ****             .ID             = 0x0483,
  34:Core/usb_device.c ****     },
  35:Core/usb_device.c ****     .Product = {
  36:Core/usb_device.c ****             .Name           = "IP over USB Demonstrator",
  37:Core/usb_device.c ****             .ID             = 0xFFFF,
  38:Core/usb_device.c ****             .Version.bcd    = 0x0100,
  39:Core/usb_device.c ****     },
  40:Core/usb_device.c ****     .SerialNumber = (USBD_SerialNumberType*)DEVICE_ID_REG,
  41:Core/usb_device.c ****     .Config = {
  42:Core/usb_device.c ****             .Name           = "NCM Device Configuration",
  43:Core/usb_device.c ****             .MaxCurrent_mA  = 100,
  44:Core/usb_device.c ****             .RemoteWakeup   = 0,
  45:Core/usb_device.c ****             .SelfPowered    = 0,
  46:Core/usb_device.c ****     },
  47:Core/usb_device.c **** }, *const dev_cfg = &_dev_cfg;
  48:Core/usb_device.c **** 
  49:Core/usb_device.c **** void usb_device_init(USBD_HandleType *usbd)
  50:Core/usb_device.c **** {
  31              		.loc 1 50 1 view -0
  32              		.cfi_startproc
  33              		@ args = 0, pretend = 0, frame = 0
  34              		@ frame_needed = 0, uses_anonymous_args = 0
  51:Core/usb_device.c ****     /* Mount the interfaces to the device */
  52:Core/usb_device.c ****     USBD_DFU_MountRebootOnly(stm32_rom_dfu_if, usbd);
  35              		.loc 1 52 5 view .LVU1
  50:Core/usb_device.c ****     /* Mount the interfaces to the device */
  36              		.loc 1 50 1 is_stmt 0 view .LVU2
  37 0000 10B5     		push	{r4, lr}
  38              	.LCFI0:
  39              		.cfi_def_cfa_offset 8
  40              		.cfi_offset 4, -8
  41              		.cfi_offset 14, -4
  42              		.loc 1 52 5 view .LVU3
  43 0002 0B4B     		ldr	r3, .L4
  50:Core/usb_device.c ****     /* Mount the interfaces to the device */
  44              		.loc 1 50 1 view .LVU4
  45 0004 0446     		mov	r4, r0
  46              		.loc 1 52 5 view .LVU5
  47 0006 1868     		ldr	r0, [r3]
  48              	.LVL1:
  49              		.loc 1 52 5 view .LVU6
  50 0008 2146     		mov	r1, r4
  51 000a FFF7FEFF 		bl	USBD_DFU_MountRebootOnly
  52              	.LVL2:
  53:Core/usb_device.c **** 
  54:Core/usb_device.c ****     /* All fields of Config has to be properly set up */
  55:Core/usb_device.c ****     ncm_usb_if->Config.InEpNum = 0x81;
  53              		.loc 1 55 5 is_stmt 1 view .LVU7
  54              		.loc 1 55 15 is_stmt 0 view .LVU8
  55 000e 0949     		ldr	r1, .L4+4
  56:Core/usb_device.c ****     ncm_usb_if->Config.OutEpNum = 0x01;
  56              		.loc 1 56 33 view .LVU9
  57 0010 48F20112 		movw	r2, #33025
ARM GAS  /tmp/ccxmoYw0.s 			page 3


  57:Core/usb_device.c ****     ncm_usb_if->Config.NotEpNum = 0x82;
  58              		.loc 1 57 33 view .LVU10
  59 0014 8223     		movs	r3, #130
  55:Core/usb_device.c ****     ncm_usb_if->Config.OutEpNum = 0x01;
  60              		.loc 1 55 15 view .LVU11
  61 0016 0868     		ldr	r0, [r1]
  56:Core/usb_device.c ****     ncm_usb_if->Config.OutEpNum = 0x01;
  62              		.loc 1 56 5 is_stmt 1 view .LVU12
  63              		.loc 1 57 5 view .LVU13
  58:Core/usb_device.c **** 
  59:Core/usb_device.c ****     USBD_NCM_MountInterface(ncm_usb_if, usbd);
  64              		.loc 1 59 5 is_stmt 0 view .LVU14
  65 0018 2146     		mov	r1, r4
  56:Core/usb_device.c ****     ncm_usb_if->Config.NotEpNum = 0x82;
  66              		.loc 1 56 33 view .LVU15
  67 001a 0282     		strh	r2, [r0, #16]	@ movhi
  57:Core/usb_device.c **** 
  68              		.loc 1 57 33 view .LVU16
  69 001c 8374     		strb	r3, [r0, #18]
  70              		.loc 1 59 5 is_stmt 1 view .LVU17
  71 001e FFF7FEFF 		bl	USBD_NCM_MountInterface
  72              	.LVL3:
  60:Core/usb_device.c **** 
  61:Core/usb_device.c **** #if (STDOUT_BUFFER_SIZE > 0)
  62:Core/usb_device.c ****     console_if->Config.InEpNum = 0x83;
  63:Core/usb_device.c ****     console_if->Config.OutEpNum = 0x03;
  64:Core/usb_device.c ****     console_if->Config.NotEpNum = 0x84;
  65:Core/usb_device.c **** 
  66:Core/usb_device.c ****     USBD_CDC_MountInterface(console_if, usbd);
  67:Core/usb_device.c **** #endif
  68:Core/usb_device.c **** 
  69:Core/usb_device.c ****     /* Initialize the device */
  70:Core/usb_device.c ****     USBD_Init(usbd, dev_cfg);
  73              		.loc 1 70 5 view .LVU18
  74 0022 2046     		mov	r0, r4
  75 0024 0449     		ldr	r1, .L4+8
  71:Core/usb_device.c **** }
  76              		.loc 1 71 1 is_stmt 0 view .LVU19
  77 0026 BDE81040 		pop	{r4, lr}
  78              	.LCFI1:
  79              		.cfi_restore 14
  80              		.cfi_restore 4
  81              		.cfi_def_cfa_offset 0
  82              	.LVL4:
  70:Core/usb_device.c **** }
  83              		.loc 1 70 5 view .LVU20
  84 002a FFF7FEBF 		b	USBD_Init
  85              	.LVL5:
  86              	.L5:
  70:Core/usb_device.c **** }
  87              		.loc 1 70 5 view .LVU21
  88 002e 00BF     		.align	2
  89              	.L4:
  90 0030 00000000 		.word	stm32_rom_dfu_if
  91 0034 00000000 		.word	ncm_usb_if
  92 0038 00000000 		.word	.LANCHOR0
  93              		.cfi_endproc
ARM GAS  /tmp/ccxmoYw0.s 			page 4


  94              	.LFE144:
  96              		.global	dev_cfg
  97              		.global	_dev_cfg
  98              		.section	.rodata.str1.4,"aMS",%progbits,1
  99              		.align	2
 100              	.LC0:
 101 0000 4E434D20 		.ascii	"NCM Device Configuration\000"
 101      44657669 
 101      63652043 
 101      6F6E6669 
 101      67757261 
 102 0019 000000   		.align	2
 103              	.LC1:
 104 001c 53544D69 		.ascii	"STMicroelectronics\000"
 104      63726F65 
 104      6C656374 
 104      726F6E69 
 104      637300
 105 002f 00       		.align	2
 106              	.LC2:
 107 0030 4950206F 		.ascii	"IP over USB Demonstrator\000"
 107      76657220 
 107      55534220 
 107      44656D6F 
 107      6E737472 
 108              		.section	.data._dev_cfg,"aw"
 109              		.align	2
 110              		.set	.LANCHOR0,. + 0
 113              	_dev_cfg:
 114 0000 00000000 		.word	.LC0
 115 0004 6400     		.short	100
 116 0006 00       		.byte	0
 117 0007 00000000 		.space	5
 117      00
 118 000c 1C000000 		.word	.LC1
 119 0010 8304     		.short	1155
 120 0012 0000     		.space	2
 121 0014 30000000 		.word	.LC2
 122 0018 FFFF     		.short	-1
 123 001a 0001     		.short	256
 124 001c 00E8F11F 		.word	535947264
 125              		.section	.rodata.dev_cfg,"a"
 126              		.align	2
 129              	dev_cfg:
 130 0000 00000000 		.word	_dev_cfg
 131              		.text
 132              	.Letext0:
 133              		.file 2 "/usr/arm-none-eabi/include/machine/_default_types.h"
 134              		.file 3 "/usr/arm-none-eabi/include/sys/_stdint.h"
 135              		.file 4 "USBDevice/Include/usb_types.h"
 136              		.file 5 "STM32_XPD/STM32H7_XPD/inc/xpd_common.h"
 137              		.file 6 "STM32_XPD/CMSIS/Include/core_cm7.h"
 138              		.file 7 "STM32_XPD/CMSIS/Device/ST/STM32H7xx/Include/system_stm32h7xx.h"
 139              		.file 8 "STM32_XPD/CMSIS/Device/ST/STM32H7xx/Include/stm32h743xx.h"
 140              		.file 9 "USBDevice/PDs/STM32_XPD/usbd_pd_def.h"
 141              		.file 10 "USBDevice/Include/usbd_types.h"
 142              		.file 11 "USBDevice/Include/usbd_dfu.h"
ARM GAS  /tmp/ccxmoYw0.s 			page 5


 143              		.file 12 "Core/stm32_rom_dfu.h"
 144              		.file 13 "/usr/arm-none-eabi/include/sys/lock.h"
 145              		.file 14 "/usr/arm-none-eabi/include/sys/_types.h"
 146              		.file 15 "/usr/lib/gcc/arm-none-eabi/9.2.0/include/stddef.h"
 147              		.file 16 "/usr/arm-none-eabi/include/sys/reent.h"
 148              		.file 17 "/usr/arm-none-eabi/include/stdlib.h"
 149              		.file 18 "lwIP/src/include/lwip/arch.h"
 150              		.file 19 "/usr/arm-none-eabi/include/ctype.h"
 151              		.file 20 "lwIP/src/include/lwip/err.h"
 152              		.file 21 "lwIP/src/include/lwip/ip4_addr.h"
 153              		.file 22 "lwIP/src/include/lwip/ip_addr.h"
 154              		.file 23 "lwIP/src/include/lwip/pbuf.h"
 155              		.file 24 "lwIP/src/include/lwip/memp.h"
 156              		.file 25 "lwIP/src/include/lwip/priv/memp_priv.h"
 157              		.file 26 "lwIP/src/include/lwip/netif.h"
 158              		.file 27 "USBDevice/Include/usbd_cdc.h"
 159              		.file 28 "USBDevice/Include/usbd_ncm.h"
 160              		.file 29 "Core/ncm_netif.h"
 161              		.file 30 "USBDevice/Include/usbd.h"
ARM GAS  /tmp/ccxmoYw0.s 			page 6

