ARM GAS  /tmp/ccgNvlLN.s 			page 1


   1              		.cpu cortex-m7
   2              		.eabi_attribute 27, 1
   3              		.eabi_attribute 28, 1
   4              		.eabi_attribute 20, 1
   5              		.eabi_attribute 21, 1
   6              		.eabi_attribute 23, 3
   7              		.eabi_attribute 24, 1
   8              		.eabi_attribute 25, 1
   9              		.eabi_attribute 26, 1
  10              		.eabi_attribute 30, 2
  11              		.eabi_attribute 34, 1
  12              		.eabi_attribute 18, 4
  13              		.file	"xpd_usart.c"
  14              		.text
  15              	.Ltext0:
  16              		.cfi_sections	.debug_frame
  17              		.section	.text.USART_prvDmaTransmitRedirect,"ax",%progbits
  18              		.align	1
  19              		.p2align 2,,3
  20              		.arch armv7e-m
  21              		.syntax unified
  22              		.thumb
  23              		.thumb_func
  24              		.fpu fpv4-sp-d16
  26              	USART_prvDmaTransmitRedirect:
  27              	.LVL0:
  28              	.LFB168:
  29              		.file 1 "STM32_XPD/STM32H7_XPD/src/xpd_usart.c"
   1:STM32_XPD/STM32H7_XPD/src/xpd_usart.c **** /**
   2:STM32_XPD/STM32H7_XPD/src/xpd_usart.c ****   ******************************************************************************
   3:STM32_XPD/STM32H7_XPD/src/xpd_usart.c ****   * @file    xpd_usart.c
   4:STM32_XPD/STM32H7_XPD/src/xpd_usart.c ****   * @author  Benedek Kupper
   5:STM32_XPD/STM32H7_XPD/src/xpd_usart.c ****   * @version 0.2
   6:STM32_XPD/STM32H7_XPD/src/xpd_usart.c ****   * @date    2018-01-28
   7:STM32_XPD/STM32H7_XPD/src/xpd_usart.c ****   * @brief   STM32 eXtensible Peripheral Drivers USART Module
   8:STM32_XPD/STM32H7_XPD/src/xpd_usart.c ****   *
   9:STM32_XPD/STM32H7_XPD/src/xpd_usart.c ****   * Copyright (c) 2018 Benedek Kupper
  10:STM32_XPD/STM32H7_XPD/src/xpd_usart.c ****   *
  11:STM32_XPD/STM32H7_XPD/src/xpd_usart.c ****   * Licensed under the Apache License, Version 2.0 (the "License");
  12:STM32_XPD/STM32H7_XPD/src/xpd_usart.c ****   * you may not use this file except in compliance with the License.
  13:STM32_XPD/STM32H7_XPD/src/xpd_usart.c ****   * You may obtain a copy of the License at
  14:STM32_XPD/STM32H7_XPD/src/xpd_usart.c ****   *
  15:STM32_XPD/STM32H7_XPD/src/xpd_usart.c ****   *     http://www.apache.org/licenses/LICENSE-2.0
  16:STM32_XPD/STM32H7_XPD/src/xpd_usart.c ****   *
  17:STM32_XPD/STM32H7_XPD/src/xpd_usart.c ****   * Unless required by applicable law or agreed to in writing, software
  18:STM32_XPD/STM32H7_XPD/src/xpd_usart.c ****   * distributed under the License is distributed on an "AS IS" BASIS,
  19:STM32_XPD/STM32H7_XPD/src/xpd_usart.c ****   * WITHOUT WARRANTIES OR CONDITIONS OF ANY KIND, either express or implied.
  20:STM32_XPD/STM32H7_XPD/src/xpd_usart.c ****   * See the License for the specific language governing permissions and
  21:STM32_XPD/STM32H7_XPD/src/xpd_usart.c ****   * limitations under the License.
  22:STM32_XPD/STM32H7_XPD/src/xpd_usart.c ****   */
  23:STM32_XPD/STM32H7_XPD/src/xpd_usart.c **** 
  24:STM32_XPD/STM32H7_XPD/src/xpd_usart.c **** #include <xpd_usart.h>
  25:STM32_XPD/STM32H7_XPD/src/xpd_usart.c **** #include <xpd_utils.h>
  26:STM32_XPD/STM32H7_XPD/src/xpd_usart.c **** 
  27:STM32_XPD/STM32H7_XPD/src/xpd_usart.c **** /** @addtogroup USART
  28:STM32_XPD/STM32H7_XPD/src/xpd_usart.c ****  * @{ */
  29:STM32_XPD/STM32H7_XPD/src/xpd_usart.c **** 
ARM GAS  /tmp/ccgNvlLN.s 			page 2


  30:STM32_XPD/STM32H7_XPD/src/xpd_usart.c **** /** @addtogroup USART_Common
  31:STM32_XPD/STM32H7_XPD/src/xpd_usart.c ****  * @{ */
  32:STM32_XPD/STM32H7_XPD/src/xpd_usart.c **** 
  33:STM32_XPD/STM32H7_XPD/src/xpd_usart.c **** /* clock is enabled */
  34:STM32_XPD/STM32H7_XPD/src/xpd_usart.c **** #define USART_SYNCHRONOUS_MODE(HANDLE) (USART_REG_BIT(HANDLE, CR2, CLKEN) != 0)
  35:STM32_XPD/STM32H7_XPD/src/xpd_usart.c **** 
  36:STM32_XPD/STM32H7_XPD/src/xpd_usart.c **** /* half-duplex */
  37:STM32_XPD/STM32H7_XPD/src/xpd_usart.c **** #define USART_HALF_DUPLEX_MODE(HANDLE) (USART_REG_BIT(HANDLE, CR3, HDSEL) != 0)
  38:STM32_XPD/STM32H7_XPD/src/xpd_usart.c **** 
  39:STM32_XPD/STM32H7_XPD/src/xpd_usart.c **** #define USART_APPLY_CONFIG(HANDLE, REG, MASK, CONFIG)                               \
  40:STM32_XPD/STM32H7_XPD/src/xpd_usart.c ****     do{ uint32_t ulCR1 = (HANDLE)->Inst->CR1.w; uint32_t uartEn = ulCR1 & USART_CR1_UE; \
  41:STM32_XPD/STM32H7_XPD/src/xpd_usart.c ****     if (uartEn != 0) { pxUSART->Inst->CR1.w = ulCR1 & ~USART_CR1_UE; }                 \
  42:STM32_XPD/STM32H7_XPD/src/xpd_usart.c ****     MODIFY_REG((HANDLE)->Inst->REG.w, (MASK), (CONFIG));                            \
  43:STM32_XPD/STM32H7_XPD/src/xpd_usart.c ****     pxUSART->Inst->CR1.w |= uartEn;} while (0)
  44:STM32_XPD/STM32H7_XPD/src/xpd_usart.c **** 
  45:STM32_XPD/STM32H7_XPD/src/xpd_usart.c **** #if defined(__XPD_USART_ERROR_DETECT) || defined(__XPD_DMA_ERROR_DETECT)
  46:STM32_XPD/STM32H7_XPD/src/xpd_usart.c **** #define USART_RESET_ERRORS(HANDLE)    ((HANDLE)->Errors = USART_ERROR_NONE)
  47:STM32_XPD/STM32H7_XPD/src/xpd_usart.c **** #else
  48:STM32_XPD/STM32H7_XPD/src/xpd_usart.c **** #define USART_RESET_ERRORS(HANDLE)    ((void)0)
  49:STM32_XPD/STM32H7_XPD/src/xpd_usart.c **** #endif
  50:STM32_XPD/STM32H7_XPD/src/xpd_usart.c **** 
  51:STM32_XPD/STM32H7_XPD/src/xpd_usart.c **** #if (__USART_PERIPHERAL_VERSION > 1)
  52:STM32_XPD/STM32H7_XPD/src/xpd_usart.c **** #define USART_STATR(HANDLE)         ((HANDLE)->Inst->ISR.w)
  53:STM32_XPD/STM32H7_XPD/src/xpd_usart.c **** #define USART_STATF(FLAG_NAME)      (USART_ISR_##FLAG_NAME)
  54:STM32_XPD/STM32H7_XPD/src/xpd_usart.c **** #define USART_RXDR(HANDLE)          ((HANDLE)->Inst->RDR)
  55:STM32_XPD/STM32H7_XPD/src/xpd_usart.c **** #define USART_TXDR(HANDLE)          ((HANDLE)->Inst->TDR)
  56:STM32_XPD/STM32H7_XPD/src/xpd_usart.c **** 
  57:STM32_XPD/STM32H7_XPD/src/xpd_usart.c **** #define USART_INVERSION_MASK        (USART_CR2_TXINV | USART_CR2_RXINV | USART_CR2_DATAINV | USART_
  58:STM32_XPD/STM32H7_XPD/src/xpd_usart.c **** #define USART_BAUDRATEMODE_MASK     (USART_CR2_ABREN | USART_CR2_ABRMODE)
  59:STM32_XPD/STM32H7_XPD/src/xpd_usart.c **** #else
  60:STM32_XPD/STM32H7_XPD/src/xpd_usart.c **** #define USART_STATR(HANDLE)         ((HANDLE)->Inst->SR.w)
  61:STM32_XPD/STM32H7_XPD/src/xpd_usart.c **** #define USART_STATF(FLAG_NAME)      (USART_SR_##FLAG_NAME)
  62:STM32_XPD/STM32H7_XPD/src/xpd_usart.c **** #define USART_RXDR(HANDLE)          ((HANDLE)->Inst->DR)
  63:STM32_XPD/STM32H7_XPD/src/xpd_usart.c **** #define USART_TXDR(HANDLE)          ((HANDLE)->Inst->DR)
  64:STM32_XPD/STM32H7_XPD/src/xpd_usart.c **** 
  65:STM32_XPD/STM32H7_XPD/src/xpd_usart.c **** #define USART_INVERSION_MASK        0
  66:STM32_XPD/STM32H7_XPD/src/xpd_usart.c **** #define USART_BAUDRATEMODE_MASK     0
  67:STM32_XPD/STM32H7_XPD/src/xpd_usart.c **** #endif
  68:STM32_XPD/STM32H7_XPD/src/xpd_usart.c **** 
  69:STM32_XPD/STM32H7_XPD/src/xpd_usart.c **** #ifdef __XPD_DMA_ERROR_DETECT
  70:STM32_XPD/STM32H7_XPD/src/xpd_usart.c **** static void USART_prvDmaErrorRedirect(void *pxDMA)
  71:STM32_XPD/STM32H7_XPD/src/xpd_usart.c **** {
  72:STM32_XPD/STM32H7_XPD/src/xpd_usart.c ****     USART_HandleType * pxUSART = (USART_HandleType*) ((DMA_HandleType*) pxDMA)->Owner;
  73:STM32_XPD/STM32H7_XPD/src/xpd_usart.c **** 
  74:STM32_XPD/STM32H7_XPD/src/xpd_usart.c ****     pxUSART->Errors |= USART_ERROR_DMA;
  75:STM32_XPD/STM32H7_XPD/src/xpd_usart.c **** 
  76:STM32_XPD/STM32H7_XPD/src/xpd_usart.c ****     XPD_SAFE_CALLBACK(pxUSART->Callbacks.Error, pxUSART);
  77:STM32_XPD/STM32H7_XPD/src/xpd_usart.c **** }
  78:STM32_XPD/STM32H7_XPD/src/xpd_usart.c **** #endif
  79:STM32_XPD/STM32H7_XPD/src/xpd_usart.c **** 
  80:STM32_XPD/STM32H7_XPD/src/xpd_usart.c **** static void USART_prvDmaTransmitRedirect(void *pxDMA)
  81:STM32_XPD/STM32H7_XPD/src/xpd_usart.c **** {
  30              		.loc 1 81 1 view -0
  31              		.cfi_startproc
  32              		@ args = 0, pretend = 0, frame = 0
  33              		@ frame_needed = 0, uses_anonymous_args = 0
  34              		@ link register save eliminated.
ARM GAS  /tmp/ccgNvlLN.s 			page 3


  82:STM32_XPD/STM32H7_XPD/src/xpd_usart.c ****     USART_HandleType * pxUSART = (USART_HandleType*) ((DMA_HandleType*) pxDMA)->Owner;
  35              		.loc 1 82 5 view .LVU1
  83:STM32_XPD/STM32H7_XPD/src/xpd_usart.c **** 
  84:STM32_XPD/STM32H7_XPD/src/xpd_usart.c ****     /* DMA normal mode */
  85:STM32_XPD/STM32H7_XPD/src/xpd_usart.c ****     if (DMA_eCircularMode((DMA_HandleType*)pxDMA) == 0)
  36              		.loc 1 85 9 is_stmt 0 view .LVU2
  37 0000 0368     		ldr	r3, [r0]
  82:STM32_XPD/STM32H7_XPD/src/xpd_usart.c ****     USART_HandleType * pxUSART = (USART_HandleType*) ((DMA_HandleType*) pxDMA)->Owner;
  38              		.loc 1 82 24 view .LVU3
  39 0002 4069     		ldr	r0, [r0, #20]
  40              	.LVL1:
  41              		.loc 1 85 5 is_stmt 1 view .LVU4
  42              	.LBB27:
  43              	.LBI27:
  44              		.file 2 "STM32_XPD/STM32H7_XPD/inc/xpd_dma.h"
   1:STM32_XPD/STM32H7_XPD/inc/xpd_dma.h **** /**
   2:STM32_XPD/STM32H7_XPD/inc/xpd_dma.h ****   ******************************************************************************
   3:STM32_XPD/STM32H7_XPD/inc/xpd_dma.h ****   * @file    xpd_dma.h
   4:STM32_XPD/STM32H7_XPD/inc/xpd_dma.h ****   * @author  Benedek Kupper
   5:STM32_XPD/STM32H7_XPD/inc/xpd_dma.h ****   * @version 0.2
   6:STM32_XPD/STM32H7_XPD/inc/xpd_dma.h ****   * @date    2018-01-28
   7:STM32_XPD/STM32H7_XPD/inc/xpd_dma.h ****   * @brief   STM32 eXtensible Peripheral Drivers DMA Module
   8:STM32_XPD/STM32H7_XPD/inc/xpd_dma.h ****   *
   9:STM32_XPD/STM32H7_XPD/inc/xpd_dma.h ****   * Copyright (c) 2018 Benedek Kupper
  10:STM32_XPD/STM32H7_XPD/inc/xpd_dma.h ****   *
  11:STM32_XPD/STM32H7_XPD/inc/xpd_dma.h ****   * Licensed under the Apache License, Version 2.0 (the "License");
  12:STM32_XPD/STM32H7_XPD/inc/xpd_dma.h ****   * you may not use this file except in compliance with the License.
  13:STM32_XPD/STM32H7_XPD/inc/xpd_dma.h ****   * You may obtain a copy of the License at
  14:STM32_XPD/STM32H7_XPD/inc/xpd_dma.h ****   *
  15:STM32_XPD/STM32H7_XPD/inc/xpd_dma.h ****   *     http://www.apache.org/licenses/LICENSE-2.0
  16:STM32_XPD/STM32H7_XPD/inc/xpd_dma.h ****   *
  17:STM32_XPD/STM32H7_XPD/inc/xpd_dma.h ****   * Unless required by applicable law or agreed to in writing, software
  18:STM32_XPD/STM32H7_XPD/inc/xpd_dma.h ****   * distributed under the License is distributed on an "AS IS" BASIS,
  19:STM32_XPD/STM32H7_XPD/inc/xpd_dma.h ****   * WITHOUT WARRANTIES OR CONDITIONS OF ANY KIND, either express or implied.
  20:STM32_XPD/STM32H7_XPD/inc/xpd_dma.h ****   * See the License for the specific language governing permissions and
  21:STM32_XPD/STM32H7_XPD/inc/xpd_dma.h ****   * limitations under the License.
  22:STM32_XPD/STM32H7_XPD/inc/xpd_dma.h ****   */
  23:STM32_XPD/STM32H7_XPD/inc/xpd_dma.h **** #ifndef __XPD_DMA_H_
  24:STM32_XPD/STM32H7_XPD/inc/xpd_dma.h **** #define __XPD_DMA_H_
  25:STM32_XPD/STM32H7_XPD/inc/xpd_dma.h **** 
  26:STM32_XPD/STM32H7_XPD/inc/xpd_dma.h **** #ifdef __cplusplus
  27:STM32_XPD/STM32H7_XPD/inc/xpd_dma.h **** extern "C"
  28:STM32_XPD/STM32H7_XPD/inc/xpd_dma.h **** {
  29:STM32_XPD/STM32H7_XPD/inc/xpd_dma.h **** #endif
  30:STM32_XPD/STM32H7_XPD/inc/xpd_dma.h **** 
  31:STM32_XPD/STM32H7_XPD/inc/xpd_dma.h **** #include <xpd_common.h>
  32:STM32_XPD/STM32H7_XPD/inc/xpd_dma.h **** 
  33:STM32_XPD/STM32H7_XPD/inc/xpd_dma.h **** /** @defgroup DMA
  34:STM32_XPD/STM32H7_XPD/inc/xpd_dma.h ****  * @{ */
  35:STM32_XPD/STM32H7_XPD/inc/xpd_dma.h **** 
  36:STM32_XPD/STM32H7_XPD/inc/xpd_dma.h **** /** @defgroup DMA_Exported_Types DMA Exported Types
  37:STM32_XPD/STM32H7_XPD/inc/xpd_dma.h ****  * @{ */
  38:STM32_XPD/STM32H7_XPD/inc/xpd_dma.h **** 
  39:STM32_XPD/STM32H7_XPD/inc/xpd_dma.h **** /** @brief DMA transfer direction types */
  40:STM32_XPD/STM32H7_XPD/inc/xpd_dma.h **** typedef enum
  41:STM32_XPD/STM32H7_XPD/inc/xpd_dma.h **** {
  42:STM32_XPD/STM32H7_XPD/inc/xpd_dma.h ****     DMA_PERIPH2MEMORY = 0, /*!< Data is transferred from peripheral to memory */
ARM GAS  /tmp/ccgNvlLN.s 			page 4


  43:STM32_XPD/STM32H7_XPD/inc/xpd_dma.h ****     DMA_MEMORY2PERIPH = 1, /*!< Data is transferred from memory to peripheral */
  44:STM32_XPD/STM32H7_XPD/inc/xpd_dma.h ****     DMA_MEMORY2MEMORY = 2  /*!< Data is transferred from memory to memory
  45:STM32_XPD/STM32H7_XPD/inc/xpd_dma.h ****                                 @note Must use normal mode with FIFO for this direction */
  46:STM32_XPD/STM32H7_XPD/inc/xpd_dma.h **** }DMA_DirectionType;
  47:STM32_XPD/STM32H7_XPD/inc/xpd_dma.h **** 
  48:STM32_XPD/STM32H7_XPD/inc/xpd_dma.h **** /** @brief DMA data alignment types */
  49:STM32_XPD/STM32H7_XPD/inc/xpd_dma.h **** typedef enum
  50:STM32_XPD/STM32H7_XPD/inc/xpd_dma.h **** {
  51:STM32_XPD/STM32H7_XPD/inc/xpd_dma.h ****     DMA_ALIGN_BYTE     = 0, /*!< Data is byte aligned */
  52:STM32_XPD/STM32H7_XPD/inc/xpd_dma.h ****     DMA_ALIGN_HALFWORD = 1, /*!< Data is half word aligned */
  53:STM32_XPD/STM32H7_XPD/inc/xpd_dma.h ****     DMA_ALIGN_WORD     = 2  /*!< Data is word aligned */
  54:STM32_XPD/STM32H7_XPD/inc/xpd_dma.h **** }DMA_AlignmentType;
  55:STM32_XPD/STM32H7_XPD/inc/xpd_dma.h **** 
  56:STM32_XPD/STM32H7_XPD/inc/xpd_dma.h **** /** @brief DMA transfer mode types */
  57:STM32_XPD/STM32H7_XPD/inc/xpd_dma.h **** typedef enum
  58:STM32_XPD/STM32H7_XPD/inc/xpd_dma.h **** {
  59:STM32_XPD/STM32H7_XPD/inc/xpd_dma.h ****     DMA_MODE_NORMAL    = 0, /*!< Normal DMA transfer */
  60:STM32_XPD/STM32H7_XPD/inc/xpd_dma.h ****     DMA_MODE_CIRCULAR  = 1, /*!< Circular DMA transfer */
  61:STM32_XPD/STM32H7_XPD/inc/xpd_dma.h ****     DMA_MODE_PERIPH_FC = 4, /*!< DMA transfer with peripheral flow control (completion is indicated
  62:STM32_XPD/STM32H7_XPD/inc/xpd_dma.h ****     DMA_MODE_DBUFFER   = 3, /*!< Double-buffered DMA transfer (which is inherently circular) */
  63:STM32_XPD/STM32H7_XPD/inc/xpd_dma.h **** }DMA_ModeType;
  64:STM32_XPD/STM32H7_XPD/inc/xpd_dma.h **** 
  65:STM32_XPD/STM32H7_XPD/inc/xpd_dma.h **** /** @brief DMA FIFO burst mode types */
  66:STM32_XPD/STM32H7_XPD/inc/xpd_dma.h **** typedef enum
  67:STM32_XPD/STM32H7_XPD/inc/xpd_dma.h **** {
  68:STM32_XPD/STM32H7_XPD/inc/xpd_dma.h ****     DMA_BURST_SINGLE = 0, /*!< FIFOs use single transfer */
  69:STM32_XPD/STM32H7_XPD/inc/xpd_dma.h ****     DMA_BURST_INC4   = 1, /*!< FIFOs transfer 4 data items in one burst */
  70:STM32_XPD/STM32H7_XPD/inc/xpd_dma.h ****     DMA_BURST_INC8   = 2, /*!< FIFOs transfer 8 data items in one burst */
  71:STM32_XPD/STM32H7_XPD/inc/xpd_dma.h ****     DMA_BURST_INC16  = 3  /*!< FIFOs transfer 16 data items in one burst */
  72:STM32_XPD/STM32H7_XPD/inc/xpd_dma.h **** }DMA_BurstType;
  73:STM32_XPD/STM32H7_XPD/inc/xpd_dma.h **** 
  74:STM32_XPD/STM32H7_XPD/inc/xpd_dma.h **** /** @brief DMA transfer error types */
  75:STM32_XPD/STM32H7_XPD/inc/xpd_dma.h **** typedef enum
  76:STM32_XPD/STM32H7_XPD/inc/xpd_dma.h **** {
  77:STM32_XPD/STM32H7_XPD/inc/xpd_dma.h ****     DMA_ERROR_NONE     = 0,  /*!< No error             */
  78:STM32_XPD/STM32H7_XPD/inc/xpd_dma.h ****     DMA_ERROR_TRANSFER = 1,  /*!< Transfer error       */
  79:STM32_XPD/STM32H7_XPD/inc/xpd_dma.h ****     DMA_ERROR_FIFO     = 2,  /*!< FIFO error           */
  80:STM32_XPD/STM32H7_XPD/inc/xpd_dma.h ****     DMA_ERROR_DIRECTM  = 4,  /*!< Direct Mode error    */
  81:STM32_XPD/STM32H7_XPD/inc/xpd_dma.h **** }DMA_ErrorType;
  82:STM32_XPD/STM32H7_XPD/inc/xpd_dma.h **** 
  83:STM32_XPD/STM32H7_XPD/inc/xpd_dma.h **** /** @brief DMA operation types */
  84:STM32_XPD/STM32H7_XPD/inc/xpd_dma.h **** typedef enum
  85:STM32_XPD/STM32H7_XPD/inc/xpd_dma.h **** {
  86:STM32_XPD/STM32H7_XPD/inc/xpd_dma.h ****     DMA_OPERATION_TRANSFER     = 0, /*!< DMA transfer operation */
  87:STM32_XPD/STM32H7_XPD/inc/xpd_dma.h ****     DMA_OPERATION_HALFTRANSFER = 1  /*!< DMA half transfer operation */
  88:STM32_XPD/STM32H7_XPD/inc/xpd_dma.h **** }DMA_OperationType;
  89:STM32_XPD/STM32H7_XPD/inc/xpd_dma.h **** 
  90:STM32_XPD/STM32H7_XPD/inc/xpd_dma.h **** /** @brief DMA channel setup structure */
  91:STM32_XPD/STM32H7_XPD/inc/xpd_dma.h **** typedef union
  92:STM32_XPD/STM32H7_XPD/inc/xpd_dma.h **** {
  93:STM32_XPD/STM32H7_XPD/inc/xpd_dma.h ****     struct {
  94:STM32_XPD/STM32H7_XPD/inc/xpd_dma.h ****     uint32_t : 3;
  95:STM32_XPD/STM32H7_XPD/inc/xpd_dma.h ****     DMA_ModeType      Mode : 3;            /*!< DMA operating mode */
  96:STM32_XPD/STM32H7_XPD/inc/xpd_dma.h ****     DMA_DirectionType Direction : 2;       /*!< DMA channel direction */
  97:STM32_XPD/STM32H7_XPD/inc/xpd_dma.h ****     uint32_t : 1;
  98:STM32_XPD/STM32H7_XPD/inc/xpd_dma.h ****     FunctionalState   PeriphInc : 1;       /*!< The peripheral address is incremented after each tr
  99:STM32_XPD/STM32H7_XPD/inc/xpd_dma.h ****     FunctionalState   MemoryInc : 1;       /*!< The memory is incremented after each transfer */
ARM GAS  /tmp/ccgNvlLN.s 			page 5


 100:STM32_XPD/STM32H7_XPD/inc/xpd_dma.h ****     DMA_AlignmentType PeriphDataAlign : 2; /*!< The peripheral data width */
 101:STM32_XPD/STM32H7_XPD/inc/xpd_dma.h ****     DMA_AlignmentType MemoryDataAlign : 2; /*!< The memory data width */
 102:STM32_XPD/STM32H7_XPD/inc/xpd_dma.h ****     FunctionalState   PeriphWordInc : 1;   /*!< When enabled with @ref DMA_InitType::PeriphInc,
 103:STM32_XPD/STM32H7_XPD/inc/xpd_dma.h ****                                                 the peripheral address is incremented by 32 bits
 104:STM32_XPD/STM32H7_XPD/inc/xpd_dma.h ****                                                 (instead of what's dictated by @ref DMA_InitType::P
 105:STM32_XPD/STM32H7_XPD/inc/xpd_dma.h ****     LevelType         Priority : 2;        /*!< DMA bus arbitration priority level */
 106:STM32_XPD/STM32H7_XPD/inc/xpd_dma.h ****     uint32_t : 3;
 107:STM32_XPD/STM32H7_XPD/inc/xpd_dma.h ****     DMA_BurstType     PeriphBurst : 2;     /*!< The peripheral burst size (forced to 0 when FIFO is
 108:STM32_XPD/STM32H7_XPD/inc/xpd_dma.h ****     DMA_BurstType     MemoryBurst : 2;     /*!< The memory burst size (forced to 0 when FIFO isn't 
 109:STM32_XPD/STM32H7_XPD/inc/xpd_dma.h ****     uint32_t          Channel : 3;         /*!< Channel selection for the DMA stream [0 .. 7] */
 110:STM32_XPD/STM32H7_XPD/inc/xpd_dma.h ****     uint32_t : 1;
 111:STM32_XPD/STM32H7_XPD/inc/xpd_dma.h ****     uint32_t          FifoThreshold : 3;   /*!< The number of FIFO quarters to fill before transfer
 112:STM32_XPD/STM32H7_XPD/inc/xpd_dma.h ****                                                 (set to 0 to disable the FIFO) */
 113:STM32_XPD/STM32H7_XPD/inc/xpd_dma.h ****     };
 114:STM32_XPD/STM32H7_XPD/inc/xpd_dma.h ****     uint32_t w;
 115:STM32_XPD/STM32H7_XPD/inc/xpd_dma.h **** }DMA_InitType;
 116:STM32_XPD/STM32H7_XPD/inc/xpd_dma.h **** 
 117:STM32_XPD/STM32H7_XPD/inc/xpd_dma.h **** /** @brief DMA stream handle structure */
 118:STM32_XPD/STM32H7_XPD/inc/xpd_dma.h **** typedef struct
 119:STM32_XPD/STM32H7_XPD/inc/xpd_dma.h **** {
 120:STM32_XPD/STM32H7_XPD/inc/xpd_dma.h ****     DMA_Stream_TypeDef * Inst;                /*!< The address of the peripheral instance used by t
 121:STM32_XPD/STM32H7_XPD/inc/xpd_dma.h **** #ifdef DMA_Stream_BB
 122:STM32_XPD/STM32H7_XPD/inc/xpd_dma.h ****     DMA_Stream_BitBand_TypeDef * Inst_BB;     /*!< The address of the peripheral instance in the bi
 123:STM32_XPD/STM32H7_XPD/inc/xpd_dma.h **** #endif
 124:STM32_XPD/STM32H7_XPD/inc/xpd_dma.h ****     DMA_TypeDef * Base;                       /*!< [Internal] The address of the master DMA used by
 125:STM32_XPD/STM32H7_XPD/inc/xpd_dma.h ****     uint8_t StreamOffset;                     /*!< [Internal] The offset of the stream in the maste
 126:STM32_XPD/STM32H7_XPD/inc/xpd_dma.h ****     struct {
 127:STM32_XPD/STM32H7_XPD/inc/xpd_dma.h ****         XPD_HandleCallbackType Complete;      /*!< DMA transfer complete callback */
 128:STM32_XPD/STM32H7_XPD/inc/xpd_dma.h ****         XPD_HandleCallbackType HalfComplete;  /*!< DMA transfer half complete callback */
 129:STM32_XPD/STM32H7_XPD/inc/xpd_dma.h **** #ifdef __XPD_DMA_ERROR_DETECT
 130:STM32_XPD/STM32H7_XPD/inc/xpd_dma.h ****         XPD_HandleCallbackType Error;         /*!< DMA transfer error callback */
 131:STM32_XPD/STM32H7_XPD/inc/xpd_dma.h **** #endif
 132:STM32_XPD/STM32H7_XPD/inc/xpd_dma.h ****     } Callbacks;                              /*   Handle Callbacks */
 133:STM32_XPD/STM32H7_XPD/inc/xpd_dma.h ****     void * Owner;                             /*!< [Internal] The pointer of the peripheral handle 
 134:STM32_XPD/STM32H7_XPD/inc/xpd_dma.h **** #ifdef __XPD_DMA_ERROR_DETECT
 135:STM32_XPD/STM32H7_XPD/inc/xpd_dma.h ****     volatile DMA_ErrorType Errors;            /*!< Transfer errors */
 136:STM32_XPD/STM32H7_XPD/inc/xpd_dma.h **** #endif
 137:STM32_XPD/STM32H7_XPD/inc/xpd_dma.h **** }DMA_HandleType;
 138:STM32_XPD/STM32H7_XPD/inc/xpd_dma.h **** 
 139:STM32_XPD/STM32H7_XPD/inc/xpd_dma.h **** /** @} */
 140:STM32_XPD/STM32H7_XPD/inc/xpd_dma.h **** 
 141:STM32_XPD/STM32H7_XPD/inc/xpd_dma.h **** /** @defgroup DMA_Exported_Macros DMA Exported Macros
 142:STM32_XPD/STM32H7_XPD/inc/xpd_dma.h ****  * @{ */
 143:STM32_XPD/STM32H7_XPD/inc/xpd_dma.h **** 
 144:STM32_XPD/STM32H7_XPD/inc/xpd_dma.h **** #ifdef DMA_Stream_BB
 145:STM32_XPD/STM32H7_XPD/inc/xpd_dma.h **** /**
 146:STM32_XPD/STM32H7_XPD/inc/xpd_dma.h ****  * @brief DMA Instance to handle binder macro
 147:STM32_XPD/STM32H7_XPD/inc/xpd_dma.h ****  * @param HANDLE: specifies the peripheral handle.
 148:STM32_XPD/STM32H7_XPD/inc/xpd_dma.h ****  * @param INSTANCE: specifies the DMA peripheral instance.
 149:STM32_XPD/STM32H7_XPD/inc/xpd_dma.h ****  */
 150:STM32_XPD/STM32H7_XPD/inc/xpd_dma.h **** #define         DMA_INST2HANDLE(HANDLE, INSTANCE)           \
 151:STM32_XPD/STM32H7_XPD/inc/xpd_dma.h ****     ((HANDLE)->Inst    = (INSTANCE),                        \
 152:STM32_XPD/STM32H7_XPD/inc/xpd_dma.h ****      (HANDLE)->Inst_BB = DMA_Stream_BB(INSTANCE))
 153:STM32_XPD/STM32H7_XPD/inc/xpd_dma.h **** 
 154:STM32_XPD/STM32H7_XPD/inc/xpd_dma.h **** /**
 155:STM32_XPD/STM32H7_XPD/inc/xpd_dma.h ****  * @brief DMA register bit accessing macro
 156:STM32_XPD/STM32H7_XPD/inc/xpd_dma.h ****  * @param HANDLE: specifies the peripheral handle.
ARM GAS  /tmp/ccgNvlLN.s 			page 6


 157:STM32_XPD/STM32H7_XPD/inc/xpd_dma.h ****  * @param REG_NAME: specifies the register name.
 158:STM32_XPD/STM32H7_XPD/inc/xpd_dma.h ****  * @param BIT_NAME: specifies the register bit name.
 159:STM32_XPD/STM32H7_XPD/inc/xpd_dma.h ****  */
 160:STM32_XPD/STM32H7_XPD/inc/xpd_dma.h **** #define         DMA_REG_BIT(HANDLE, REG_NAME, BIT_NAME)     \
 161:STM32_XPD/STM32H7_XPD/inc/xpd_dma.h ****     ((HANDLE)->Inst_BB->REG_NAME.BIT_NAME)
 162:STM32_XPD/STM32H7_XPD/inc/xpd_dma.h **** 
 163:STM32_XPD/STM32H7_XPD/inc/xpd_dma.h **** #else
 164:STM32_XPD/STM32H7_XPD/inc/xpd_dma.h **** /**
 165:STM32_XPD/STM32H7_XPD/inc/xpd_dma.h ****  * @brief DMA Instance to handle binder macro
 166:STM32_XPD/STM32H7_XPD/inc/xpd_dma.h ****  * @param HANDLE: specifies the peripheral handle.
 167:STM32_XPD/STM32H7_XPD/inc/xpd_dma.h ****  * @param INSTANCE: specifies the DMA peripheral instance.
 168:STM32_XPD/STM32H7_XPD/inc/xpd_dma.h ****  */
 169:STM32_XPD/STM32H7_XPD/inc/xpd_dma.h **** #define         DMA_INST2HANDLE(HANDLE, INSTANCE)           \
 170:STM32_XPD/STM32H7_XPD/inc/xpd_dma.h ****     ((HANDLE)->Inst    = (INSTANCE))
 171:STM32_XPD/STM32H7_XPD/inc/xpd_dma.h **** 
 172:STM32_XPD/STM32H7_XPD/inc/xpd_dma.h **** /**
 173:STM32_XPD/STM32H7_XPD/inc/xpd_dma.h ****  * @brief DMA register bit accessing macro
 174:STM32_XPD/STM32H7_XPD/inc/xpd_dma.h ****  * @param HANDLE: specifies the peripheral handle.
 175:STM32_XPD/STM32H7_XPD/inc/xpd_dma.h ****  * @param REG_NAME: specifies the register name.
 176:STM32_XPD/STM32H7_XPD/inc/xpd_dma.h ****  * @param BIT_NAME: specifies the register bit name.
 177:STM32_XPD/STM32H7_XPD/inc/xpd_dma.h ****  */
 178:STM32_XPD/STM32H7_XPD/inc/xpd_dma.h **** #define         DMA_REG_BIT(HANDLE, REG_NAME, BIT_NAME)     \
 179:STM32_XPD/STM32H7_XPD/inc/xpd_dma.h ****     ((HANDLE)->Inst->REG_NAME.b.BIT_NAME)
 180:STM32_XPD/STM32H7_XPD/inc/xpd_dma.h **** 
 181:STM32_XPD/STM32H7_XPD/inc/xpd_dma.h **** #endif /* DMA_Stream_BB */
 182:STM32_XPD/STM32H7_XPD/inc/xpd_dma.h **** 
 183:STM32_XPD/STM32H7_XPD/inc/xpd_dma.h **** /**
 184:STM32_XPD/STM32H7_XPD/inc/xpd_dma.h ****  * @brief  Enable the specified DMA interrupt.
 185:STM32_XPD/STM32H7_XPD/inc/xpd_dma.h ****  * @param  HANDLE: specifies the DMA Handle.
 186:STM32_XPD/STM32H7_XPD/inc/xpd_dma.h ****  * @param  IT_NAME: specifies the interrupt to enable.
 187:STM32_XPD/STM32H7_XPD/inc/xpd_dma.h ****  *         This parameter can be one of the following values:
 188:STM32_XPD/STM32H7_XPD/inc/xpd_dma.h ****  *            @arg TC:      Transfer Complete Interrupt
 189:STM32_XPD/STM32H7_XPD/inc/xpd_dma.h ****  *            @arg HT:      Half Transfer Complete Interrupt
 190:STM32_XPD/STM32H7_XPD/inc/xpd_dma.h ****  *            @arg TE:      Transfer Error Interrupt
 191:STM32_XPD/STM32H7_XPD/inc/xpd_dma.h ****  *            @arg DME:     Direct Mode Error Interrupt
 192:STM32_XPD/STM32H7_XPD/inc/xpd_dma.h ****  *            @arg FE:      FIFO Error Interrupt
 193:STM32_XPD/STM32H7_XPD/inc/xpd_dma.h ****  */
 194:STM32_XPD/STM32H7_XPD/inc/xpd_dma.h **** #define         DMA_IT_ENABLE(HANDLE, IT_NAME)              \
 195:STM32_XPD/STM32H7_XPD/inc/xpd_dma.h ****     __XPD_DMA_ITConfig_##IT_NAME(HANDLE, 1)
 196:STM32_XPD/STM32H7_XPD/inc/xpd_dma.h **** 
 197:STM32_XPD/STM32H7_XPD/inc/xpd_dma.h **** /**
 198:STM32_XPD/STM32H7_XPD/inc/xpd_dma.h ****  * @brief  Disable the specified DMA interrupt.
 199:STM32_XPD/STM32H7_XPD/inc/xpd_dma.h ****  * @param  HANDLE: specifies the DMA Handle.
 200:STM32_XPD/STM32H7_XPD/inc/xpd_dma.h ****  * @param  IT_NAME: specifies the interrupt to enable.
 201:STM32_XPD/STM32H7_XPD/inc/xpd_dma.h ****  *         This parameter can be one of the following values:
 202:STM32_XPD/STM32H7_XPD/inc/xpd_dma.h ****  *            @arg TC:      Transfer Complete Interrupt
 203:STM32_XPD/STM32H7_XPD/inc/xpd_dma.h ****  *            @arg HT:      Half Transfer Complete Interrupt
 204:STM32_XPD/STM32H7_XPD/inc/xpd_dma.h ****  *            @arg TE:      Transfer Error Interrupt
 205:STM32_XPD/STM32H7_XPD/inc/xpd_dma.h ****  *            @arg DME:     Direct Mode Error Interrupt
 206:STM32_XPD/STM32H7_XPD/inc/xpd_dma.h ****  *            @arg FE:      FIFO Error Interrupt
 207:STM32_XPD/STM32H7_XPD/inc/xpd_dma.h ****  */
 208:STM32_XPD/STM32H7_XPD/inc/xpd_dma.h **** #define         DMA_IT_DISABLE(HANDLE, IT_NAME)             \
 209:STM32_XPD/STM32H7_XPD/inc/xpd_dma.h ****     __XPD_DMA_ITConfig_##IT_NAME(HANDLE, 0)
 210:STM32_XPD/STM32H7_XPD/inc/xpd_dma.h **** 
 211:STM32_XPD/STM32H7_XPD/inc/xpd_dma.h **** /**
 212:STM32_XPD/STM32H7_XPD/inc/xpd_dma.h ****  * @brief  Get the specified DMA flag.
 213:STM32_XPD/STM32H7_XPD/inc/xpd_dma.h ****  * @param  HANDLE: specifies the DMA Handle.
ARM GAS  /tmp/ccgNvlLN.s 			page 7


 214:STM32_XPD/STM32H7_XPD/inc/xpd_dma.h ****  * @param  FLAG_NAME: specifies the flag to return.
 215:STM32_XPD/STM32H7_XPD/inc/xpd_dma.h ****  *         This parameter can be one of the following values:
 216:STM32_XPD/STM32H7_XPD/inc/xpd_dma.h ****  *            @arg TC:      Transfer Complete
 217:STM32_XPD/STM32H7_XPD/inc/xpd_dma.h ****  *            @arg HT:      Half Transfer Complete
 218:STM32_XPD/STM32H7_XPD/inc/xpd_dma.h ****  *            @arg TE:      Transfer Error
 219:STM32_XPD/STM32H7_XPD/inc/xpd_dma.h ****  *            @arg DME:     Direct Mode Error
 220:STM32_XPD/STM32H7_XPD/inc/xpd_dma.h ****  *            @arg FE:      FIFO Error
 221:STM32_XPD/STM32H7_XPD/inc/xpd_dma.h ****  */
 222:STM32_XPD/STM32H7_XPD/inc/xpd_dma.h **** #define         DMA_FLAG_STATUS(HANDLE, FLAG_NAME)          \
 223:STM32_XPD/STM32H7_XPD/inc/xpd_dma.h ****     (((HANDLE)->Base->LISR.w >> (DMA_LISR_##FLAG_NAME##IF0_Pos \
 224:STM32_XPD/STM32H7_XPD/inc/xpd_dma.h ****             + (uint32_t)((HANDLE)->StreamOffset))) & 1)
 225:STM32_XPD/STM32H7_XPD/inc/xpd_dma.h **** 
 226:STM32_XPD/STM32H7_XPD/inc/xpd_dma.h **** /**
 227:STM32_XPD/STM32H7_XPD/inc/xpd_dma.h ****  * @brief  Clear the specified DMA flag.
 228:STM32_XPD/STM32H7_XPD/inc/xpd_dma.h ****  * @param  HANDLE: specifies the DMA Handle.
 229:STM32_XPD/STM32H7_XPD/inc/xpd_dma.h ****  * @param  FLAG_NAME: specifies the flag to clear.
 230:STM32_XPD/STM32H7_XPD/inc/xpd_dma.h ****  *         This parameter can be one of the following values:
 231:STM32_XPD/STM32H7_XPD/inc/xpd_dma.h ****  *            @arg TC:      Transfer Complete
 232:STM32_XPD/STM32H7_XPD/inc/xpd_dma.h ****  *            @arg HT:      Half Transfer Complete
 233:STM32_XPD/STM32H7_XPD/inc/xpd_dma.h ****  *            @arg TE:      Transfer Error
 234:STM32_XPD/STM32H7_XPD/inc/xpd_dma.h ****  *            @arg DME:     Direct Mode Error
 235:STM32_XPD/STM32H7_XPD/inc/xpd_dma.h ****  *            @arg FE:      FIFO Error
 236:STM32_XPD/STM32H7_XPD/inc/xpd_dma.h ****  */
 237:STM32_XPD/STM32H7_XPD/inc/xpd_dma.h **** #define         DMA_FLAG_CLEAR(HANDLE, FLAG_NAME)           \
 238:STM32_XPD/STM32H7_XPD/inc/xpd_dma.h ****     ((HANDLE)->Base->LIFCR.w = (DMA_LIFCR_C##FLAG_NAME##IF0 \
 239:STM32_XPD/STM32H7_XPD/inc/xpd_dma.h ****             << (uint32_t)((HANDLE)->StreamOffset)))
 240:STM32_XPD/STM32H7_XPD/inc/xpd_dma.h **** 
 241:STM32_XPD/STM32H7_XPD/inc/xpd_dma.h **** #define         __XPD_DMA_ITConfig_TC(HANDLE,VALUE)         \
 242:STM32_XPD/STM32H7_XPD/inc/xpd_dma.h ****     (DMA_REG_BIT((HANDLE),CR,TCIE) = (VALUE))
 243:STM32_XPD/STM32H7_XPD/inc/xpd_dma.h **** #define         __XPD_DMA_ITConfig_TE(HANDLE,VALUE)         \
 244:STM32_XPD/STM32H7_XPD/inc/xpd_dma.h ****     (DMA_REG_BIT((HANDLE),CR,TEIE) = (VALUE))
 245:STM32_XPD/STM32H7_XPD/inc/xpd_dma.h **** #define         __XPD_DMA_ITConfig_HT(HANDLE,VALUE)         \
 246:STM32_XPD/STM32H7_XPD/inc/xpd_dma.h ****     (DMA_REG_BIT((HANDLE),CR,HTIE) = (VALUE))
 247:STM32_XPD/STM32H7_XPD/inc/xpd_dma.h **** #define         __XPD_DMA_ITConfig_DME(HANDLE,VALUE)        \
 248:STM32_XPD/STM32H7_XPD/inc/xpd_dma.h ****     (DMA_REG_BIT((HANDLE),CR,DMEIE) = (VALUE))
 249:STM32_XPD/STM32H7_XPD/inc/xpd_dma.h **** #define         __XPD_DMA_ITConfig_FE(HANDLE,VALUE)         \
 250:STM32_XPD/STM32H7_XPD/inc/xpd_dma.h ****     (DMA_REG_BIT((HANDLE),FCR,FEIE) = (VALUE))
 251:STM32_XPD/STM32H7_XPD/inc/xpd_dma.h **** 
 252:STM32_XPD/STM32H7_XPD/inc/xpd_dma.h **** /** @} */
 253:STM32_XPD/STM32H7_XPD/inc/xpd_dma.h **** 
 254:STM32_XPD/STM32H7_XPD/inc/xpd_dma.h **** /** @addtogroup DMA_Exported_Functions
 255:STM32_XPD/STM32H7_XPD/inc/xpd_dma.h ****  * @{ */
 256:STM32_XPD/STM32H7_XPD/inc/xpd_dma.h **** void            DMA_vInit           (DMA_HandleType * pxDMA, const DMA_InitType * pxConfig);
 257:STM32_XPD/STM32H7_XPD/inc/xpd_dma.h **** void            DMA_vDeinit         (DMA_HandleType * pxDMA);
 258:STM32_XPD/STM32H7_XPD/inc/xpd_dma.h **** 
 259:STM32_XPD/STM32H7_XPD/inc/xpd_dma.h **** XPD_ReturnType  DMA_eStart          (DMA_HandleType * pxDMA, void * pvPeriphAddress,
 260:STM32_XPD/STM32H7_XPD/inc/xpd_dma.h ****                                      void * pvMemAddress, uint16_t usDataCount);
 261:STM32_XPD/STM32H7_XPD/inc/xpd_dma.h **** XPD_ReturnType  DMA_eStart_IT       (DMA_HandleType * pxDMA, void * pvPeriphAddress,
 262:STM32_XPD/STM32H7_XPD/inc/xpd_dma.h ****                                      void * pvMemAddress, uint16_t usDataCount);
 263:STM32_XPD/STM32H7_XPD/inc/xpd_dma.h **** void            DMA_vStop           (DMA_HandleType * pxDMA);
 264:STM32_XPD/STM32H7_XPD/inc/xpd_dma.h **** void            DMA_vStop_IT        (DMA_HandleType * pxDMA);
 265:STM32_XPD/STM32H7_XPD/inc/xpd_dma.h **** 
 266:STM32_XPD/STM32H7_XPD/inc/xpd_dma.h **** uint16_t        DMA_usGetStatus     (DMA_HandleType * pxDMA);
 267:STM32_XPD/STM32H7_XPD/inc/xpd_dma.h **** XPD_ReturnType  DMA_ePollStatus     (DMA_HandleType * pxDMA, DMA_OperationType eOperation,
 268:STM32_XPD/STM32H7_XPD/inc/xpd_dma.h ****                                      uint32_t ulTimeout);
 269:STM32_XPD/STM32H7_XPD/inc/xpd_dma.h **** 
 270:STM32_XPD/STM32H7_XPD/inc/xpd_dma.h **** void            DMA_vIRQHandler     (DMA_HandleType * pxDMA);
ARM GAS  /tmp/ccgNvlLN.s 			page 8


 271:STM32_XPD/STM32H7_XPD/inc/xpd_dma.h **** 
 272:STM32_XPD/STM32H7_XPD/inc/xpd_dma.h **** uint32_t        DMA_ulActiveMemory  (DMA_HandleType * pxDMA);
 273:STM32_XPD/STM32H7_XPD/inc/xpd_dma.h **** void            DMA_vSetSwapMemory  (DMA_HandleType * pxDMA, void * pvAddress);
 274:STM32_XPD/STM32H7_XPD/inc/xpd_dma.h **** 
 275:STM32_XPD/STM32H7_XPD/inc/xpd_dma.h **** /**
 276:STM32_XPD/STM32H7_XPD/inc/xpd_dma.h ****  * @brief  Provides the circular mode of DMA stream.
 277:STM32_XPD/STM32H7_XPD/inc/xpd_dma.h ****  * @param  HANDLE: specifies the DMA Handle.
 278:STM32_XPD/STM32H7_XPD/inc/xpd_dma.h ****  */
 279:STM32_XPD/STM32H7_XPD/inc/xpd_dma.h **** __STATIC_INLINE bool DMA_eCircularMode(DMA_HandleType * pxDMA)
  45              		.loc 2 279 22 view .LVU5
  46              	.LBB28:
 280:STM32_XPD/STM32H7_XPD/inc/xpd_dma.h **** {
 281:STM32_XPD/STM32H7_XPD/inc/xpd_dma.h ****   return pxDMA->Inst->CR & DMA_SxCR_CIRC;
  47              		.loc 2 281 3 view .LVU6
  48              		.loc 2 281 21 is_stmt 0 view .LVU7
  49 0004 1B68     		ldr	r3, [r3]
  50 0006 0268     		ldr	r2, [r0]
  51              	.LBE28:
  52              	.LBE27:
  53              		.loc 1 85 8 view .LVU8
  54 0008 13F48073 		ands	r3, r3, #256
  55 000c 14D1     		bne	.L8
  86:STM32_XPD/STM32H7_XPD/src/xpd_usart.c ****     {
  87:STM32_XPD/STM32H7_XPD/src/xpd_usart.c ****         /* Disable Tx DMA Request */
  88:STM32_XPD/STM32H7_XPD/src/xpd_usart.c ****         pxUSART->Inst->CR3 &= ~USART_CR3_DMAT;
  56              		.loc 1 88 9 is_stmt 1 view .LVU9
  89:STM32_XPD/STM32H7_XPD/src/xpd_usart.c **** 
  90:STM32_XPD/STM32H7_XPD/src/xpd_usart.c ****         /* Update stream status */
  91:STM32_XPD/STM32H7_XPD/src/xpd_usart.c ****         pxUSART->TxStream.buffer += pxUSART->TxStream.length * pxUSART->TxStream.size;
  57              		.loc 1 91 54 is_stmt 0 view .LVU10
  58 000e 818E     		ldrh	r1, [r0, #52]
  81:STM32_XPD/STM32H7_XPD/src/xpd_usart.c ****     USART_HandleType * pxUSART = (USART_HandleType*) ((DMA_HandleType*) pxDMA)->Owner;
  59              		.loc 1 81 1 view .LVU11
  60 0010 70B4     		push	{r4, r5, r6}
  61              	.LCFI0:
  62              		.cfi_def_cfa_offset 12
  63              		.cfi_offset 4, -12
  64              		.cfi_offset 5, -8
  65              		.cfi_offset 6, -4
  88:STM32_XPD/STM32H7_XPD/src/xpd_usart.c **** 
  66              		.loc 1 88 28 view .LVU12
  67 0012 9468     		ldr	r4, [r2, #8]
  68              		.loc 1 91 34 view .LVU13
  69 0014 056B     		ldr	r5, [r0, #48]
  88:STM32_XPD/STM32H7_XPD/src/xpd_usart.c **** 
  70              		.loc 1 88 28 view .LVU14
  71 0016 24F08004 		bic	r4, r4, #128
  72              		.loc 1 91 81 view .LVU15
  73 001a C68E     		ldrh	r6, [r0, #54]
  88:STM32_XPD/STM32H7_XPD/src/xpd_usart.c **** 
  74              		.loc 1 88 28 view .LVU16
  75 001c 9460     		str	r4, [r2, #8]
  76              		.loc 1 91 9 is_stmt 1 view .LVU17
  92:STM32_XPD/STM32H7_XPD/src/xpd_usart.c ****         pxUSART->TxStream.length = 0;
  77              		.loc 1 92 34 is_stmt 0 view .LVU18
  78 001e 8386     		strh	r3, [r0, #52]	@ movhi
  93:STM32_XPD/STM32H7_XPD/src/xpd_usart.c ****     }
ARM GAS  /tmp/ccgNvlLN.s 			page 9


  94:STM32_XPD/STM32H7_XPD/src/xpd_usart.c **** 
  95:STM32_XPD/STM32H7_XPD/src/xpd_usart.c ****     /* If the completion of the character sending isn't waited for,
  96:STM32_XPD/STM32H7_XPD/src/xpd_usart.c ****      * provide callback now */
  97:STM32_XPD/STM32H7_XPD/src/xpd_usart.c ****     if ((pxUSART->Inst->CR1 & USART_CR1_TCIE) == 0)
  79              		.loc 1 97 23 view .LVU19
  80 0020 1368     		ldr	r3, [r2]
  91:STM32_XPD/STM32H7_XPD/src/xpd_usart.c ****         pxUSART->TxStream.length = 0;
  81              		.loc 1 91 34 view .LVU20
  82 0022 06FB0151 		mla	r1, r6, r1, r5
  83              		.loc 1 97 8 view .LVU21
  84 0026 5A06     		lsls	r2, r3, #25
  91:STM32_XPD/STM32H7_XPD/src/xpd_usart.c ****         pxUSART->TxStream.length = 0;
  85              		.loc 1 91 34 view .LVU22
  86 0028 0163     		str	r1, [r0, #48]
  92:STM32_XPD/STM32H7_XPD/src/xpd_usart.c ****         pxUSART->TxStream.length = 0;
  87              		.loc 1 92 9 is_stmt 1 view .LVU23
  88              		.loc 1 97 5 view .LVU24
  89              		.loc 1 97 8 is_stmt 0 view .LVU25
  90 002a 03D4     		bmi	.L1
  98:STM32_XPD/STM32H7_XPD/src/xpd_usart.c ****     {
  99:STM32_XPD/STM32H7_XPD/src/xpd_usart.c ****         XPD_SAFE_CALLBACK(pxUSART->Callbacks.Transmit, pxUSART);
  91              		.loc 1 99 9 is_stmt 1 view .LVU26
  92              		.loc 1 99 9 view .LVU27
  93 002c C368     		ldr	r3, [r0, #12]
  94 002e 0BB1     		cbz	r3, .L1
  95              		.loc 1 99 9 discriminator 1 view .LVU28
 100:STM32_XPD/STM32H7_XPD/src/xpd_usart.c ****     }
 101:STM32_XPD/STM32H7_XPD/src/xpd_usart.c **** }
  96              		.loc 1 101 1 is_stmt 0 discriminator 1 view .LVU29
  97 0030 70BC     		pop	{r4, r5, r6}
  98              	.LCFI1:
  99              		.cfi_remember_state
 100              		.cfi_restore 6
 101              		.cfi_restore 5
 102              		.cfi_restore 4
 103              		.cfi_def_cfa_offset 0
  99:STM32_XPD/STM32H7_XPD/src/xpd_usart.c ****     }
 104              		.loc 1 99 9 discriminator 1 view .LVU30
 105 0032 1847     		bx	r3	@ indirect register sibling call
 106              	.LVL2:
 107              	.L1:
 108              	.LCFI2:
 109              		.cfi_restore_state
 110              		.loc 1 101 1 view .LVU31
 111 0034 70BC     		pop	{r4, r5, r6}
 112              	.LCFI3:
 113              		.cfi_restore 6
 114              		.cfi_restore 5
 115              		.cfi_restore 4
 116              		.cfi_def_cfa_offset 0
 117 0036 7047     		bx	lr
 118              	.L8:
  97:STM32_XPD/STM32H7_XPD/src/xpd_usart.c ****     {
 119              		.loc 1 97 5 is_stmt 1 view .LVU32
  97:STM32_XPD/STM32H7_XPD/src/xpd_usart.c ****     {
 120              		.loc 1 97 23 is_stmt 0 view .LVU33
 121 0038 1368     		ldr	r3, [r2]
ARM GAS  /tmp/ccgNvlLN.s 			page 10


  97:STM32_XPD/STM32H7_XPD/src/xpd_usart.c ****     {
 122              		.loc 1 97 8 view .LVU34
 123 003a 5B06     		lsls	r3, r3, #25
 124 003c 02D4     		bmi	.L10
  99:STM32_XPD/STM32H7_XPD/src/xpd_usart.c ****     }
 125              		.loc 1 99 9 is_stmt 1 view .LVU35
  99:STM32_XPD/STM32H7_XPD/src/xpd_usart.c ****     }
 126              		.loc 1 99 9 view .LVU36
 127 003e C368     		ldr	r3, [r0, #12]
 128 0040 03B1     		cbz	r3, .L10
  99:STM32_XPD/STM32H7_XPD/src/xpd_usart.c ****     }
 129              		.loc 1 99 9 view .LVU37
 130 0042 1847     		bx	r3	@ indirect register sibling call
 131              	.LVL3:
 132              	.L10:
  99:STM32_XPD/STM32H7_XPD/src/xpd_usart.c ****     }
 133              		.loc 1 99 9 is_stmt 0 view .LVU38
 134 0044 7047     		bx	lr
 135              		.cfi_endproc
 136              	.LFE168:
 138 0046 00BF     		.section	.text.USART_prvDmaReceiveRedirect,"ax",%progbits
 139              		.align	1
 140              		.p2align 2,,3
 141              		.syntax unified
 142              		.thumb
 143              		.thumb_func
 144              		.fpu fpv4-sp-d16
 146              	USART_prvDmaReceiveRedirect:
 147              	.LVL4:
 148              	.LFB169:
 102:STM32_XPD/STM32H7_XPD/src/xpd_usart.c **** 
 103:STM32_XPD/STM32H7_XPD/src/xpd_usart.c **** static void USART_prvDmaReceiveRedirect(void *pxDMA)
 104:STM32_XPD/STM32H7_XPD/src/xpd_usart.c **** {
 149              		.loc 1 104 1 is_stmt 1 view -0
 150              		.cfi_startproc
 151              		@ args = 0, pretend = 0, frame = 0
 152              		@ frame_needed = 0, uses_anonymous_args = 0
 153              		@ link register save eliminated.
 105:STM32_XPD/STM32H7_XPD/src/xpd_usart.c ****     USART_HandleType * pxUSART = (USART_HandleType*) ((DMA_HandleType*) pxDMA)->Owner;
 154              		.loc 1 105 5 view .LVU40
 106:STM32_XPD/STM32H7_XPD/src/xpd_usart.c **** 
 107:STM32_XPD/STM32H7_XPD/src/xpd_usart.c ****     /* DMA normal mode */
 108:STM32_XPD/STM32H7_XPD/src/xpd_usart.c ****     if (DMA_eCircularMode((DMA_HandleType*)pxDMA) == 0)
 155              		.loc 1 108 9 is_stmt 0 view .LVU41
 156 0000 0368     		ldr	r3, [r0]
 105:STM32_XPD/STM32H7_XPD/src/xpd_usart.c ****     USART_HandleType * pxUSART = (USART_HandleType*) ((DMA_HandleType*) pxDMA)->Owner;
 157              		.loc 1 105 24 view .LVU42
 158 0002 4069     		ldr	r0, [r0, #20]
 159              	.LVL5:
 160              		.loc 1 108 5 is_stmt 1 view .LVU43
 161              	.LBB29:
 162              	.LBI29:
 279:STM32_XPD/STM32H7_XPD/inc/xpd_dma.h **** {
 163              		.loc 2 279 22 view .LVU44
 164              	.LBB30:
 165              		.loc 2 281 3 view .LVU45
 166              		.loc 2 281 21 is_stmt 0 view .LVU46
ARM GAS  /tmp/ccgNvlLN.s 			page 11


 167 0004 1B68     		ldr	r3, [r3]
 168              	.LBE30:
 169              	.LBE29:
 170              		.loc 1 108 8 view .LVU47
 171 0006 13F48073 		ands	r3, r3, #256
 172 000a 10D1     		bne	.L19
 109:STM32_XPD/STM32H7_XPD/src/xpd_usart.c ****     {
 110:STM32_XPD/STM32H7_XPD/src/xpd_usart.c ****         /* Disable Rx DMA Request */
 111:STM32_XPD/STM32H7_XPD/src/xpd_usart.c ****         pxUSART->Inst->CR3 &= ~USART_CR3_DMAR;
 173              		.loc 1 111 9 is_stmt 1 view .LVU48
 112:STM32_XPD/STM32H7_XPD/src/xpd_usart.c **** 
 113:STM32_XPD/STM32H7_XPD/src/xpd_usart.c ****         /* Update stream status */
 114:STM32_XPD/STM32H7_XPD/src/xpd_usart.c ****         pxUSART->RxStream.buffer += pxUSART->RxStream.length * pxUSART->RxStream.size;
 174              		.loc 1 114 54 is_stmt 0 view .LVU49
 175 000c 828D     		ldrh	r2, [r0, #44]
 104:STM32_XPD/STM32H7_XPD/src/xpd_usart.c ****     USART_HandleType * pxUSART = (USART_HandleType*) ((DMA_HandleType*) pxDMA)->Owner;
 176              		.loc 1 104 1 view .LVU50
 177 000e 70B4     		push	{r4, r5, r6}
 178              	.LCFI4:
 179              		.cfi_def_cfa_offset 12
 180              		.cfi_offset 4, -12
 181              		.cfi_offset 5, -8
 182              		.cfi_offset 6, -4
 111:STM32_XPD/STM32H7_XPD/src/xpd_usart.c **** 
 183              		.loc 1 111 16 view .LVU51
 184 0010 0468     		ldr	r4, [r0]
 185              		.loc 1 114 34 view .LVU52
 186 0012 856A     		ldr	r5, [r0, #40]
 111:STM32_XPD/STM32H7_XPD/src/xpd_usart.c **** 
 187              		.loc 1 111 28 view .LVU53
 188 0014 A168     		ldr	r1, [r4, #8]
 189              		.loc 1 114 81 view .LVU54
 190 0016 C68D     		ldrh	r6, [r0, #46]
 111:STM32_XPD/STM32H7_XPD/src/xpd_usart.c **** 
 191              		.loc 1 111 28 view .LVU55
 192 0018 21F04001 		bic	r1, r1, #64
 193              		.loc 1 114 34 view .LVU56
 194 001c 06FB0252 		mla	r2, r6, r2, r5
 111:STM32_XPD/STM32H7_XPD/src/xpd_usart.c **** 
 195              		.loc 1 111 28 view .LVU57
 196 0020 A160     		str	r1, [r4, #8]
 197              		.loc 1 114 9 is_stmt 1 view .LVU58
 115:STM32_XPD/STM32H7_XPD/src/xpd_usart.c ****         pxUSART->RxStream.length = 0;
 198              		.loc 1 115 34 is_stmt 0 view .LVU59
 199 0022 8385     		strh	r3, [r0, #44]	@ movhi
 116:STM32_XPD/STM32H7_XPD/src/xpd_usart.c ****     }
 117:STM32_XPD/STM32H7_XPD/src/xpd_usart.c ****     XPD_SAFE_CALLBACK(pxUSART->Callbacks.Receive, pxUSART);
 200              		.loc 1 117 5 view .LVU60
 201 0024 0369     		ldr	r3, [r0, #16]
 114:STM32_XPD/STM32H7_XPD/src/xpd_usart.c ****         pxUSART->RxStream.length = 0;
 202              		.loc 1 114 34 view .LVU61
 203 0026 8262     		str	r2, [r0, #40]
 115:STM32_XPD/STM32H7_XPD/src/xpd_usart.c ****         pxUSART->RxStream.length = 0;
 204              		.loc 1 115 9 is_stmt 1 view .LVU62
 205              		.loc 1 117 5 view .LVU63
 206              		.loc 1 117 5 view .LVU64
 207 0028 23B1     		cbz	r3, .L15
ARM GAS  /tmp/ccgNvlLN.s 			page 12


 208              		.loc 1 117 5 discriminator 1 view .LVU65
 118:STM32_XPD/STM32H7_XPD/src/xpd_usart.c **** }
 209              		.loc 1 118 1 is_stmt 0 discriminator 1 view .LVU66
 210 002a 70BC     		pop	{r4, r5, r6}
 211              	.LCFI5:
 212              		.cfi_restore 6
 213              		.cfi_restore 5
 214              		.cfi_restore 4
 215              		.cfi_def_cfa_offset 0
 117:STM32_XPD/STM32H7_XPD/src/xpd_usart.c **** }
 216              		.loc 1 117 5 discriminator 1 view .LVU67
 217 002c 1847     		bx	r3	@ indirect register sibling call
 218              	.LVL6:
 219              	.L19:
 117:STM32_XPD/STM32H7_XPD/src/xpd_usart.c **** }
 220              		.loc 1 117 5 is_stmt 1 view .LVU68
 117:STM32_XPD/STM32H7_XPD/src/xpd_usart.c **** }
 221              		.loc 1 117 5 view .LVU69
 222 002e 0369     		ldr	r3, [r0, #16]
 223 0030 13B1     		cbz	r3, .L21
 117:STM32_XPD/STM32H7_XPD/src/xpd_usart.c **** }
 224              		.loc 1 117 5 view .LVU70
 225 0032 1847     		bx	r3	@ indirect register sibling call
 226              	.LVL7:
 227              	.L15:
 228              	.LCFI6:
 229              		.cfi_def_cfa_offset 12
 230              		.cfi_offset 4, -12
 231              		.cfi_offset 5, -8
 232              		.cfi_offset 6, -4
 233              		.loc 1 118 1 is_stmt 0 view .LVU71
 234 0034 70BC     		pop	{r4, r5, r6}
 235              	.LCFI7:
 236              		.cfi_restore 6
 237              		.cfi_restore 5
 238              		.cfi_restore 4
 239              		.cfi_def_cfa_offset 0
 240 0036 7047     		bx	lr
 241              	.L21:
 242              		.loc 1 118 1 view .LVU72
 243 0038 7047     		bx	lr
 244              		.cfi_endproc
 245              	.LFE169:
 247 003a 00BF     		.section	.text.USART_prvPreinit,"ax",%progbits
 248              		.align	1
 249              		.p2align 2,,3
 250              		.syntax unified
 251              		.thumb
 252              		.thumb_func
 253              		.fpu fpv4-sp-d16
 255              	USART_prvPreinit:
 256              	.LVL8:
 257              	.LFB174:
 119:STM32_XPD/STM32H7_XPD/src/xpd_usart.c **** 
 120:STM32_XPD/STM32H7_XPD/src/xpd_usart.c **** /* Calculates and configures the baudrate */
 121:STM32_XPD/STM32H7_XPD/src/xpd_usart.c **** static void USART_prvSetBaudrate(USART_HandleType * pxUSART, uint32_t ulBaudrate)
 122:STM32_XPD/STM32H7_XPD/src/xpd_usart.c **** {
ARM GAS  /tmp/ccgNvlLN.s 			page 13


 123:STM32_XPD/STM32H7_XPD/src/xpd_usart.c **** #if (__USART_PERIPHERAL_VERSION > 1)
 124:STM32_XPD/STM32H7_XPD/src/xpd_usart.c ****     if ((pxUSART->Inst->CR1 & USART_CR1_OVER8) == 0)
 125:STM32_XPD/STM32H7_XPD/src/xpd_usart.c ****     {
 126:STM32_XPD/STM32H7_XPD/src/xpd_usart.c ****         pxUSART->Inst->BRR = (USART_ulClockFreq_Hz(pxUSART) + (ulBaudrate / 2)) / ulBaudrate;
 127:STM32_XPD/STM32H7_XPD/src/xpd_usart.c ****     }
 128:STM32_XPD/STM32H7_XPD/src/xpd_usart.c ****     else
 129:STM32_XPD/STM32H7_XPD/src/xpd_usart.c ****     {
 130:STM32_XPD/STM32H7_XPD/src/xpd_usart.c ****         uint32_t ulTmp = ((USART_ulClockFreq_Hz(pxUSART) * 2) + (ulBaudrate / 2)) / ulBaudrate;
 131:STM32_XPD/STM32H7_XPD/src/xpd_usart.c ****         pxUSART->Inst->BRR = (ulTmp & USART_BRR_DIV_MANTISSA) | ((ulTmp & USART_BRR_DIV_FRACTION) >
 132:STM32_XPD/STM32H7_XPD/src/xpd_usart.c ****     }
 133:STM32_XPD/STM32H7_XPD/src/xpd_usart.c **** #else
 134:STM32_XPD/STM32H7_XPD/src/xpd_usart.c ****     uint32_t ulOver8   = USART_REG_BIT(pxUSART, CR1, OVER8);
 135:STM32_XPD/STM32H7_XPD/src/xpd_usart.c ****     uint32_t ulDiv     = USART_ulClockFreq_Hz(pxUSART) * 25 / ((4 >> ulOver8) * ulBaudrate);
 136:STM32_XPD/STM32H7_XPD/src/xpd_usart.c ****     uint32_t ulDivMant = ulDiv / 100;
 137:STM32_XPD/STM32H7_XPD/src/xpd_usart.c ****     uint32_t ulDivFraq = ((ulDiv - (ulDivMant * 100)) * (16 >> ulOver8) + 50) / 100;
 138:STM32_XPD/STM32H7_XPD/src/xpd_usart.c **** 
 139:STM32_XPD/STM32H7_XPD/src/xpd_usart.c ****     /* Mantissa is filled with the USARTDIV integer part + fractional overflow */
 140:STM32_XPD/STM32H7_XPD/src/xpd_usart.c ****     pxUSART->Inst->BRR = ((ulDivMant + (ulDivFraw >> (4 - ulOver8))) << USART_BRR_DIV_MANTISSA_Pos)
 141:STM32_XPD/STM32H7_XPD/src/xpd_usart.c **** #endif
 142:STM32_XPD/STM32H7_XPD/src/xpd_usart.c **** }
 143:STM32_XPD/STM32H7_XPD/src/xpd_usart.c **** 
 144:STM32_XPD/STM32H7_XPD/src/xpd_usart.c **** /* Enables the USART peripheral */
 145:STM32_XPD/STM32H7_XPD/src/xpd_usart.c **** __STATIC_INLINE void USART_prvEnable(USART_HandleType * pxUSART)
 146:STM32_XPD/STM32H7_XPD/src/xpd_usart.c **** {
 147:STM32_XPD/STM32H7_XPD/src/xpd_usart.c ****     pxUSART->Inst->CR1 |= USART_CR1_UE;
 148:STM32_XPD/STM32H7_XPD/src/xpd_usart.c **** }
 149:STM32_XPD/STM32H7_XPD/src/xpd_usart.c **** 
 150:STM32_XPD/STM32H7_XPD/src/xpd_usart.c **** /* Disables the USART peripheral */
 151:STM32_XPD/STM32H7_XPD/src/xpd_usart.c **** __STATIC_INLINE void USART_prvDisable(USART_HandleType * pxUSART)
 152:STM32_XPD/STM32H7_XPD/src/xpd_usart.c **** {
 153:STM32_XPD/STM32H7_XPD/src/xpd_usart.c ****     pxUSART->Inst->CR1 &= ~USART_CR1_UE;
 154:STM32_XPD/STM32H7_XPD/src/xpd_usart.c **** }
 155:STM32_XPD/STM32H7_XPD/src/xpd_usart.c **** 
 156:STM32_XPD/STM32H7_XPD/src/xpd_usart.c **** #ifdef IS_UART_WAKEUP_FROMSTOP_INSTANCE
 157:STM32_XPD/STM32H7_XPD/src/xpd_usart.c **** static void USART_prvWaitIdle(USART_HandleType * pxUSART)
 158:STM32_XPD/STM32H7_XPD/src/xpd_usart.c **** {
 159:STM32_XPD/STM32H7_XPD/src/xpd_usart.c ****     uint32_t ulTimeout = 1000;
 160:STM32_XPD/STM32H7_XPD/src/xpd_usart.c ****     uint32_t ulFlags = (USART_ISR_TEACK | USART_ISR_REACK) &
 161:STM32_XPD/STM32H7_XPD/src/xpd_usart.c ****             ((pxUSART->Inst->CR1 & (USART_CR1_TE | USART_CR1_RE)) <<
 162:STM32_XPD/STM32H7_XPD/src/xpd_usart.c ****                     (USART_ISR_TEACK_Pos - USART_CR1_TE_Pos));
 163:STM32_XPD/STM32H7_XPD/src/xpd_usart.c **** 
 164:STM32_XPD/STM32H7_XPD/src/xpd_usart.c ****     (void) XPD_eWaitForMatch(&pxUSART->Inst->ISR, ulFlags, ulFlags, &ulTimeout);
 165:STM32_XPD/STM32H7_XPD/src/xpd_usart.c **** }
 166:STM32_XPD/STM32H7_XPD/src/xpd_usart.c **** #endif
 167:STM32_XPD/STM32H7_XPD/src/xpd_usart.c **** 
 168:STM32_XPD/STM32H7_XPD/src/xpd_usart.c **** static void USART_prvPreinit(USART_HandleType * pxUSART, uint8_t ucDataSize, USART_ParityType ePari
 169:STM32_XPD/STM32H7_XPD/src/xpd_usart.c **** {
 258              		.loc 1 169 1 is_stmt 1 view -0
 259              		.cfi_startproc
 260              		@ args = 0, pretend = 0, frame = 0
 261              		@ frame_needed = 0, uses_anonymous_args = 0
 170:STM32_XPD/STM32H7_XPD/src/xpd_usart.c ****     uint8_t ucFrameSize = ucDataSize + ((eParity != USART_PARITY_NONE) ? 1 : 0);
 262              		.loc 1 170 5 view .LVU74
 263              		.loc 1 170 13 is_stmt 0 view .LVU75
 264 0000 002A     		cmp	r2, #0
 265 0002 18BF     		it	ne
 266 0004 0131     		addne	r1, r1, #1
ARM GAS  /tmp/ccgNvlLN.s 			page 14


 267              	.LVL9:
 169:STM32_XPD/STM32H7_XPD/src/xpd_usart.c ****     uint8_t ucFrameSize = ucDataSize + ((eParity != USART_PARITY_NONE) ? 1 : 0);
 268              		.loc 1 169 1 view .LVU76
 269 0006 70B5     		push	{r4, r5, r6, lr}
 270              	.LCFI8:
 271              		.cfi_def_cfa_offset 16
 272              		.cfi_offset 4, -16
 273              		.cfi_offset 5, -12
 274              		.cfi_offset 6, -8
 275              		.cfi_offset 14, -4
 276              		.loc 1 170 76 view .LVU77
 277 0008 1546     		mov	r5, r2
 169:STM32_XPD/STM32H7_XPD/src/xpd_usart.c ****     uint8_t ucFrameSize = ucDataSize + ((eParity != USART_PARITY_NONE) ? 1 : 0);
 278              		.loc 1 169 1 view .LVU78
 279 000a 0446     		mov	r4, r0
 171:STM32_XPD/STM32H7_XPD/src/xpd_usart.c **** 
 172:STM32_XPD/STM32H7_XPD/src/xpd_usart.c ****     /* enable clock */
 173:STM32_XPD/STM32H7_XPD/src/xpd_usart.c ****     RCC_vClockEnable(pxUSART->CtrlPos);
 280              		.loc 1 173 5 view .LVU79
 281 000c 008F     		ldrh	r0, [r0, #56]
 282              	.LVL10:
 170:STM32_XPD/STM32H7_XPD/src/xpd_usart.c **** 
 283              		.loc 1 170 13 view .LVU80
 284 000e CEB2     		uxtb	r6, r1
 285              	.LVL11:
 286              		.loc 1 173 5 is_stmt 1 view .LVU81
 287 0010 FFF7FEFF 		bl	RCC_vClockEnable
 288              	.LVL12:
 174:STM32_XPD/STM32H7_XPD/src/xpd_usart.c **** 
 175:STM32_XPD/STM32H7_XPD/src/xpd_usart.c ****     pxUSART->Inst->CR1 = (eParity << USART_CR1_PS_Pos) & (USART_CR1_PS | USART_CR1_PCE);
 289              		.loc 1 175 5 view .LVU82
 290              		.loc 1 175 12 is_stmt 0 view .LVU83
 291 0014 2368     		ldr	r3, [r4]
 292              		.loc 1 175 35 view .LVU84
 293 0016 6A02     		lsls	r2, r5, #9
 176:STM32_XPD/STM32H7_XPD/src/xpd_usart.c ****     pxUSART->Inst->CR2 = 0;
 294              		.loc 1 176 24 view .LVU85
 295 0018 0021     		movs	r1, #0
 177:STM32_XPD/STM32H7_XPD/src/xpd_usart.c ****     pxUSART->Inst->CR3 = 0;
 178:STM32_XPD/STM32H7_XPD/src/xpd_usart.c **** 
 179:STM32_XPD/STM32H7_XPD/src/xpd_usart.c ****     /* Dependencies initialization */
 180:STM32_XPD/STM32H7_XPD/src/xpd_usart.c ****     XPD_SAFE_CALLBACK(pxUSART->Callbacks.DepInit, pxUSART);
 296              		.loc 1 180 5 view .LVU86
 297 001a 6568     		ldr	r5, [r4, #4]
 175:STM32_XPD/STM32H7_XPD/src/xpd_usart.c ****     pxUSART->Inst->CR2 = 0;
 298              		.loc 1 175 56 view .LVU87
 299 001c 02F4C062 		and	r2, r2, #1536
 175:STM32_XPD/STM32H7_XPD/src/xpd_usart.c ****     pxUSART->Inst->CR2 = 0;
 300              		.loc 1 175 24 view .LVU88
 301 0020 1A60     		str	r2, [r3]
 176:STM32_XPD/STM32H7_XPD/src/xpd_usart.c ****     pxUSART->Inst->CR2 = 0;
 302              		.loc 1 176 5 is_stmt 1 view .LVU89
 176:STM32_XPD/STM32H7_XPD/src/xpd_usart.c ****     pxUSART->Inst->CR2 = 0;
 303              		.loc 1 176 24 is_stmt 0 view .LVU90
 304 0022 5960     		str	r1, [r3, #4]
 177:STM32_XPD/STM32H7_XPD/src/xpd_usart.c ****     pxUSART->Inst->CR3 = 0;
 305              		.loc 1 177 5 is_stmt 1 view .LVU91
ARM GAS  /tmp/ccgNvlLN.s 			page 15


 177:STM32_XPD/STM32H7_XPD/src/xpd_usart.c ****     pxUSART->Inst->CR3 = 0;
 306              		.loc 1 177 24 is_stmt 0 view .LVU92
 307 0024 9960     		str	r1, [r3, #8]
 308              		.loc 1 180 5 is_stmt 1 view .LVU93
 309              		.loc 1 180 5 view .LVU94
 310 0026 15B1     		cbz	r5, .L25
 311              		.loc 1 180 5 discriminator 1 view .LVU95
 312 0028 2046     		mov	r0, r4
 313 002a A847     		blx	r5
 314              	.LVL13:
 315 002c 2368     		ldr	r3, [r4]
 316              	.L25:
 317              		.loc 1 180 5 discriminator 3 view .LVU96
 181:STM32_XPD/STM32H7_XPD/src/xpd_usart.c **** 
 182:STM32_XPD/STM32H7_XPD/src/xpd_usart.c **** #ifdef USART_CR1_M1
 183:STM32_XPD/STM32H7_XPD/src/xpd_usart.c ****     if (ucFrameSize > 8) {
 318              		.loc 1 183 5 discriminator 3 view .LVU97
 319              		.loc 1 183 8 is_stmt 0 discriminator 3 view .LVU98
 320 002e 082E     		cmp	r6, #8
 321 0030 11D9     		bls	.L26
 184:STM32_XPD/STM32H7_XPD/src/xpd_usart.c ****       pxUSART->Inst->CR1 |= USART_CR1_M0;
 322              		.loc 1 184 7 is_stmt 1 view .LVU99
 323              		.loc 1 184 26 is_stmt 0 view .LVU100
 324 0032 1A68     		ldr	r2, [r3]
 325 0034 42F48052 		orr	r2, r2, #4096
 326 0038 1A60     		str	r2, [r3]
 185:STM32_XPD/STM32H7_XPD/src/xpd_usart.c ****     }
 186:STM32_XPD/STM32H7_XPD/src/xpd_usart.c ****     if (ucFrameSize < 8) {
 327              		.loc 1 186 5 is_stmt 1 view .LVU101
 328              	.L27:
 187:STM32_XPD/STM32H7_XPD/src/xpd_usart.c ****       pxUSART->Inst->CR1 |= USART_CR1_M1;
 188:STM32_XPD/STM32H7_XPD/src/xpd_usart.c ****     }
 189:STM32_XPD/STM32H7_XPD/src/xpd_usart.c **** #else
 190:STM32_XPD/STM32H7_XPD/src/xpd_usart.c ****     if (ucFrameSize > 8) {
 191:STM32_XPD/STM32H7_XPD/src/xpd_usart.c ****       pxUSART->Inst->CR1 |= USART_CR1_M;
 192:STM32_XPD/STM32H7_XPD/src/xpd_usart.c ****     }
 193:STM32_XPD/STM32H7_XPD/src/xpd_usart.c **** #endif
 194:STM32_XPD/STM32H7_XPD/src/xpd_usart.c **** 
 195:STM32_XPD/STM32H7_XPD/src/xpd_usart.c ****     /* Set data transfer size */
 196:STM32_XPD/STM32H7_XPD/src/xpd_usart.c ****     switch (pxUSART->Inst->CR1 & (USART_CR1_M | USART_CR1_PCE))
 329              		.loc 1 196 5 view .LVU102
 330              		.loc 1 196 26 is_stmt 0 view .LVU103
 331 003a 1968     		ldr	r1, [r3]
 197:STM32_XPD/STM32H7_XPD/src/xpd_usart.c ****     {
 198:STM32_XPD/STM32H7_XPD/src/xpd_usart.c ****         /* data size = 9, no parity -> mask = 0x1FF */
 199:STM32_XPD/STM32H7_XPD/src/xpd_usart.c **** #ifdef USART_CR1_M0
 200:STM32_XPD/STM32H7_XPD/src/xpd_usart.c ****         case USART_CR1_M0:
 201:STM32_XPD/STM32H7_XPD/src/xpd_usart.c **** #else
 202:STM32_XPD/STM32H7_XPD/src/xpd_usart.c ****         case USART_CR1_M:
 203:STM32_XPD/STM32H7_XPD/src/xpd_usart.c **** #endif
 204:STM32_XPD/STM32H7_XPD/src/xpd_usart.c ****             pxUSART->TxStream.size = pxUSART->RxStream.size = 2;
 205:STM32_XPD/STM32H7_XPD/src/xpd_usart.c ****             break;
 206:STM32_XPD/STM32H7_XPD/src/xpd_usart.c **** 
 207:STM32_XPD/STM32H7_XPD/src/xpd_usart.c **** #ifdef USART_CR1_M1
 208:STM32_XPD/STM32H7_XPD/src/xpd_usart.c ****         /* data size = 7 including parity -> mask = 0x3F */
 209:STM32_XPD/STM32H7_XPD/src/xpd_usart.c ****         case USART_CR1_M1 | USART_CR1_PCE:
 210:STM32_XPD/STM32H7_XPD/src/xpd_usart.c ****         /* data size = 8 including parity -> mask = 0x7F */
ARM GAS  /tmp/ccgNvlLN.s 			page 16


 211:STM32_XPD/STM32H7_XPD/src/xpd_usart.c ****         case USART_CR1_M1:
 212:STM32_XPD/STM32H7_XPD/src/xpd_usart.c **** #endif
 213:STM32_XPD/STM32H7_XPD/src/xpd_usart.c ****         /* data size = 8 including parity -> mask = 0x7F */
 214:STM32_XPD/STM32H7_XPD/src/xpd_usart.c ****         case USART_CR1_PCE:
 215:STM32_XPD/STM32H7_XPD/src/xpd_usart.c ****         /* data size = 8, or = 9 with parity -> mask = 0xFF */
 216:STM32_XPD/STM32H7_XPD/src/xpd_usart.c ****         default:
 217:STM32_XPD/STM32H7_XPD/src/xpd_usart.c ****             pxUSART->TxStream.size = pxUSART->RxStream.size = 1;
 218:STM32_XPD/STM32H7_XPD/src/xpd_usart.c ****             break;
 219:STM32_XPD/STM32H7_XPD/src/xpd_usart.c ****     }
 220:STM32_XPD/STM32H7_XPD/src/xpd_usart.c ****     pxUSART->TxStream.length = pxUSART->RxStream.length = 0;
 332              		.loc 1 220 57 view .LVU104
 333 003c 0022     		movs	r2, #0
 196:STM32_XPD/STM32H7_XPD/src/xpd_usart.c ****     {
 334              		.loc 1 196 32 view .LVU105
 335 003e 094B     		ldr	r3, .L34
 336              		.loc 1 220 57 view .LVU106
 337 0040 A285     		strh	r2, [r4, #44]	@ movhi
 196:STM32_XPD/STM32H7_XPD/src/xpd_usart.c ****     {
 338              		.loc 1 196 32 view .LVU107
 339 0042 0B40     		ands	r3, r3, r1
 340              		.loc 1 220 30 view .LVU108
 341 0044 A286     		strh	r2, [r4, #52]	@ movhi
 217:STM32_XPD/STM32H7_XPD/src/xpd_usart.c ****             break;
 342              		.loc 1 217 61 view .LVU109
 343 0046 B3F5805F 		cmp	r3, #4096
 344 004a 0CBF     		ite	eq
 345 004c 0223     		moveq	r3, #2
 346 004e 0123     		movne	r3, #1
 347 0050 E386     		strh	r3, [r4, #54]	@ movhi
 348 0052 E385     		strh	r3, [r4, #46]	@ movhi
 349              		.loc 1 220 5 is_stmt 1 view .LVU110
 221:STM32_XPD/STM32H7_XPD/src/xpd_usart.c **** }
 350              		.loc 1 221 1 is_stmt 0 view .LVU111
 351 0054 70BD     		pop	{r4, r5, r6, pc}
 352              	.LVL14:
 353              	.L26:
 186:STM32_XPD/STM32H7_XPD/src/xpd_usart.c ****       pxUSART->Inst->CR1 |= USART_CR1_M1;
 354              		.loc 1 186 5 is_stmt 1 view .LVU112
 186:STM32_XPD/STM32H7_XPD/src/xpd_usart.c ****       pxUSART->Inst->CR1 |= USART_CR1_M1;
 355              		.loc 1 186 8 is_stmt 0 view .LVU113
 356 0056 F0D0     		beq	.L27
 187:STM32_XPD/STM32H7_XPD/src/xpd_usart.c ****     }
 357              		.loc 1 187 7 is_stmt 1 view .LVU114
 187:STM32_XPD/STM32H7_XPD/src/xpd_usart.c ****     }
 358              		.loc 1 187 26 is_stmt 0 view .LVU115
 359 0058 1A68     		ldr	r2, [r3]
 360 005a 42F08052 		orr	r2, r2, #268435456
 361 005e 1A60     		str	r2, [r3]
 362 0060 EBE7     		b	.L27
 363              	.L35:
 364 0062 00BF     		.align	2
 365              	.L34:
 366 0064 00140010 		.word	268440576
 367              		.cfi_endproc
 368              	.LFE174:
 370              		.section	.text.USART_vDeinit,"ax",%progbits
 371              		.align	1
ARM GAS  /tmp/ccgNvlLN.s 			page 17


 372              		.p2align 2,,3
 373              		.global	USART_vDeinit
 374              		.syntax unified
 375              		.thumb
 376              		.thumb_func
 377              		.fpu fpv4-sp-d16
 379              	USART_vDeinit:
 380              	.LVL15:
 381              	.LFB175:
 222:STM32_XPD/STM32H7_XPD/src/xpd_usart.c **** 
 223:STM32_XPD/STM32H7_XPD/src/xpd_usart.c **** /** @defgroup USART_Common_Exported_Functions USART Common Exported Functions
 224:STM32_XPD/STM32H7_XPD/src/xpd_usart.c ****  * @{ */
 225:STM32_XPD/STM32H7_XPD/src/xpd_usart.c **** 
 226:STM32_XPD/STM32H7_XPD/src/xpd_usart.c **** /**
 227:STM32_XPD/STM32H7_XPD/src/xpd_usart.c ****  * @brief Restores the USART peripheral to its default inactive state
 228:STM32_XPD/STM32H7_XPD/src/xpd_usart.c ****  * @param pxUSART: pointer to the USART handle structure
 229:STM32_XPD/STM32H7_XPD/src/xpd_usart.c ****  * @return ERROR if input is incorrect, OK if success
 230:STM32_XPD/STM32H7_XPD/src/xpd_usart.c ****  */
 231:STM32_XPD/STM32H7_XPD/src/xpd_usart.c **** void USART_vDeinit(USART_HandleType * pxUSART)
 232:STM32_XPD/STM32H7_XPD/src/xpd_usart.c **** {
 382              		.loc 1 232 1 is_stmt 1 view -0
 383              		.cfi_startproc
 384              		@ args = 0, pretend = 0, frame = 0
 385              		@ frame_needed = 0, uses_anonymous_args = 0
 233:STM32_XPD/STM32H7_XPD/src/xpd_usart.c ****     USART_prvDisable(pxUSART);
 386              		.loc 1 233 5 view .LVU117
 387 0000 0268     		ldr	r2, [r0]
 388              	.LBB31:
 389              	.LBI31:
 151:STM32_XPD/STM32H7_XPD/src/xpd_usart.c **** {
 390              		.loc 1 151 22 view .LVU118
 391              	.LVL16:
 392              	.LBB32:
 153:STM32_XPD/STM32H7_XPD/src/xpd_usart.c **** }
 393              		.loc 1 153 5 view .LVU119
 394              	.LBE32:
 395              	.LBE31:
 234:STM32_XPD/STM32H7_XPD/src/xpd_usart.c **** 
 235:STM32_XPD/STM32H7_XPD/src/xpd_usart.c ****     /* Deinitialize peripheral dependencies */
 236:STM32_XPD/STM32H7_XPD/src/xpd_usart.c ****     XPD_SAFE_CALLBACK(pxUSART->Callbacks.DepDeinit, pxUSART);
 396              		.loc 1 236 5 is_stmt 0 view .LVU120
 397 0002 8168     		ldr	r1, [r0, #8]
 398              	.LBB35:
 399              	.LBB33:
 153:STM32_XPD/STM32H7_XPD/src/xpd_usart.c **** }
 400              		.loc 1 153 24 view .LVU121
 401 0004 1368     		ldr	r3, [r2]
 402 0006 23F00103 		bic	r3, r3, #1
 403              	.LBE33:
 404              	.LBE35:
 232:STM32_XPD/STM32H7_XPD/src/xpd_usart.c ****     USART_prvDisable(pxUSART);
 405              		.loc 1 232 1 view .LVU122
 406 000a 10B5     		push	{r4, lr}
 407              	.LCFI9:
 408              		.cfi_def_cfa_offset 8
 409              		.cfi_offset 4, -8
 410              		.cfi_offset 14, -4
ARM GAS  /tmp/ccgNvlLN.s 			page 18


 232:STM32_XPD/STM32H7_XPD/src/xpd_usart.c ****     USART_prvDisable(pxUSART);
 411              		.loc 1 232 1 view .LVU123
 412 000c 0446     		mov	r4, r0
 413              	.LBB36:
 414              	.LBB34:
 153:STM32_XPD/STM32H7_XPD/src/xpd_usart.c **** }
 415              		.loc 1 153 24 view .LVU124
 416 000e 1360     		str	r3, [r2]
 417              	.LBE34:
 418              	.LBE36:
 419              		.loc 1 236 5 is_stmt 1 view .LVU125
 420              		.loc 1 236 5 view .LVU126
 421 0010 01B1     		cbz	r1, .L37
 422              		.loc 1 236 5 discriminator 1 view .LVU127
 423 0012 8847     		blx	r1
 424              	.LVL17:
 425              	.L37:
 426              		.loc 1 236 5 discriminator 3 view .LVU128
 237:STM32_XPD/STM32H7_XPD/src/xpd_usart.c **** 
 238:STM32_XPD/STM32H7_XPD/src/xpd_usart.c ****     /* disable clock */
 239:STM32_XPD/STM32H7_XPD/src/xpd_usart.c ****     RCC_vClockDisable(pxUSART->CtrlPos);
 427              		.loc 1 239 5 discriminator 3 view .LVU129
 428 0014 208F     		ldrh	r0, [r4, #56]
 240:STM32_XPD/STM32H7_XPD/src/xpd_usart.c **** }
 429              		.loc 1 240 1 is_stmt 0 discriminator 3 view .LVU130
 430 0016 BDE81040 		pop	{r4, lr}
 431              	.LCFI10:
 432              		.cfi_restore 14
 433              		.cfi_restore 4
 434              		.cfi_def_cfa_offset 0
 435              	.LVL18:
 239:STM32_XPD/STM32H7_XPD/src/xpd_usart.c **** }
 436              		.loc 1 239 5 discriminator 3 view .LVU131
 437 001a FFF7FEBF 		b	RCC_vClockDisable
 438              	.LVL19:
 439              		.cfi_endproc
 440              	.LFE175:
 442 001e 00BF     		.section	.text.USART_vSetDirection,"ax",%progbits
 443              		.align	1
 444              		.p2align 2,,3
 445              		.global	USART_vSetDirection
 446              		.syntax unified
 447              		.thumb
 448              		.thumb_func
 449              		.fpu fpv4-sp-d16
 451              	USART_vSetDirection:
 452              	.LVL20:
 453              	.LFB176:
 241:STM32_XPD/STM32H7_XPD/src/xpd_usart.c **** 
 242:STM32_XPD/STM32H7_XPD/src/xpd_usart.c **** /**
 243:STM32_XPD/STM32H7_XPD/src/xpd_usart.c ****  * @brief Sets the communication direction in half-duplex mode.
 244:STM32_XPD/STM32H7_XPD/src/xpd_usart.c ****  * @param pxUSART: pointer to the USART handle structure
 245:STM32_XPD/STM32H7_XPD/src/xpd_usart.c ****  * @param eDirection: desired communication direction(s)
 246:STM32_XPD/STM32H7_XPD/src/xpd_usart.c ****  */
 247:STM32_XPD/STM32H7_XPD/src/xpd_usart.c **** void USART_vSetDirection(USART_HandleType * pxUSART, USART_DirectionType eDirection)
 248:STM32_XPD/STM32H7_XPD/src/xpd_usart.c **** {
 454              		.loc 1 248 1 is_stmt 1 view -0
ARM GAS  /tmp/ccgNvlLN.s 			page 19


 455              		.cfi_startproc
 456              		@ args = 0, pretend = 0, frame = 0
 457              		@ frame_needed = 0, uses_anonymous_args = 0
 458              		@ link register save eliminated.
 249:STM32_XPD/STM32H7_XPD/src/xpd_usart.c ****     uint32_t ulCR1 = pxUSART->Inst->CR1;
 459              		.loc 1 249 5 view .LVU133
 460              		.loc 1 249 29 is_stmt 0 view .LVU134
 461 0000 0268     		ldr	r2, [r0]
 462              		.loc 1 249 14 view .LVU135
 463 0002 1368     		ldr	r3, [r2]
 464              	.LVL21:
 250:STM32_XPD/STM32H7_XPD/src/xpd_usart.c **** 
 251:STM32_XPD/STM32H7_XPD/src/xpd_usart.c ****     if ((ulCR1 & (USART_CR1_TE | USART_CR1_RE)) != eDirection)
 465              		.loc 1 251 5 is_stmt 1 view .LVU136
 466              		.loc 1 251 16 is_stmt 0 view .LVU137
 467 0004 03F00C00 		and	r0, r3, #12
 468              	.LVL22:
 469              		.loc 1 251 8 view .LVU138
 470 0008 8842     		cmp	r0, r1
 471 000a 06D0     		beq	.L42
 252:STM32_XPD/STM32H7_XPD/src/xpd_usart.c ****     {
 253:STM32_XPD/STM32H7_XPD/src/xpd_usart.c ****         CLEAR_BIT(ulCR1, USART_CR1_UE | USART_CR1_TE | USART_CR1_RE);
 472              		.loc 1 253 9 is_stmt 1 view .LVU139
 473 000c 23F00D03 		bic	r3, r3, #13
 474              	.LVL23:
 254:STM32_XPD/STM32H7_XPD/src/xpd_usart.c ****         pxUSART->Inst->CR1 = ulCR1;
 475              		.loc 1 254 9 view .LVU140
 255:STM32_XPD/STM32H7_XPD/src/xpd_usart.c ****         SET_BIT(ulCR1, USART_CR1_UE | eDirection);
 476              		.loc 1 255 9 is_stmt 0 view .LVU141
 477 0010 41F00101 		orr	r1, r1, #1
 478              	.LVL24:
 479              		.loc 1 255 9 view .LVU142
 480 0014 1943     		orrs	r1, r1, r3
 254:STM32_XPD/STM32H7_XPD/src/xpd_usart.c ****         pxUSART->Inst->CR1 = ulCR1;
 481              		.loc 1 254 28 view .LVU143
 482 0016 1360     		str	r3, [r2]
 483              		.loc 1 255 9 is_stmt 1 view .LVU144
 484              	.LVL25:
 256:STM32_XPD/STM32H7_XPD/src/xpd_usart.c ****         pxUSART->Inst->CR1 = ulCR1;
 485              		.loc 1 256 9 view .LVU145
 486              		.loc 1 256 28 is_stmt 0 view .LVU146
 487 0018 1160     		str	r1, [r2]
 488              	.LVL26:
 489              	.L42:
 257:STM32_XPD/STM32H7_XPD/src/xpd_usart.c ****     }
 258:STM32_XPD/STM32H7_XPD/src/xpd_usart.c **** }
 490              		.loc 1 258 1 view .LVU147
 491 001a 7047     		bx	lr
 492              		.cfi_endproc
 493              	.LFE176:
 495              		.section	.text.USART_eGetStatus,"ax",%progbits
 496              		.align	1
 497              		.p2align 2,,3
 498              		.global	USART_eGetStatus
 499              		.syntax unified
 500              		.thumb
 501              		.thumb_func
ARM GAS  /tmp/ccgNvlLN.s 			page 20


 502              		.fpu fpv4-sp-d16
 504              	USART_eGetStatus:
 505              	.LVL27:
 506              	.LFB177:
 259:STM32_XPD/STM32H7_XPD/src/xpd_usart.c **** 
 260:STM32_XPD/STM32H7_XPD/src/xpd_usart.c **** /**
 261:STM32_XPD/STM32H7_XPD/src/xpd_usart.c ****  * @brief Determines the current status of USART peripheral.
 262:STM32_XPD/STM32H7_XPD/src/xpd_usart.c ****  * @param pxUSART: pointer to the USART handle structure
 263:STM32_XPD/STM32H7_XPD/src/xpd_usart.c ****  * @return BUSY if a transmission is in progress, OK if USART is ready for new transfer
 264:STM32_XPD/STM32H7_XPD/src/xpd_usart.c ****  */
 265:STM32_XPD/STM32H7_XPD/src/xpd_usart.c **** XPD_ReturnType USART_eGetStatus(USART_HandleType * pxUSART)
 266:STM32_XPD/STM32H7_XPD/src/xpd_usart.c **** {
 507              		.loc 1 266 1 is_stmt 1 view -0
 508              		.cfi_startproc
 509              		@ args = 0, pretend = 0, frame = 0
 510              		@ frame_needed = 0, uses_anonymous_args = 0
 511              		@ link register save eliminated.
 267:STM32_XPD/STM32H7_XPD/src/xpd_usart.c ****   return ((pxUSART->Inst->ISR & (USART_ISR_RXNE_RXFNE | USART_ISR_TC)) != 0)
 512              		.loc 1 267 3 view .LVU149
 513              		.loc 1 267 19 is_stmt 0 view .LVU150
 514 0000 0368     		ldr	r3, [r0]
 515              		.loc 1 267 25 view .LVU151
 516 0002 DB69     		ldr	r3, [r3, #28]
 268:STM32_XPD/STM32H7_XPD/src/xpd_usart.c ****             ? XPD_OK : XPD_BUSY;
 517              		.loc 1 268 22 view .LVU152
 518 0004 13F0600F 		tst	r3, #96
 269:STM32_XPD/STM32H7_XPD/src/xpd_usart.c **** }
 519              		.loc 1 269 1 view .LVU153
 520 0008 0CBF     		ite	eq
 521 000a 0220     		moveq	r0, #2
 522              	.LVL28:
 523              		.loc 1 269 1 view .LVU154
 524 000c 0020     		movne	r0, #0
 525 000e 7047     		bx	lr
 526              		.cfi_endproc
 527              	.LFE177:
 529              		.section	.text.USART_ePollStatus,"ax",%progbits
 530              		.align	1
 531              		.p2align 2,,3
 532              		.global	USART_ePollStatus
 533              		.syntax unified
 534              		.thumb
 535              		.thumb_func
 536              		.fpu fpv4-sp-d16
 538              	USART_ePollStatus:
 539              	.LVL29:
 540              	.LFB178:
 270:STM32_XPD/STM32H7_XPD/src/xpd_usart.c **** 
 271:STM32_XPD/STM32H7_XPD/src/xpd_usart.c **** /**
 272:STM32_XPD/STM32H7_XPD/src/xpd_usart.c ****  * @brief Polls the status of the USART transfer.
 273:STM32_XPD/STM32H7_XPD/src/xpd_usart.c ****  * @param pxUSART: pointer to the USART handle structure
 274:STM32_XPD/STM32H7_XPD/src/xpd_usart.c ****  * @param ulTimeout: the timeout in ms for the polling.
 275:STM32_XPD/STM32H7_XPD/src/xpd_usart.c ****  * @return ERROR if there were transfer errors, TIMEOUT if timed out, OK if successful
 276:STM32_XPD/STM32H7_XPD/src/xpd_usart.c ****  */
 277:STM32_XPD/STM32H7_XPD/src/xpd_usart.c **** XPD_ReturnType USART_ePollStatus(USART_HandleType * pxUSART, uint32_t ulTimeout)
 278:STM32_XPD/STM32H7_XPD/src/xpd_usart.c **** {
 541              		.loc 1 278 1 is_stmt 1 view -0
ARM GAS  /tmp/ccgNvlLN.s 			page 21


 542              		.cfi_startproc
 543              		@ args = 0, pretend = 0, frame = 8
 544              		@ frame_needed = 0, uses_anonymous_args = 0
 279:STM32_XPD/STM32H7_XPD/src/xpd_usart.c **** #ifdef __XPD_USART_ERROR_DETECT
 280:STM32_XPD/STM32H7_XPD/src/xpd_usart.c ****     /* wait until not busy, or until an error is present */
 281:STM32_XPD/STM32H7_XPD/src/xpd_usart.c ****     XPD_ReturnType eResult = XPD_eWaitForDiff(&(pxUSART->Inst->ISR),
 282:STM32_XPD/STM32H7_XPD/src/xpd_usart.c ****             USART_ISR_RXNE_RXFNE | USART_ISR_TC | USART_ISR_PE |
 283:STM32_XPD/STM32H7_XPD/src/xpd_usart.c ****             USART_ISR_FE   | USART_ISR_NE | USART_ISR_ORE,
 284:STM32_XPD/STM32H7_XPD/src/xpd_usart.c ****             0, &ulTimeout);
 285:STM32_XPD/STM32H7_XPD/src/xpd_usart.c **** 
 286:STM32_XPD/STM32H7_XPD/src/xpd_usart.c ****     /* Error checks */
 287:STM32_XPD/STM32H7_XPD/src/xpd_usart.c ****     if ((pxUSART->Inst->ISR & USART_ISR_PE) != 0)
 288:STM32_XPD/STM32H7_XPD/src/xpd_usart.c ****     {
 289:STM32_XPD/STM32H7_XPD/src/xpd_usart.c ****         /* Update error code */
 290:STM32_XPD/STM32H7_XPD/src/xpd_usart.c ****         pxUSART->Errors |= USART_ERROR_PARITY;
 291:STM32_XPD/STM32H7_XPD/src/xpd_usart.c **** 
 292:STM32_XPD/STM32H7_XPD/src/xpd_usart.c ****         /* Clear the transfer error flag */
 293:STM32_XPD/STM32H7_XPD/src/xpd_usart.c ****         pxUSART->Inst->ISR &= ~USART_ISR_PE;
 294:STM32_XPD/STM32H7_XPD/src/xpd_usart.c **** 
 295:STM32_XPD/STM32H7_XPD/src/xpd_usart.c ****         eResult = XPD_ERROR;
 296:STM32_XPD/STM32H7_XPD/src/xpd_usart.c ****     }
 297:STM32_XPD/STM32H7_XPD/src/xpd_usart.c ****     if ((pxUSART->Inst->ISR & USART_ISR_NE) != 0)
 298:STM32_XPD/STM32H7_XPD/src/xpd_usart.c ****     {
 299:STM32_XPD/STM32H7_XPD/src/xpd_usart.c ****         /* Update error code */
 300:STM32_XPD/STM32H7_XPD/src/xpd_usart.c ****         pxUSART->Errors |= USART_ERROR_NOISE;
 301:STM32_XPD/STM32H7_XPD/src/xpd_usart.c **** 
 302:STM32_XPD/STM32H7_XPD/src/xpd_usart.c ****         /* Clear the transfer error flag */
 303:STM32_XPD/STM32H7_XPD/src/xpd_usart.c ****         pxUSART->Inst->ISR &= ~USART_ISR_NE;
 304:STM32_XPD/STM32H7_XPD/src/xpd_usart.c **** 
 305:STM32_XPD/STM32H7_XPD/src/xpd_usart.c ****         eResult = XPD_ERROR;
 306:STM32_XPD/STM32H7_XPD/src/xpd_usart.c ****     }
 307:STM32_XPD/STM32H7_XPD/src/xpd_usart.c ****     if ((pxUSART->Inst->ISR & USART_ISR_FE) != 0)
 308:STM32_XPD/STM32H7_XPD/src/xpd_usart.c ****     {
 309:STM32_XPD/STM32H7_XPD/src/xpd_usart.c ****         /* Update error code */
 310:STM32_XPD/STM32H7_XPD/src/xpd_usart.c ****         pxUSART->Errors |= USART_ERROR_FRAME;
 311:STM32_XPD/STM32H7_XPD/src/xpd_usart.c **** 
 312:STM32_XPD/STM32H7_XPD/src/xpd_usart.c ****         /* Clear the transfer error flag */
 313:STM32_XPD/STM32H7_XPD/src/xpd_usart.c ****         pxUSART->ISR &= ~USART_ISR_FE;
 314:STM32_XPD/STM32H7_XPD/src/xpd_usart.c **** 
 315:STM32_XPD/STM32H7_XPD/src/xpd_usart.c ****         eResult = XPD_ERROR;
 316:STM32_XPD/STM32H7_XPD/src/xpd_usart.c ****     }
 317:STM32_XPD/STM32H7_XPD/src/xpd_usart.c ****     if ((pxUSART->Inst->ISR & USART_ISR_ORE) != 0)
 318:STM32_XPD/STM32H7_XPD/src/xpd_usart.c ****     {
 319:STM32_XPD/STM32H7_XPD/src/xpd_usart.c ****         /* Update error code */
 320:STM32_XPD/STM32H7_XPD/src/xpd_usart.c ****         pxUSART->Errors |= USART_ERROR_OVERRUN;
 321:STM32_XPD/STM32H7_XPD/src/xpd_usart.c **** 
 322:STM32_XPD/STM32H7_XPD/src/xpd_usart.c ****         /* Clear the transfer error flag */
 323:STM32_XPD/STM32H7_XPD/src/xpd_usart.c ****         pxUSART->Inst->ISR &= ~USART_ISR_ORE;
 324:STM32_XPD/STM32H7_XPD/src/xpd_usart.c **** 
 325:STM32_XPD/STM32H7_XPD/src/xpd_usart.c ****         eResult = XPD_ERROR;
 326:STM32_XPD/STM32H7_XPD/src/xpd_usart.c ****     }
 327:STM32_XPD/STM32H7_XPD/src/xpd_usart.c **** #else
 328:STM32_XPD/STM32H7_XPD/src/xpd_usart.c ****     XPD_ReturnType eResult = XPD_eWaitForDiff(&(pxUSART->Inst->ISR),
 545              		.loc 1 328 5 view .LVU156
 278:STM32_XPD/STM32H7_XPD/src/xpd_usart.c **** #ifdef __XPD_USART_ERROR_DETECT
 546              		.loc 1 278 1 is_stmt 0 view .LVU157
 547 0000 10B5     		push	{r4, lr}
ARM GAS  /tmp/ccgNvlLN.s 			page 22


 548              	.LCFI11:
 549              		.cfi_def_cfa_offset 8
 550              		.cfi_offset 4, -8
 551              		.cfi_offset 14, -4
 552              		.loc 1 328 30 view .LVU158
 553 0002 0468     		ldr	r4, [r0]
 278:STM32_XPD/STM32H7_XPD/src/xpd_usart.c **** #ifdef __XPD_USART_ERROR_DETECT
 554              		.loc 1 278 1 view .LVU159
 555 0004 82B0     		sub	sp, sp, #8
 556              	.LCFI12:
 557              		.cfi_def_cfa_offset 16
 558              		.loc 1 328 30 view .LVU160
 559 0006 1C34     		adds	r4, r4, #28
 560              	.LVL30:
 561              	.LBB37:
 562              	.LBI37:
 563              		.file 3 "STM32_XPD/STM32H7_XPD/inc/xpd_utils.h"
   1:STM32_XPD/STM32H7_XPD/inc/xpd_utils.h **** /**
   2:STM32_XPD/STM32H7_XPD/inc/xpd_utils.h ****   ******************************************************************************
   3:STM32_XPD/STM32H7_XPD/inc/xpd_utils.h ****   * @file    xpd_utils.h
   4:STM32_XPD/STM32H7_XPD/inc/xpd_utils.h ****   * @author  Benedek Kupper
   5:STM32_XPD/STM32H7_XPD/inc/xpd_utils.h ****   * @version 0.3
   6:STM32_XPD/STM32H7_XPD/inc/xpd_utils.h ****   * @date    2018-01-28
   7:STM32_XPD/STM32H7_XPD/inc/xpd_utils.h ****   * @brief   STM32 eXtensible Peripheral Drivers Utilities
   8:STM32_XPD/STM32H7_XPD/inc/xpd_utils.h ****   *
   9:STM32_XPD/STM32H7_XPD/inc/xpd_utils.h ****   * Copyright (c) 2018 Benedek Kupper
  10:STM32_XPD/STM32H7_XPD/inc/xpd_utils.h ****   *
  11:STM32_XPD/STM32H7_XPD/inc/xpd_utils.h ****   * Licensed under the Apache License, Version 2.0 (the "License");
  12:STM32_XPD/STM32H7_XPD/inc/xpd_utils.h ****   * you may not use this file except in compliance with the License.
  13:STM32_XPD/STM32H7_XPD/inc/xpd_utils.h ****   * You may obtain a copy of the License at
  14:STM32_XPD/STM32H7_XPD/inc/xpd_utils.h ****   *
  15:STM32_XPD/STM32H7_XPD/inc/xpd_utils.h ****   *     http://www.apache.org/licenses/LICENSE-2.0
  16:STM32_XPD/STM32H7_XPD/inc/xpd_utils.h ****   *
  17:STM32_XPD/STM32H7_XPD/inc/xpd_utils.h ****   * Unless required by applicable law or agreed to in writing, software
  18:STM32_XPD/STM32H7_XPD/inc/xpd_utils.h ****   * distributed under the License is distributed on an "AS IS" BASIS,
  19:STM32_XPD/STM32H7_XPD/inc/xpd_utils.h ****   * WITHOUT WARRANTIES OR CONDITIONS OF ANY KIND, either express or implied.
  20:STM32_XPD/STM32H7_XPD/inc/xpd_utils.h ****   * See the License for the specific language governing permissions and
  21:STM32_XPD/STM32H7_XPD/inc/xpd_utils.h ****   * limitations under the License.
  22:STM32_XPD/STM32H7_XPD/inc/xpd_utils.h ****   */
  23:STM32_XPD/STM32H7_XPD/inc/xpd_utils.h **** #ifndef __XPD_UTILS_H_
  24:STM32_XPD/STM32H7_XPD/inc/xpd_utils.h **** #define __XPD_UTILS_H_
  25:STM32_XPD/STM32H7_XPD/inc/xpd_utils.h **** 
  26:STM32_XPD/STM32H7_XPD/inc/xpd_utils.h **** #ifdef __cplusplus
  27:STM32_XPD/STM32H7_XPD/inc/xpd_utils.h **** extern "C"
  28:STM32_XPD/STM32H7_XPD/inc/xpd_utils.h **** {
  29:STM32_XPD/STM32H7_XPD/inc/xpd_utils.h **** #endif
  30:STM32_XPD/STM32H7_XPD/inc/xpd_utils.h **** 
  31:STM32_XPD/STM32H7_XPD/inc/xpd_utils.h **** #include <xpd_common.h>
  32:STM32_XPD/STM32H7_XPD/inc/xpd_utils.h **** 
  33:STM32_XPD/STM32H7_XPD/inc/xpd_utils.h **** /** @defgroup XPD_Utils XPD Utilities
  34:STM32_XPD/STM32H7_XPD/inc/xpd_utils.h ****  * @{ */
  35:STM32_XPD/STM32H7_XPD/inc/xpd_utils.h **** 
  36:STM32_XPD/STM32H7_XPD/inc/xpd_utils.h **** /** @defgroup XPD_Exported_Types XPD Exported Types
  37:STM32_XPD/STM32H7_XPD/inc/xpd_utils.h ****  * @{ */
  38:STM32_XPD/STM32H7_XPD/inc/xpd_utils.h **** 
  39:STM32_XPD/STM32H7_XPD/inc/xpd_utils.h **** /** @brief Time service functions structure */
  40:STM32_XPD/STM32H7_XPD/inc/xpd_utils.h **** typedef struct
ARM GAS  /tmp/ccgNvlLN.s 			page 23


  41:STM32_XPD/STM32H7_XPD/inc/xpd_utils.h **** {
  42:STM32_XPD/STM32H7_XPD/inc/xpd_utils.h ****     void            (*Init)         (uint32_t ulCoreFreq_Hz);
  43:STM32_XPD/STM32H7_XPD/inc/xpd_utils.h ****     /*!< Prepares the time service for operation */
  44:STM32_XPD/STM32H7_XPD/inc/xpd_utils.h **** 
  45:STM32_XPD/STM32H7_XPD/inc/xpd_utils.h ****     void            (*Block_ms)     (uint32_t ulBlocktime_ms);
  46:STM32_XPD/STM32H7_XPD/inc/xpd_utils.h ****     /*!< Blocks the thread for the specified time */
  47:STM32_XPD/STM32H7_XPD/inc/xpd_utils.h **** 
  48:STM32_XPD/STM32H7_XPD/inc/xpd_utils.h ****     XPD_ReturnType  (*MatchBlock_ms)(volatile uint32_t* pulVarAddress,
  49:STM32_XPD/STM32H7_XPD/inc/xpd_utils.h ****                                      uint32_t ulBitSelector,
  50:STM32_XPD/STM32H7_XPD/inc/xpd_utils.h ****                                      uint32_t ulMatch,
  51:STM32_XPD/STM32H7_XPD/inc/xpd_utils.h ****                                      uint32_t * pulTimeout);
  52:STM32_XPD/STM32H7_XPD/inc/xpd_utils.h ****     /*!< Blocks until the masked value read from address matches the input ulMatch, or until times 
  53:STM32_XPD/STM32H7_XPD/inc/xpd_utils.h **** 
  54:STM32_XPD/STM32H7_XPD/inc/xpd_utils.h ****     XPD_ReturnType  (*DiffBlock_ms) (volatile uint32_t* pulVarAddress,
  55:STM32_XPD/STM32H7_XPD/inc/xpd_utils.h ****                                      uint32_t ulBitSelector,
  56:STM32_XPD/STM32H7_XPD/inc/xpd_utils.h ****                                      uint32_t ulMatch,
  57:STM32_XPD/STM32H7_XPD/inc/xpd_utils.h ****                                      uint32_t * pulTimeout);
  58:STM32_XPD/STM32H7_XPD/inc/xpd_utils.h ****     /*!< Blocks until the masked value read from address differs from the input ulMatch, or until t
  59:STM32_XPD/STM32H7_XPD/inc/xpd_utils.h **** 
  60:STM32_XPD/STM32H7_XPD/inc/xpd_utils.h **** }XPD_TimeServiceType;
  61:STM32_XPD/STM32H7_XPD/inc/xpd_utils.h **** 
  62:STM32_XPD/STM32H7_XPD/inc/xpd_utils.h **** /** @} */
  63:STM32_XPD/STM32H7_XPD/inc/xpd_utils.h **** 
  64:STM32_XPD/STM32H7_XPD/inc/xpd_utils.h **** /** @defgroup XPD_Exported_Macros XPD Exported Macros
  65:STM32_XPD/STM32H7_XPD/inc/xpd_utils.h ****  * @{ */
  66:STM32_XPD/STM32H7_XPD/inc/xpd_utils.h **** 
  67:STM32_XPD/STM32H7_XPD/inc/xpd_utils.h **** #ifndef XPD_ENTER_CRITICAL
  68:STM32_XPD/STM32H7_XPD/inc/xpd_utils.h **** /**
  69:STM32_XPD/STM32H7_XPD/inc/xpd_utils.h ****  * @brief Enters a critical section by disabling interrupts.
  70:STM32_XPD/STM32H7_XPD/inc/xpd_utils.h ****  * @param HANDLE: pointer to the requester handle
  71:STM32_XPD/STM32H7_XPD/inc/xpd_utils.h ****  */
  72:STM32_XPD/STM32H7_XPD/inc/xpd_utils.h **** #define         XPD_ENTER_CRITICAL(HANDLE)
  73:STM32_XPD/STM32H7_XPD/inc/xpd_utils.h **** #endif
  74:STM32_XPD/STM32H7_XPD/inc/xpd_utils.h **** 
  75:STM32_XPD/STM32H7_XPD/inc/xpd_utils.h **** #ifndef XPD_EXIT_CRITICAL
  76:STM32_XPD/STM32H7_XPD/inc/xpd_utils.h **** /**
  77:STM32_XPD/STM32H7_XPD/inc/xpd_utils.h ****  * @brief Leaves a critical section by enabling interrupts.
  78:STM32_XPD/STM32H7_XPD/inc/xpd_utils.h ****  * @param HANDLE: pointer to the requester handle
  79:STM32_XPD/STM32H7_XPD/inc/xpd_utils.h ****  */
  80:STM32_XPD/STM32H7_XPD/inc/xpd_utils.h **** #define         XPD_EXIT_CRITICAL(HANDLE)
  81:STM32_XPD/STM32H7_XPD/inc/xpd_utils.h **** #endif
  82:STM32_XPD/STM32H7_XPD/inc/xpd_utils.h **** 
  83:STM32_XPD/STM32H7_XPD/inc/xpd_utils.h **** /** @} */
  84:STM32_XPD/STM32H7_XPD/inc/xpd_utils.h **** 
  85:STM32_XPD/STM32H7_XPD/inc/xpd_utils.h **** /** @addtogroup XPD_Exported_Functions
  86:STM32_XPD/STM32H7_XPD/inc/xpd_utils.h ****  * @{ */
  87:STM32_XPD/STM32H7_XPD/inc/xpd_utils.h **** 
  88:STM32_XPD/STM32H7_XPD/inc/xpd_utils.h **** /** @addtogroup XPD_Exported_Functions_Timer
  89:STM32_XPD/STM32H7_XPD/inc/xpd_utils.h ****  * @{ */
  90:STM32_XPD/STM32H7_XPD/inc/xpd_utils.h **** const XPD_TimeServiceType* XPD_pxTimeService(void);
  91:STM32_XPD/STM32H7_XPD/inc/xpd_utils.h **** void            XPD_vSetTimeService     (const XPD_TimeServiceType* pxTimeService);
  92:STM32_XPD/STM32H7_XPD/inc/xpd_utils.h **** void            XPD_vResetTimeService   (void);
  93:STM32_XPD/STM32H7_XPD/inc/xpd_utils.h **** 
  94:STM32_XPD/STM32H7_XPD/inc/xpd_utils.h **** void            XPD_vDelay_us           (uint32_t ulMicroseconds);
  95:STM32_XPD/STM32H7_XPD/inc/xpd_utils.h **** 
  96:STM32_XPD/STM32H7_XPD/inc/xpd_utils.h **** /**
  97:STM32_XPD/STM32H7_XPD/inc/xpd_utils.h ****  * @brief Initialize the timer of the XPD time service.
ARM GAS  /tmp/ccgNvlLN.s 			page 24


  98:STM32_XPD/STM32H7_XPD/inc/xpd_utils.h ****  * @param ulCoreFreq_Hz: the new core frequency in Hz
  99:STM32_XPD/STM32H7_XPD/inc/xpd_utils.h ****  */
 100:STM32_XPD/STM32H7_XPD/inc/xpd_utils.h **** __STATIC_INLINE void XPD_vInitTimer(uint32_t ulCoreFreq_Hz)
 101:STM32_XPD/STM32H7_XPD/inc/xpd_utils.h **** {
 102:STM32_XPD/STM32H7_XPD/inc/xpd_utils.h ****     XPD_pxTimeService()->Init(ulCoreFreq_Hz);
 103:STM32_XPD/STM32H7_XPD/inc/xpd_utils.h **** }
 104:STM32_XPD/STM32H7_XPD/inc/xpd_utils.h **** 
 105:STM32_XPD/STM32H7_XPD/inc/xpd_utils.h **** /**
 106:STM32_XPD/STM32H7_XPD/inc/xpd_utils.h ****  * @brief Insert a delay of a specified time in the execution.
 107:STM32_XPD/STM32H7_XPD/inc/xpd_utils.h ****  * @param ulBlocktime_ms: the amount of delay in ms
 108:STM32_XPD/STM32H7_XPD/inc/xpd_utils.h ****  */
 109:STM32_XPD/STM32H7_XPD/inc/xpd_utils.h **** __STATIC_INLINE void XPD_vDelay_ms(uint32_t ulBlocktime_ms)
 110:STM32_XPD/STM32H7_XPD/inc/xpd_utils.h **** {
 111:STM32_XPD/STM32H7_XPD/inc/xpd_utils.h ****     XPD_pxTimeService()->Block_ms(ulBlocktime_ms);
 112:STM32_XPD/STM32H7_XPD/inc/xpd_utils.h **** }
 113:STM32_XPD/STM32H7_XPD/inc/xpd_utils.h **** 
 114:STM32_XPD/STM32H7_XPD/inc/xpd_utils.h **** /**
 115:STM32_XPD/STM32H7_XPD/inc/xpd_utils.h ****  * @brief Waits until the masked value at address matches the input, or until timeout.
 116:STM32_XPD/STM32H7_XPD/inc/xpd_utils.h ****  * @param pulVarAddress: the word address that needs to be monitored
 117:STM32_XPD/STM32H7_XPD/inc/xpd_utils.h ****  * @param ulBitSelector: a bit mask that selects which bits should be considered
 118:STM32_XPD/STM32H7_XPD/inc/xpd_utils.h ****  * @param ulMatch: the expected value to wait for
 119:STM32_XPD/STM32H7_XPD/inc/xpd_utils.h ****  * @param pulTimeout: pointer to the timeout in ms
 120:STM32_XPD/STM32H7_XPD/inc/xpd_utils.h ****  * @return TIMEOUT if timed out, or OK if ulMatch occurred within the deadline
 121:STM32_XPD/STM32H7_XPD/inc/xpd_utils.h ****  */
 122:STM32_XPD/STM32H7_XPD/inc/xpd_utils.h **** __STATIC_INLINE XPD_ReturnType XPD_eWaitForMatch(
 123:STM32_XPD/STM32H7_XPD/inc/xpd_utils.h ****         volatile uint32_t * pulVarAddress,
 124:STM32_XPD/STM32H7_XPD/inc/xpd_utils.h ****         uint32_t            ulBitSelector,
 125:STM32_XPD/STM32H7_XPD/inc/xpd_utils.h ****         uint32_t            ulMatch,
 126:STM32_XPD/STM32H7_XPD/inc/xpd_utils.h ****         uint32_t *          pulTimeout)
 127:STM32_XPD/STM32H7_XPD/inc/xpd_utils.h **** {
 128:STM32_XPD/STM32H7_XPD/inc/xpd_utils.h ****     return XPD_pxTimeService()->MatchBlock_ms(pulVarAddress, ulBitSelector,
 129:STM32_XPD/STM32H7_XPD/inc/xpd_utils.h ****             ulMatch, pulTimeout);
 130:STM32_XPD/STM32H7_XPD/inc/xpd_utils.h **** }
 131:STM32_XPD/STM32H7_XPD/inc/xpd_utils.h **** 
 132:STM32_XPD/STM32H7_XPD/inc/xpd_utils.h **** /**
 133:STM32_XPD/STM32H7_XPD/inc/xpd_utils.h ****  * @brief Waits until the masked value at address differs from the input, or until timeout.
 134:STM32_XPD/STM32H7_XPD/inc/xpd_utils.h ****  * @param pulVarAddress: the word address that needs to be monitored
 135:STM32_XPD/STM32H7_XPD/inc/xpd_utils.h ****  * @param ulBitSelector: a bit mask that selects which bits should be considered
 136:STM32_XPD/STM32H7_XPD/inc/xpd_utils.h ****  * @param ulMatch: the expected value to wait for
 137:STM32_XPD/STM32H7_XPD/inc/xpd_utils.h ****  * @param pulTimeout: pointer to the timeout in ms
 138:STM32_XPD/STM32H7_XPD/inc/xpd_utils.h ****  * @return TIMEOUT if timed out, or OK if ulMatch occurred within the deadline
 139:STM32_XPD/STM32H7_XPD/inc/xpd_utils.h ****  */
 140:STM32_XPD/STM32H7_XPD/inc/xpd_utils.h **** __STATIC_INLINE XPD_ReturnType XPD_eWaitForDiff(
 564              		.loc 3 140 32 is_stmt 1 view .LVU161
 565              	.LBB38:
 141:STM32_XPD/STM32H7_XPD/inc/xpd_utils.h ****         volatile uint32_t * pulVarAddress,
 142:STM32_XPD/STM32H7_XPD/inc/xpd_utils.h ****         uint32_t            ulBitSelector,
 143:STM32_XPD/STM32H7_XPD/inc/xpd_utils.h ****         uint32_t            ulMatch,
 144:STM32_XPD/STM32H7_XPD/inc/xpd_utils.h ****         uint32_t *          pulTimeout)
 145:STM32_XPD/STM32H7_XPD/inc/xpd_utils.h **** {
 146:STM32_XPD/STM32H7_XPD/inc/xpd_utils.h ****     return XPD_pxTimeService()->DiffBlock_ms(pulVarAddress, ulBitSelector,
 566              		.loc 3 146 5 view .LVU162
 567              	.LBE38:
 568              	.LBE37:
 278:STM32_XPD/STM32H7_XPD/src/xpd_usart.c **** #ifdef __XPD_USART_ERROR_DETECT
 569              		.loc 1 278 1 is_stmt 0 view .LVU163
 570 0008 0191     		str	r1, [sp, #4]
ARM GAS  /tmp/ccgNvlLN.s 			page 25


 571              	.LBB40:
 572              	.LBB39:
 573              		.loc 3 146 12 view .LVU164
 574 000a FFF7FEFF 		bl	XPD_pxTimeService
 575              	.LVL31:
 576              		.loc 3 146 12 view .LVU165
 577 000e 0146     		mov	r1, r0
 578 0010 01AB     		add	r3, sp, #4
 579              	.LVL32:
 580              		.loc 3 146 12 view .LVU166
 581 0012 2046     		mov	r0, r4
 582 0014 0022     		movs	r2, #0
 583 0016 CC68     		ldr	r4, [r1, #12]
 584              	.LVL33:
 585              		.loc 3 146 12 view .LVU167
 586 0018 6021     		movs	r1, #96
 587 001a A047     		blx	r4
 588              	.LVL34:
 589              		.loc 3 146 12 view .LVU168
 590              	.LBE39:
 591              	.LBE40:
 329:STM32_XPD/STM32H7_XPD/src/xpd_usart.c ****             USART_ISR_RXNE_RXFNE | USART_ISR_TC, 0, &ulTimeout);
 330:STM32_XPD/STM32H7_XPD/src/xpd_usart.c **** #endif
 331:STM32_XPD/STM32H7_XPD/src/xpd_usart.c ****     return eResult;
 592              		.loc 1 331 5 is_stmt 1 view .LVU169
 332:STM32_XPD/STM32H7_XPD/src/xpd_usart.c **** }
 593              		.loc 1 332 1 is_stmt 0 view .LVU170
 594 001c 02B0     		add	sp, sp, #8
 595              	.LCFI13:
 596              		.cfi_def_cfa_offset 8
 597              		@ sp needed
 598 001e 10BD     		pop	{r4, pc}
 599              		.cfi_endproc
 600              	.LFE178:
 602              		.section	.text.USART_eTransmit,"ax",%progbits
 603              		.align	1
 604              		.p2align 2,,3
 605              		.global	USART_eTransmit
 606              		.syntax unified
 607              		.thumb
 608              		.thumb_func
 609              		.fpu fpv4-sp-d16
 611              	USART_eTransmit:
 612              	.LVL35:
 613              	.LFB179:
 333:STM32_XPD/STM32H7_XPD/src/xpd_usart.c **** 
 334:STM32_XPD/STM32H7_XPD/src/xpd_usart.c **** /**
 335:STM32_XPD/STM32H7_XPD/src/xpd_usart.c ****  * @brief Transmits data over USART.
 336:STM32_XPD/STM32H7_XPD/src/xpd_usart.c ****  * @param pxUSART: pointer to the USART handle structure
 337:STM32_XPD/STM32H7_XPD/src/xpd_usart.c ****  * @param pvTxData: pointer to the data buffer
 338:STM32_XPD/STM32H7_XPD/src/xpd_usart.c ****  * @param usLength: amount of data transfers
 339:STM32_XPD/STM32H7_XPD/src/xpd_usart.c ****  * @param ulTimeout: available time for successful transmission in ms
 340:STM32_XPD/STM32H7_XPD/src/xpd_usart.c ****  * @return TIMEOUT if transmission or reception times out,
 341:STM32_XPD/STM32H7_XPD/src/xpd_usart.c ****  *         OK if transfer is completed
 342:STM32_XPD/STM32H7_XPD/src/xpd_usart.c ****  */
 343:STM32_XPD/STM32H7_XPD/src/xpd_usart.c **** XPD_ReturnType USART_eTransmit(
 344:STM32_XPD/STM32H7_XPD/src/xpd_usart.c ****         USART_HandleType *  pxUSART,
ARM GAS  /tmp/ccgNvlLN.s 			page 26


 345:STM32_XPD/STM32H7_XPD/src/xpd_usart.c ****         void *              pvTxData,
 346:STM32_XPD/STM32H7_XPD/src/xpd_usart.c ****         uint16_t            usLength,
 347:STM32_XPD/STM32H7_XPD/src/xpd_usart.c ****         uint32_t            ulTimeout)
 348:STM32_XPD/STM32H7_XPD/src/xpd_usart.c **** {
 614              		.loc 1 348 1 is_stmt 1 view -0
 615              		.cfi_startproc
 616              		@ args = 0, pretend = 0, frame = 8
 617              		@ frame_needed = 0, uses_anonymous_args = 0
 349:STM32_XPD/STM32H7_XPD/src/xpd_usart.c ****     XPD_ReturnType eResult;
 618              		.loc 1 349 5 view .LVU172
 350:STM32_XPD/STM32H7_XPD/src/xpd_usart.c **** 
 351:STM32_XPD/STM32H7_XPD/src/xpd_usart.c ****     /* save stream info */
 352:STM32_XPD/STM32H7_XPD/src/xpd_usart.c ****     pxUSART->TxStream.buffer = pvTxData;
 619              		.loc 1 352 5 view .LVU173
 348:STM32_XPD/STM32H7_XPD/src/xpd_usart.c ****     XPD_ReturnType eResult;
 620              		.loc 1 348 1 is_stmt 0 view .LVU174
 621 0000 F0B5     		push	{r4, r5, r6, r7, lr}
 622              	.LCFI14:
 623              		.cfi_def_cfa_offset 20
 624              		.cfi_offset 4, -20
 625              		.cfi_offset 5, -16
 626              		.cfi_offset 6, -12
 627              		.cfi_offset 7, -8
 628              		.cfi_offset 14, -4
 629 0002 83B0     		sub	sp, sp, #12
 630              	.LCFI15:
 631              		.cfi_def_cfa_offset 32
 348:STM32_XPD/STM32H7_XPD/src/xpd_usart.c ****     XPD_ReturnType eResult;
 632              		.loc 1 348 1 view .LVU175
 633 0004 0546     		mov	r5, r0
 634              		.loc 1 352 30 view .LVU176
 635 0006 0163     		str	r1, [r0, #48]
 353:STM32_XPD/STM32H7_XPD/src/xpd_usart.c ****     pxUSART->TxStream.length = usLength;
 636              		.loc 1 353 5 is_stmt 1 view .LVU177
 637 0008 01AE     		add	r6, sp, #4
 348:STM32_XPD/STM32H7_XPD/src/xpd_usart.c ****     XPD_ReturnType eResult;
 638              		.loc 1 348 1 is_stmt 0 view .LVU178
 639 000a 0193     		str	r3, [sp, #4]
 640              		.loc 1 353 30 view .LVU179
 641 000c 8286     		strh	r2, [r0, #52]	@ movhi
 354:STM32_XPD/STM32H7_XPD/src/xpd_usart.c ****     USART_RESET_ERRORS(pxUSART);
 642              		.loc 1 354 5 is_stmt 1 view .LVU180
 355:STM32_XPD/STM32H7_XPD/src/xpd_usart.c **** 
 356:STM32_XPD/STM32H7_XPD/src/xpd_usart.c ****     while (pxUSART->TxStream.length > 0)
 643              		.loc 1 356 5 view .LVU181
 644              		.loc 1 356 11 view .LVU182
 645 000e CAB1     		cbz	r2, .L50
 357:STM32_XPD/STM32H7_XPD/src/xpd_usart.c ****     {
 358:STM32_XPD/STM32H7_XPD/src/xpd_usart.c ****         /* wait for empty transmit buffer */
 359:STM32_XPD/STM32H7_XPD/src/xpd_usart.c ****         eResult = XPD_eWaitForDiff(&(pxUSART->Inst->ISR), USART_ISR_TXE_TXFNF, 0, &ulTimeout);
 360:STM32_XPD/STM32H7_XPD/src/xpd_usart.c ****         if (eResult != XPD_OK)
 361:STM32_XPD/STM32H7_XPD/src/xpd_usart.c ****         {
 362:STM32_XPD/STM32H7_XPD/src/xpd_usart.c ****             return eResult;
 363:STM32_XPD/STM32H7_XPD/src/xpd_usart.c ****         }
 364:STM32_XPD/STM32H7_XPD/src/xpd_usart.c **** 
 365:STM32_XPD/STM32H7_XPD/src/xpd_usart.c ****         XPD_vWriteFromStream((uint32_t*)&USART_TXDR(pxUSART), &pxUSART->TxStream);
 646              		.loc 1 365 9 is_stmt 0 view .LVU183
ARM GAS  /tmp/ccgNvlLN.s 			page 27


 647 0010 00F13007 		add	r7, r0, #48
 648 0014 05E0     		b	.L52
 649              	.LVL36:
 650              	.L58:
 651              		.loc 1 365 41 view .LVU184
 652 0016 2868     		ldr	r0, [r5]
 653              	.LVL37:
 654              		.loc 1 365 9 view .LVU185
 655 0018 2830     		adds	r0, r0, #40
 656 001a FFF7FEFF 		bl	XPD_vWriteFromStream
 657              	.LVL38:
 356:STM32_XPD/STM32H7_XPD/src/xpd_usart.c ****     {
 658              		.loc 1 356 11 is_stmt 1 view .LVU186
 659 001e AB8E     		ldrh	r3, [r5, #52]
 660 0020 83B1     		cbz	r3, .L50
 661              	.L52:
 359:STM32_XPD/STM32H7_XPD/src/xpd_usart.c ****         if (eResult != XPD_OK)
 662              		.loc 1 359 9 view .LVU187
 359:STM32_XPD/STM32H7_XPD/src/xpd_usart.c ****         if (eResult != XPD_OK)
 663              		.loc 1 359 19 is_stmt 0 view .LVU188
 664 0022 2868     		ldr	r0, [r5]
 665 0024 00F11C04 		add	r4, r0, #28
 666              	.LVL39:
 667              	.LBB41:
 668              	.LBI41:
 140:STM32_XPD/STM32H7_XPD/inc/xpd_utils.h ****         volatile uint32_t * pulVarAddress,
 669              		.loc 3 140 32 is_stmt 1 view .LVU189
 670              	.LBB42:
 671              		.loc 3 146 5 view .LVU190
 672              		.loc 3 146 12 is_stmt 0 view .LVU191
 673 0028 FFF7FEFF 		bl	XPD_pxTimeService
 674              	.LVL40:
 675 002c 0146     		mov	r1, r0
 676 002e 3346     		mov	r3, r6
 677 0030 2046     		mov	r0, r4
 678 0032 0022     		movs	r2, #0
 679 0034 CC68     		ldr	r4, [r1, #12]
 680              	.LVL41:
 681              		.loc 3 146 12 view .LVU192
 682 0036 8021     		movs	r1, #128
 683 0038 A047     		blx	r4
 684              	.LVL42:
 685              		.loc 3 146 12 view .LVU193
 686              	.LBE42:
 687              	.LBE41:
 688              		.loc 1 365 9 is_stmt 1 view .LVU194
 360:STM32_XPD/STM32H7_XPD/src/xpd_usart.c ****         {
 689              		.loc 1 360 9 view .LVU195
 690              		.loc 1 365 9 is_stmt 0 view .LVU196
 691 003a 3946     		mov	r1, r7
 360:STM32_XPD/STM32H7_XPD/src/xpd_usart.c ****         {
 692              		.loc 1 360 12 view .LVU197
 693 003c 0028     		cmp	r0, #0
 694 003e EAD0     		beq	.L58
 366:STM32_XPD/STM32H7_XPD/src/xpd_usart.c ****     }
 367:STM32_XPD/STM32H7_XPD/src/xpd_usart.c ****     /* wait for the last transmission to finish */
 368:STM32_XPD/STM32H7_XPD/src/xpd_usart.c ****     eResult = XPD_eWaitForDiff(&(pxUSART->Inst->ISR), USART_ISR_TC, 0, &ulTimeout);
ARM GAS  /tmp/ccgNvlLN.s 			page 28


 369:STM32_XPD/STM32H7_XPD/src/xpd_usart.c **** 
 370:STM32_XPD/STM32H7_XPD/src/xpd_usart.c ****     /* Clear overrun flag because received data is not read */
 371:STM32_XPD/STM32H7_XPD/src/xpd_usart.c ****     pxUSART->Inst->ISR &= ~USART_ISR_ORE;
 372:STM32_XPD/STM32H7_XPD/src/xpd_usart.c **** 
 373:STM32_XPD/STM32H7_XPD/src/xpd_usart.c ****     return eResult;
 374:STM32_XPD/STM32H7_XPD/src/xpd_usart.c **** }
 695              		.loc 1 374 1 view .LVU198
 696 0040 03B0     		add	sp, sp, #12
 697              	.LCFI16:
 698              		.cfi_remember_state
 699              		.cfi_def_cfa_offset 20
 700              		@ sp needed
 701 0042 F0BD     		pop	{r4, r5, r6, r7, pc}
 702              	.LVL43:
 703              	.L50:
 704              	.LCFI17:
 705              		.cfi_restore_state
 368:STM32_XPD/STM32H7_XPD/src/xpd_usart.c **** 
 706              		.loc 1 368 5 is_stmt 1 view .LVU199
 368:STM32_XPD/STM32H7_XPD/src/xpd_usart.c **** 
 707              		.loc 1 368 15 is_stmt 0 view .LVU200
 708 0044 2868     		ldr	r0, [r5]
 709 0046 00F11C04 		add	r4, r0, #28
 710              	.LVL44:
 711              	.LBB43:
 712              	.LBI43:
 140:STM32_XPD/STM32H7_XPD/inc/xpd_utils.h ****         volatile uint32_t * pulVarAddress,
 713              		.loc 3 140 32 is_stmt 1 view .LVU201
 714              	.LBB44:
 715              		.loc 3 146 5 view .LVU202
 716              		.loc 3 146 12 is_stmt 0 view .LVU203
 717 004a FFF7FEFF 		bl	XPD_pxTimeService
 718              	.LVL45:
 719 004e 0146     		mov	r1, r0
 720 0050 3346     		mov	r3, r6
 721 0052 2046     		mov	r0, r4
 722 0054 0022     		movs	r2, #0
 723 0056 CC68     		ldr	r4, [r1, #12]
 724              	.LVL46:
 725              		.loc 3 146 12 view .LVU204
 726 0058 4021     		movs	r1, #64
 727 005a A047     		blx	r4
 728              	.LVL47:
 729              		.loc 3 146 12 view .LVU205
 730              	.LBE44:
 731              	.LBE43:
 371:STM32_XPD/STM32H7_XPD/src/xpd_usart.c **** 
 732              		.loc 1 371 12 view .LVU206
 733 005c 2A68     		ldr	r2, [r5]
 734              	.LVL48:
 371:STM32_XPD/STM32H7_XPD/src/xpd_usart.c **** 
 735              		.loc 1 371 5 is_stmt 1 view .LVU207
 371:STM32_XPD/STM32H7_XPD/src/xpd_usart.c **** 
 736              		.loc 1 371 24 is_stmt 0 view .LVU208
 737 005e D369     		ldr	r3, [r2, #28]
 738 0060 23F00803 		bic	r3, r3, #8
 739 0064 D361     		str	r3, [r2, #28]
ARM GAS  /tmp/ccgNvlLN.s 			page 29


 373:STM32_XPD/STM32H7_XPD/src/xpd_usart.c **** }
 740              		.loc 1 373 5 is_stmt 1 view .LVU209
 741              		.loc 1 374 1 is_stmt 0 view .LVU210
 742 0066 03B0     		add	sp, sp, #12
 743              	.LCFI18:
 744              		.cfi_def_cfa_offset 20
 745              		@ sp needed
 746 0068 F0BD     		pop	{r4, r5, r6, r7, pc}
 747              		.loc 1 374 1 view .LVU211
 748              		.cfi_endproc
 749              	.LFE179:
 751 006a 00BF     		.section	.text.USART_eSend,"ax",%progbits
 752              		.align	1
 753              		.p2align 2,,3
 754              		.global	USART_eSend
 755              		.syntax unified
 756              		.thumb
 757              		.thumb_func
 758              		.fpu fpv4-sp-d16
 760              	USART_eSend:
 761              	.LVL49:
 762              	.LFB180:
 375:STM32_XPD/STM32H7_XPD/src/xpd_usart.c **** 
 376:STM32_XPD/STM32H7_XPD/src/xpd_usart.c **** /**
 377:STM32_XPD/STM32H7_XPD/src/xpd_usart.c ****  * @brief Transmits data over USART and waits for the completion of the transfer.
 378:STM32_XPD/STM32H7_XPD/src/xpd_usart.c ****  * @param pxUSART: pointer to the USART handle structure
 379:STM32_XPD/STM32H7_XPD/src/xpd_usart.c ****  * @param pvTxData: pointer to the data buffer
 380:STM32_XPD/STM32H7_XPD/src/xpd_usart.c ****  * @param usLength: amount of data transfers
 381:STM32_XPD/STM32H7_XPD/src/xpd_usart.c ****  * @param ulTimeout: available time for successful transmission in ms
 382:STM32_XPD/STM32H7_XPD/src/xpd_usart.c ****  * @return TIMEOUT if transmission or reception times out,
 383:STM32_XPD/STM32H7_XPD/src/xpd_usart.c ****  *         OK if transfer is completed
 384:STM32_XPD/STM32H7_XPD/src/xpd_usart.c ****  */
 385:STM32_XPD/STM32H7_XPD/src/xpd_usart.c **** XPD_ReturnType USART_eSend(
 386:STM32_XPD/STM32H7_XPD/src/xpd_usart.c ****         USART_HandleType *  pxUSART,
 387:STM32_XPD/STM32H7_XPD/src/xpd_usart.c ****         void *              pvTxData,
 388:STM32_XPD/STM32H7_XPD/src/xpd_usart.c ****         uint16_t            usLength,
 389:STM32_XPD/STM32H7_XPD/src/xpd_usart.c ****         uint32_t            ulTimeout)
 390:STM32_XPD/STM32H7_XPD/src/xpd_usart.c **** {
 763              		.loc 1 390 1 is_stmt 1 view -0
 764              		.cfi_startproc
 765              		@ args = 0, pretend = 0, frame = 8
 766              		@ frame_needed = 0, uses_anonymous_args = 0
 391:STM32_XPD/STM32H7_XPD/src/xpd_usart.c ****     XPD_ReturnType eResult = USART_eTransmit(pxUSART, pvTxData, usLength, ulTimeout);
 767              		.loc 1 391 5 view .LVU213
 390:STM32_XPD/STM32H7_XPD/src/xpd_usart.c ****     XPD_ReturnType eResult = USART_eTransmit(pxUSART, pvTxData, usLength, ulTimeout);
 768              		.loc 1 390 1 is_stmt 0 view .LVU214
 769 0000 70B5     		push	{r4, r5, r6, lr}
 770              	.LCFI19:
 771              		.cfi_def_cfa_offset 16
 772              		.cfi_offset 4, -16
 773              		.cfi_offset 5, -12
 774              		.cfi_offset 6, -8
 775              		.cfi_offset 14, -4
 776 0002 82B0     		sub	sp, sp, #8
 777              	.LCFI20:
 778              		.cfi_def_cfa_offset 24
 390:STM32_XPD/STM32H7_XPD/src/xpd_usart.c ****     XPD_ReturnType eResult = USART_eTransmit(pxUSART, pvTxData, usLength, ulTimeout);
ARM GAS  /tmp/ccgNvlLN.s 			page 30


 779              		.loc 1 390 1 view .LVU215
 780 0004 0546     		mov	r5, r0
 781 0006 0193     		str	r3, [sp, #4]
 782              		.loc 1 391 30 view .LVU216
 783 0008 FFF7FEFF 		bl	USART_eTransmit
 784              	.LVL50:
 392:STM32_XPD/STM32H7_XPD/src/xpd_usart.c **** 
 393:STM32_XPD/STM32H7_XPD/src/xpd_usart.c ****     if (eResult == XPD_OK)
 785              		.loc 1 393 5 is_stmt 1 view .LVU217
 786              		.loc 1 393 8 is_stmt 0 view .LVU218
 787 000c 0446     		mov	r4, r0
 788 000e 10B1     		cbz	r0, .L62
 789              	.LVL51:
 394:STM32_XPD/STM32H7_XPD/src/xpd_usart.c ****     {
 395:STM32_XPD/STM32H7_XPD/src/xpd_usart.c ****         /* wait for the last transmission to finish */
 396:STM32_XPD/STM32H7_XPD/src/xpd_usart.c ****         eResult = XPD_eWaitForDiff(&(pxUSART->Inst->ISR), USART_ISR_TC, 0, &ulTimeout);
 397:STM32_XPD/STM32H7_XPD/src/xpd_usart.c **** 
 398:STM32_XPD/STM32H7_XPD/src/xpd_usart.c ****         /* Clear overrun flag because received data is not read */
 399:STM32_XPD/STM32H7_XPD/src/xpd_usart.c ****         pxUSART->Inst->ISR &= ~USART_ISR_ORE;
 400:STM32_XPD/STM32H7_XPD/src/xpd_usart.c ****     }
 401:STM32_XPD/STM32H7_XPD/src/xpd_usart.c **** 
 402:STM32_XPD/STM32H7_XPD/src/xpd_usart.c ****     return eResult;
 790              		.loc 1 402 5 is_stmt 1 view .LVU219
 403:STM32_XPD/STM32H7_XPD/src/xpd_usart.c **** }
 791              		.loc 1 403 1 is_stmt 0 view .LVU220
 792 0010 2046     		mov	r0, r4
 793 0012 02B0     		add	sp, sp, #8
 794              	.LCFI21:
 795              		.cfi_remember_state
 796              		.cfi_def_cfa_offset 16
 797              		@ sp needed
 798 0014 70BD     		pop	{r4, r5, r6, pc}
 799              	.LVL52:
 800              	.L62:
 801              	.LCFI22:
 802              		.cfi_restore_state
 396:STM32_XPD/STM32H7_XPD/src/xpd_usart.c **** 
 803              		.loc 1 396 9 is_stmt 1 view .LVU221
 396:STM32_XPD/STM32H7_XPD/src/xpd_usart.c **** 
 804              		.loc 1 396 19 is_stmt 0 view .LVU222
 805 0016 2868     		ldr	r0, [r5]
 806              	.LVL53:
 396:STM32_XPD/STM32H7_XPD/src/xpd_usart.c **** 
 807              		.loc 1 396 19 view .LVU223
 808 0018 00F11C06 		add	r6, r0, #28
 809              	.LVL54:
 810              	.LBB45:
 811              	.LBI45:
 140:STM32_XPD/STM32H7_XPD/inc/xpd_utils.h ****         volatile uint32_t * pulVarAddress,
 812              		.loc 3 140 32 is_stmt 1 view .LVU224
 813              	.LBB46:
 814              		.loc 3 146 5 view .LVU225
 815              		.loc 3 146 12 is_stmt 0 view .LVU226
 816 001c FFF7FEFF 		bl	XPD_pxTimeService
 817              	.LVL55:
 818 0020 0146     		mov	r1, r0
 819 0022 2246     		mov	r2, r4
ARM GAS  /tmp/ccgNvlLN.s 			page 31


 820 0024 01AB     		add	r3, sp, #4
 821              	.LVL56:
 822              		.loc 3 146 12 view .LVU227
 823 0026 3046     		mov	r0, r6
 824 0028 CC68     		ldr	r4, [r1, #12]
 825 002a 4021     		movs	r1, #64
 826 002c A047     		blx	r4
 827              	.LVL57:
 828              		.loc 3 146 12 view .LVU228
 829              	.LBE46:
 830              	.LBE45:
 399:STM32_XPD/STM32H7_XPD/src/xpd_usart.c ****     }
 831              		.loc 1 399 16 view .LVU229
 832 002e 2A68     		ldr	r2, [r5]
 833              	.LBB48:
 834              	.LBB47:
 835              		.loc 3 146 12 view .LVU230
 836 0030 0446     		mov	r4, r0
 837              	.LVL58:
 838              		.loc 3 146 12 view .LVU231
 839              	.LBE47:
 840              	.LBE48:
 399:STM32_XPD/STM32H7_XPD/src/xpd_usart.c ****     }
 841              		.loc 1 399 9 is_stmt 1 view .LVU232
 399:STM32_XPD/STM32H7_XPD/src/xpd_usart.c ****     }
 842              		.loc 1 399 28 is_stmt 0 view .LVU233
 843 0032 D369     		ldr	r3, [r2, #28]
 844              		.loc 1 403 1 view .LVU234
 845 0034 2046     		mov	r0, r4
 399:STM32_XPD/STM32H7_XPD/src/xpd_usart.c ****     }
 846              		.loc 1 399 28 view .LVU235
 847 0036 23F00803 		bic	r3, r3, #8
 848 003a D361     		str	r3, [r2, #28]
 402:STM32_XPD/STM32H7_XPD/src/xpd_usart.c **** }
 849              		.loc 1 402 5 is_stmt 1 view .LVU236
 850              		.loc 1 403 1 is_stmt 0 view .LVU237
 851 003c 02B0     		add	sp, sp, #8
 852              	.LCFI23:
 853              		.cfi_def_cfa_offset 16
 854              		@ sp needed
 855 003e 70BD     		pop	{r4, r5, r6, pc}
 856              		.loc 1 403 1 view .LVU238
 857              		.cfi_endproc
 858              	.LFE180:
 860              		.section	.text.USART_eReceive,"ax",%progbits
 861              		.align	1
 862              		.p2align 2,,3
 863              		.global	USART_eReceive
 864              		.syntax unified
 865              		.thumb
 866              		.thumb_func
 867              		.fpu fpv4-sp-d16
 869              	USART_eReceive:
 870              	.LVL59:
 871              	.LFB181:
 404:STM32_XPD/STM32H7_XPD/src/xpd_usart.c **** 
 405:STM32_XPD/STM32H7_XPD/src/xpd_usart.c **** /**
ARM GAS  /tmp/ccgNvlLN.s 			page 32


 406:STM32_XPD/STM32H7_XPD/src/xpd_usart.c ****  * @brief Receives data over USART.
 407:STM32_XPD/STM32H7_XPD/src/xpd_usart.c ****  * @param pxUSART: pointer to the USART handle structure
 408:STM32_XPD/STM32H7_XPD/src/xpd_usart.c ****  * @param pvRxData: pointer to the data buffer
 409:STM32_XPD/STM32H7_XPD/src/xpd_usart.c ****  * @param usLength: amount of data transfers
 410:STM32_XPD/STM32H7_XPD/src/xpd_usart.c ****  * @param ulTimeout: available time for successful transmission in ms
 411:STM32_XPD/STM32H7_XPD/src/xpd_usart.c ****  * @return TIMEOUT if transmission or reception times out,
 412:STM32_XPD/STM32H7_XPD/src/xpd_usart.c ****  *         ERROR if a reception error occurs,
 413:STM32_XPD/STM32H7_XPD/src/xpd_usart.c ****  *         OK if transfer is completed
 414:STM32_XPD/STM32H7_XPD/src/xpd_usart.c ****  */
 415:STM32_XPD/STM32H7_XPD/src/xpd_usart.c **** XPD_ReturnType USART_eReceive(
 416:STM32_XPD/STM32H7_XPD/src/xpd_usart.c ****         USART_HandleType *  pxUSART,
 417:STM32_XPD/STM32H7_XPD/src/xpd_usart.c ****         void *              pvRxData,
 418:STM32_XPD/STM32H7_XPD/src/xpd_usart.c ****         uint16_t            usLength,
 419:STM32_XPD/STM32H7_XPD/src/xpd_usart.c ****         uint32_t            ulTimeout)
 420:STM32_XPD/STM32H7_XPD/src/xpd_usart.c **** {
 872              		.loc 1 420 1 is_stmt 1 view -0
 873              		.cfi_startproc
 874              		@ args = 0, pretend = 0, frame = 8
 875              		@ frame_needed = 0, uses_anonymous_args = 0
 421:STM32_XPD/STM32H7_XPD/src/xpd_usart.c ****     XPD_ReturnType eResult;
 876              		.loc 1 421 5 view .LVU240
 422:STM32_XPD/STM32H7_XPD/src/xpd_usart.c **** 
 423:STM32_XPD/STM32H7_XPD/src/xpd_usart.c ****     /* save stream info */
 424:STM32_XPD/STM32H7_XPD/src/xpd_usart.c ****     pxUSART->RxStream.buffer = pvRxData;
 877              		.loc 1 424 5 view .LVU241
 420:STM32_XPD/STM32H7_XPD/src/xpd_usart.c ****     XPD_ReturnType eResult;
 878              		.loc 1 420 1 is_stmt 0 view .LVU242
 879 0000 F0B5     		push	{r4, r5, r6, r7, lr}
 880              	.LCFI24:
 881              		.cfi_def_cfa_offset 20
 882              		.cfi_offset 4, -20
 883              		.cfi_offset 5, -16
 884              		.cfi_offset 6, -12
 885              		.cfi_offset 7, -8
 886              		.cfi_offset 14, -4
 887 0002 83B0     		sub	sp, sp, #12
 888              	.LCFI25:
 889              		.cfi_def_cfa_offset 32
 890              		.loc 1 424 30 view .LVU243
 891 0004 8162     		str	r1, [r0, #40]
 425:STM32_XPD/STM32H7_XPD/src/xpd_usart.c ****     pxUSART->RxStream.length = usLength;
 892              		.loc 1 425 5 is_stmt 1 view .LVU244
 893              		.loc 1 425 30 is_stmt 0 view .LVU245
 894 0006 8285     		strh	r2, [r0, #44]	@ movhi
 426:STM32_XPD/STM32H7_XPD/src/xpd_usart.c ****     USART_RESET_ERRORS(pxUSART);
 895              		.loc 1 426 5 is_stmt 1 view .LVU246
 427:STM32_XPD/STM32H7_XPD/src/xpd_usart.c **** 
 428:STM32_XPD/STM32H7_XPD/src/xpd_usart.c ****     while (pxUSART->RxStream.length > 0)
 896              		.loc 1 428 5 view .LVU247
 897              	.LVL60:
 898              		.loc 1 428 11 view .LVU248
 420:STM32_XPD/STM32H7_XPD/src/xpd_usart.c ****     XPD_ReturnType eResult;
 899              		.loc 1 420 1 is_stmt 0 view .LVU249
 900 0008 0193     		str	r3, [sp, #4]
 901              		.loc 1 428 11 view .LVU250
 902 000a 0AB3     		cbz	r2, .L64
 903 000c 0546     		mov	r5, r0
ARM GAS  /tmp/ccgNvlLN.s 			page 33


 429:STM32_XPD/STM32H7_XPD/src/xpd_usart.c ****     {
 430:STM32_XPD/STM32H7_XPD/src/xpd_usart.c ****         /* Send data to generate clock */
 431:STM32_XPD/STM32H7_XPD/src/xpd_usart.c ****         if (((pxUSART->Inst->CR2 & USART_CR2_CLKEN) != 0) && (pxUSART->Inst->ISR & USART_ISR_TXE_TX
 432:STM32_XPD/STM32H7_XPD/src/xpd_usart.c ****         {
 433:STM32_XPD/STM32H7_XPD/src/xpd_usart.c ****             USART_TXDR(pxUSART) = 0;
 904              		.loc 1 433 33 view .LVU251
 905 000e 0027     		movs	r7, #0
 434:STM32_XPD/STM32H7_XPD/src/xpd_usart.c ****         }
 435:STM32_XPD/STM32H7_XPD/src/xpd_usart.c **** 
 436:STM32_XPD/STM32H7_XPD/src/xpd_usart.c ****         /* Wait for not empty receive buffer */
 437:STM32_XPD/STM32H7_XPD/src/xpd_usart.c ****         eResult = XPD_eWaitForDiff(&(pxUSART->Inst->ISR), USART_ISR_RXNE_RXFNE, 0, &ulTimeout);
 438:STM32_XPD/STM32H7_XPD/src/xpd_usart.c ****         if (eResult != XPD_OK)
 439:STM32_XPD/STM32H7_XPD/src/xpd_usart.c ****         {
 440:STM32_XPD/STM32H7_XPD/src/xpd_usart.c ****             return eResult;
 441:STM32_XPD/STM32H7_XPD/src/xpd_usart.c ****         }
 442:STM32_XPD/STM32H7_XPD/src/xpd_usart.c **** 
 443:STM32_XPD/STM32H7_XPD/src/xpd_usart.c ****         XPD_vReadToStream((const uint32_t*)&USART_RXDR(pxUSART), &pxUSART->RxStream);
 906              		.loc 1 443 9 view .LVU252
 907 0010 00F12806 		add	r6, r0, #40
 908 0014 05E0     		b	.L67
 909              	.LVL61:
 910              	.L79:
 911              		.loc 1 443 44 view .LVU253
 912 0016 2868     		ldr	r0, [r5]
 913              	.LVL62:
 914              		.loc 1 443 9 view .LVU254
 915 0018 2430     		adds	r0, r0, #36
 916 001a FFF7FEFF 		bl	XPD_vReadToStream
 917              	.LVL63:
 428:STM32_XPD/STM32H7_XPD/src/xpd_usart.c ****     {
 918              		.loc 1 428 11 is_stmt 1 view .LVU255
 919 001e AB8D     		ldrh	r3, [r5, #44]
 920 0020 B3B1     		cbz	r3, .L64
 921              	.L67:
 431:STM32_XPD/STM32H7_XPD/src/xpd_usart.c ****         {
 922              		.loc 1 431 9 view .LVU256
 437:STM32_XPD/STM32H7_XPD/src/xpd_usart.c ****         if (eResult != XPD_OK)
 923              		.loc 1 437 9 view .LVU257
 431:STM32_XPD/STM32H7_XPD/src/xpd_usart.c ****         {
 924              		.loc 1 431 22 is_stmt 0 view .LVU258
 925 0022 2C68     		ldr	r4, [r5]
 926              	.LVL64:
 927              	.LBB49:
 928              	.LBI49:
 140:STM32_XPD/STM32H7_XPD/inc/xpd_utils.h ****         volatile uint32_t * pulVarAddress,
 929              		.loc 3 140 32 is_stmt 1 view .LVU259
 930              	.LBB50:
 931              		.loc 3 146 5 view .LVU260
 932              	.LBE50:
 933              	.LBE49:
 431:STM32_XPD/STM32H7_XPD/src/xpd_usart.c ****         {
 934              		.loc 1 431 28 is_stmt 0 view .LVU261
 935 0024 6368     		ldr	r3, [r4, #4]
 431:STM32_XPD/STM32H7_XPD/src/xpd_usart.c ****         {
 936              		.loc 1 431 12 view .LVU262
 937 0026 1A05     		lsls	r2, r3, #20
 938 0028 03D5     		bpl	.L65
ARM GAS  /tmp/ccgNvlLN.s 			page 34


 433:STM32_XPD/STM32H7_XPD/src/xpd_usart.c ****         }
 939              		.loc 1 433 13 is_stmt 1 discriminator 1 view .LVU263
 431:STM32_XPD/STM32H7_XPD/src/xpd_usart.c ****         {
 940              		.loc 1 431 76 is_stmt 0 discriminator 1 view .LVU264
 941 002a E369     		ldr	r3, [r4, #28]
 431:STM32_XPD/STM32H7_XPD/src/xpd_usart.c ****         {
 942              		.loc 1 431 59 discriminator 1 view .LVU265
 943 002c 1B06     		lsls	r3, r3, #24
 944 002e 00D5     		bpl	.L65
 433:STM32_XPD/STM32H7_XPD/src/xpd_usart.c ****         }
 945              		.loc 1 433 33 view .LVU266
 946 0030 A762     		str	r7, [r4, #40]
 947              	.L65:
 948              	.LBB52:
 949              	.LBB51:
 950              		.loc 3 146 12 view .LVU267
 951 0032 FFF7FEFF 		bl	XPD_pxTimeService
 952              	.LVL65:
 953 0036 0246     		mov	r2, r0
 954 0038 2021     		movs	r1, #32
 955 003a 04F11C00 		add	r0, r4, #28
 956 003e 01AB     		add	r3, sp, #4
 957              	.LVL66:
 958              		.loc 3 146 12 view .LVU268
 959 0040 D468     		ldr	r4, [r2, #12]
 960              	.LVL67:
 961              		.loc 3 146 12 view .LVU269
 962 0042 0022     		movs	r2, #0
 963 0044 A047     		blx	r4
 964              	.LVL68:
 965              		.loc 3 146 12 view .LVU270
 966              	.LBE51:
 967              	.LBE52:
 968              		.loc 1 443 9 is_stmt 1 view .LVU271
 438:STM32_XPD/STM32H7_XPD/src/xpd_usart.c ****         {
 969              		.loc 1 438 9 view .LVU272
 970              		.loc 1 443 9 is_stmt 0 view .LVU273
 971 0046 3146     		mov	r1, r6
 438:STM32_XPD/STM32H7_XPD/src/xpd_usart.c ****         {
 972              		.loc 1 438 12 view .LVU274
 973 0048 0028     		cmp	r0, #0
 974 004a E4D0     		beq	.L79
 444:STM32_XPD/STM32H7_XPD/src/xpd_usart.c ****     }
 445:STM32_XPD/STM32H7_XPD/src/xpd_usart.c ****     return eResult;
 446:STM32_XPD/STM32H7_XPD/src/xpd_usart.c **** }
 975              		.loc 1 446 1 view .LVU275
 976 004c 03B0     		add	sp, sp, #12
 977              	.LCFI26:
 978              		.cfi_remember_state
 979              		.cfi_def_cfa_offset 20
 980              		@ sp needed
 981 004e F0BD     		pop	{r4, r5, r6, r7, pc}
 982              	.LVL69:
 983              	.L64:
 984              	.LCFI27:
 985              		.cfi_restore_state
 445:STM32_XPD/STM32H7_XPD/src/xpd_usart.c **** }
ARM GAS  /tmp/ccgNvlLN.s 			page 35


 986              		.loc 1 445 12 view .LVU276
 987 0050 0020     		movs	r0, #0
 988              		.loc 1 446 1 view .LVU277
 989 0052 03B0     		add	sp, sp, #12
 990              	.LCFI28:
 991              		.cfi_def_cfa_offset 20
 992              		@ sp needed
 993 0054 F0BD     		pop	{r4, r5, r6, r7, pc}
 994              		.cfi_endproc
 995              	.LFE181:
 997 0056 00BF     		.section	.text.USART_eTransmitReceive,"ax",%progbits
 998              		.align	1
 999              		.p2align 2,,3
 1000              		.global	USART_eTransmitReceive
 1001              		.syntax unified
 1002              		.thumb
 1003              		.thumb_func
 1004              		.fpu fpv4-sp-d16
 1006              	USART_eTransmitReceive:
 1007              	.LVL70:
 1008              	.LFB182:
 447:STM32_XPD/STM32H7_XPD/src/xpd_usart.c **** 
 448:STM32_XPD/STM32H7_XPD/src/xpd_usart.c **** /**
 449:STM32_XPD/STM32H7_XPD/src/xpd_usart.c ****  * @brief Simultaneously transmits and receives data over USART (full duplex communication).
 450:STM32_XPD/STM32H7_XPD/src/xpd_usart.c ****  * @param pxUSART: pointer to the USART handle structure
 451:STM32_XPD/STM32H7_XPD/src/xpd_usart.c ****  * @param pvTxData: pointer to the transmitted data buffer
 452:STM32_XPD/STM32H7_XPD/src/xpd_usart.c ****  * @param pvRxData: pointer to the received data buffer
 453:STM32_XPD/STM32H7_XPD/src/xpd_usart.c ****  * @param usLength: amount of data transfers
 454:STM32_XPD/STM32H7_XPD/src/xpd_usart.c ****  * @param ulTimeout: available time for successful transfer in ms
 455:STM32_XPD/STM32H7_XPD/src/xpd_usart.c ****  * @return TIMEOUT if transmission or reception times out,
 456:STM32_XPD/STM32H7_XPD/src/xpd_usart.c ****  *         ERROR if a reception error occurs,
 457:STM32_XPD/STM32H7_XPD/src/xpd_usart.c ****  *         OK if transfer is completed
 458:STM32_XPD/STM32H7_XPD/src/xpd_usart.c ****  */
 459:STM32_XPD/STM32H7_XPD/src/xpd_usart.c **** XPD_ReturnType USART_eTransmitReceive(
 460:STM32_XPD/STM32H7_XPD/src/xpd_usart.c ****         USART_HandleType *  pxUSART,
 461:STM32_XPD/STM32H7_XPD/src/xpd_usart.c ****         void *              pvTxData,
 462:STM32_XPD/STM32H7_XPD/src/xpd_usart.c ****         void *              pvRxData,
 463:STM32_XPD/STM32H7_XPD/src/xpd_usart.c ****         uint16_t            usLength,
 464:STM32_XPD/STM32H7_XPD/src/xpd_usart.c ****         uint32_t            ulTimeout)
 465:STM32_XPD/STM32H7_XPD/src/xpd_usart.c **** {
 1009              		.loc 1 465 1 is_stmt 1 view -0
 1010              		.cfi_startproc
 1011              		@ args = 4, pretend = 0, frame = 0
 1012              		@ frame_needed = 0, uses_anonymous_args = 0
 466:STM32_XPD/STM32H7_XPD/src/xpd_usart.c ****     XPD_ReturnType eResult;
 1013              		.loc 1 466 5 view .LVU279
 467:STM32_XPD/STM32H7_XPD/src/xpd_usart.c **** 
 468:STM32_XPD/STM32H7_XPD/src/xpd_usart.c ****     /* save stream info */
 469:STM32_XPD/STM32H7_XPD/src/xpd_usart.c ****     pxUSART->TxStream.buffer = pvTxData;
 1014              		.loc 1 469 5 view .LVU280
 1015              		.loc 1 469 30 is_stmt 0 view .LVU281
 1016 0000 0163     		str	r1, [r0, #48]
 470:STM32_XPD/STM32H7_XPD/src/xpd_usart.c ****     pxUSART->TxStream.length = usLength;
 1017              		.loc 1 470 5 is_stmt 1 view .LVU282
 1018              		.loc 1 470 30 is_stmt 0 view .LVU283
 1019 0002 8386     		strh	r3, [r0, #52]	@ movhi
 471:STM32_XPD/STM32H7_XPD/src/xpd_usart.c ****     pxUSART->RxStream.buffer = pvRxData;
ARM GAS  /tmp/ccgNvlLN.s 			page 36


 1020              		.loc 1 471 5 is_stmt 1 view .LVU284
 472:STM32_XPD/STM32H7_XPD/src/xpd_usart.c ****     pxUSART->RxStream.length = usLength;
 1021              		.loc 1 472 30 is_stmt 0 view .LVU285
 1022 0004 8385     		strh	r3, [r0, #44]	@ movhi
 471:STM32_XPD/STM32H7_XPD/src/xpd_usart.c ****     pxUSART->RxStream.buffer = pvRxData;
 1023              		.loc 1 471 30 view .LVU286
 1024 0006 8262     		str	r2, [r0, #40]
 1025              		.loc 1 472 5 is_stmt 1 view .LVU287
 473:STM32_XPD/STM32H7_XPD/src/xpd_usart.c ****     USART_RESET_ERRORS(pxUSART);
 1026              		.loc 1 473 5 view .LVU288
 474:STM32_XPD/STM32H7_XPD/src/xpd_usart.c **** 
 475:STM32_XPD/STM32H7_XPD/src/xpd_usart.c ****     while ((pxUSART->TxStream.length + pxUSART->RxStream.length) > 0)
 1027              		.loc 1 475 5 view .LVU289
 1028              	.LVL71:
 1029              		.loc 1 475 11 view .LVU290
 1030 0008 002B     		cmp	r3, #0
 1031 000a 33D0     		beq	.L104
 465:STM32_XPD/STM32H7_XPD/src/xpd_usart.c ****     XPD_ReturnType eResult;
 1032              		.loc 1 465 1 is_stmt 0 view .LVU291
 1033 000c F8B5     		push	{r3, r4, r5, r6, r7, lr}
 1034              	.LCFI29:
 1035              		.cfi_def_cfa_offset 24
 1036              		.cfi_offset 3, -24
 1037              		.cfi_offset 4, -20
 1038              		.cfi_offset 5, -16
 1039              		.cfi_offset 6, -12
 1040              		.cfi_offset 7, -8
 1041              		.cfi_offset 14, -4
 1042 000e 0746     		mov	r7, r0
 1043 0010 0546     		mov	r5, r0
 1044              	.LBB53:
 1045              	.LBB54:
 1046              		.loc 3 146 12 view .LVU292
 1047 0012 194E     		ldr	r6, .L108
 1048 0014 57F8284B 		ldr	r4, [r7], #40
 1049              	.LVL72:
 1050              	.L81:
 1051              		.loc 3 146 12 view .LVU293
 1052              	.LBE54:
 1053              	.LBE53:
 476:STM32_XPD/STM32H7_XPD/src/xpd_usart.c ****     {
 477:STM32_XPD/STM32H7_XPD/src/xpd_usart.c ****         /* wait for buffer change */
 478:STM32_XPD/STM32H7_XPD/src/xpd_usart.c ****         eResult = XPD_eWaitForDiff(&(pxUSART->Inst->ISR),
 1054              		.loc 1 478 9 is_stmt 1 view .LVU294
 1055              	.LBB57:
 1056              	.LBB55:
 1057              		.loc 3 146 12 is_stmt 0 view .LVU295
 1058 0018 FFF7FEFF 		bl	XPD_pxTimeService
 1059              	.LVL73:
 1060              	.LBE55:
 1061              	.LBE57:
 1062              		.loc 1 478 19 view .LVU296
 1063 001c 1C34     		adds	r4, r4, #28
 1064              	.LVL74:
 1065              	.LBB58:
 1066              	.LBI53:
 140:STM32_XPD/STM32H7_XPD/inc/xpd_utils.h ****         volatile uint32_t * pulVarAddress,
ARM GAS  /tmp/ccgNvlLN.s 			page 37


 1067              		.loc 3 140 32 is_stmt 1 view .LVU297
 1068              	.LBB56:
 1069              		.loc 3 146 5 view .LVU298
 1070              		.loc 3 146 12 is_stmt 0 view .LVU299
 1071 001e 0146     		mov	r1, r0
 1072 0020 06AB     		add	r3, sp, #24
 1073              	.LVL75:
 1074              		.loc 3 146 12 view .LVU300
 1075 0022 2046     		mov	r0, r4
 1076 0024 0022     		movs	r2, #0
 1077 0026 CC68     		ldr	r4, [r1, #12]
 1078              	.LVL76:
 1079              		.loc 3 146 12 view .LVU301
 1080 0028 3146     		mov	r1, r6
 1081 002a A047     		blx	r4
 1082              	.LVL77:
 1083              		.loc 3 146 12 view .LVU302
 1084              	.LBE56:
 1085              	.LBE58:
 479:STM32_XPD/STM32H7_XPD/src/xpd_usart.c ****                 USART_ISR_TXFE | USART_ISR_RXNE_RXFNE, 0, &ulTimeout);
 480:STM32_XPD/STM32H7_XPD/src/xpd_usart.c ****         if (eResult != XPD_OK)
 481:STM32_XPD/STM32H7_XPD/src/xpd_usart.c ****         {
 482:STM32_XPD/STM32H7_XPD/src/xpd_usart.c ****             return eResult;
 483:STM32_XPD/STM32H7_XPD/src/xpd_usart.c ****         }
 484:STM32_XPD/STM32H7_XPD/src/xpd_usart.c **** 
 485:STM32_XPD/STM32H7_XPD/src/xpd_usart.c ****         /* Time to transmit */
 486:STM32_XPD/STM32H7_XPD/src/xpd_usart.c ****         if ((pxUSART->TxStream.length > 0) && ((pxUSART->Inst->ISR & USART_ISR_TXE_TXFNF_Msk) != 0)
 1086              		.loc 1 486 9 is_stmt 1 view .LVU303
 487:STM32_XPD/STM32H7_XPD/src/xpd_usart.c ****         {
 488:STM32_XPD/STM32H7_XPD/src/xpd_usart.c ****             XPD_vWriteFromStream((uint32_t*)&USART_TXDR(pxUSART), &pxUSART->TxStream);
 489:STM32_XPD/STM32H7_XPD/src/xpd_usart.c ****         }
 490:STM32_XPD/STM32H7_XPD/src/xpd_usart.c **** 
 491:STM32_XPD/STM32H7_XPD/src/xpd_usart.c ****         /* Time to receive */
 492:STM32_XPD/STM32H7_XPD/src/xpd_usart.c ****         if ((pxUSART->RxStream.length > 0) && ((pxUSART->Inst->ISR & USART_ISR_RXNE_RXFNE) != 0))
 1087              		.loc 1 492 9 view .LVU304
 480:STM32_XPD/STM32H7_XPD/src/xpd_usart.c ****         {
 1088              		.loc 1 480 9 view .LVU305
 480:STM32_XPD/STM32H7_XPD/src/xpd_usart.c ****         {
 1089              		.loc 1 480 12 is_stmt 0 view .LVU306
 1090 002c 08BB     		cbnz	r0, .L89
 486:STM32_XPD/STM32H7_XPD/src/xpd_usart.c ****         {
 1091              		.loc 1 486 12 view .LVU307
 1092 002e AB8E     		ldrh	r3, [r5, #52]
 1093 0030 53B1     		cbz	r3, .L83
 486:STM32_XPD/STM32H7_XPD/src/xpd_usart.c ****         {
 1094              		.loc 1 486 56 discriminator 1 view .LVU308
 1095 0032 2C68     		ldr	r4, [r5]
 486:STM32_XPD/STM32H7_XPD/src/xpd_usart.c ****         {
 1096              		.loc 1 486 62 discriminator 1 view .LVU309
 1097 0034 E369     		ldr	r3, [r4, #28]
 486:STM32_XPD/STM32H7_XPD/src/xpd_usart.c ****         {
 1098              		.loc 1 486 44 discriminator 1 view .LVU310
 1099 0036 1A06     		lsls	r2, r3, #24
 1100 0038 13D4     		bmi	.L107
 1101              	.LVL78:
 1102              	.L84:
 1103              		.loc 1 492 9 is_stmt 1 view .LVU311
ARM GAS  /tmp/ccgNvlLN.s 			page 38


 1104              		.loc 1 492 31 is_stmt 0 view .LVU312
 1105 003a AB8D     		ldrh	r3, [r5, #44]
 1106              		.loc 1 492 12 view .LVU313
 1107 003c 33B9     		cbnz	r3, .L88
 1108              	.L85:
 1109              	.LVL79:
 475:STM32_XPD/STM32H7_XPD/src/xpd_usart.c ****     {
 1110              		.loc 1 475 11 is_stmt 1 view .LVU314
 475:STM32_XPD/STM32H7_XPD/src/xpd_usart.c ****     {
 1111              		.loc 1 475 30 is_stmt 0 view .LVU315
 1112 003e AA8E     		ldrh	r2, [r5, #52]
 475:STM32_XPD/STM32H7_XPD/src/xpd_usart.c ****     {
 1113              		.loc 1 475 11 view .LVU316
 1114 0040 DA42     		cmn	r2, r3
 1115 0042 15D0     		beq	.L87
 1116 0044 2C68     		ldr	r4, [r5]
 475:STM32_XPD/STM32H7_XPD/src/xpd_usart.c ****     {
 1117              		.loc 1 475 11 view .LVU317
 1118 0046 E7E7     		b	.L81
 1119              	.LVL80:
 1120              	.L83:
 1121              		.loc 1 492 12 view .LVU318
 1122 0048 AB8D     		ldrh	r3, [r5, #44]
 1123 004a 8BB1     		cbz	r3, .L87
 1124              	.LVL81:
 1125              	.L88:
 1126              		.loc 1 492 56 discriminator 1 view .LVU319
 1127 004c 2C68     		ldr	r4, [r5]
 1128              		.loc 1 492 62 discriminator 1 view .LVU320
 1129 004e E369     		ldr	r3, [r4, #28]
 1130              		.loc 1 492 44 discriminator 1 view .LVU321
 1131 0050 9B06     		lsls	r3, r3, #26
 1132 0052 E1D5     		bpl	.L81
 493:STM32_XPD/STM32H7_XPD/src/xpd_usart.c ****         {
 494:STM32_XPD/STM32H7_XPD/src/xpd_usart.c ****             XPD_vReadToStream((const uint32_t*)&USART_RXDR(pxUSART), &pxUSART->RxStream);
 1133              		.loc 1 494 13 is_stmt 1 view .LVU322
 1134 0054 04F12400 		add	r0, r4, #36
 1135 0058 3946     		mov	r1, r7
 1136 005a FFF7FEFF 		bl	XPD_vReadToStream
 1137              	.LVL82:
 1138 005e AB8D     		ldrh	r3, [r5, #44]
 1139 0060 EDE7     		b	.L85
 1140              	.LVL83:
 1141              	.L107:
 488:STM32_XPD/STM32H7_XPD/src/xpd_usart.c ****         }
 1142              		.loc 1 488 13 view .LVU323
 1143 0062 04F12800 		add	r0, r4, #40
 1144              	.LVL84:
 488:STM32_XPD/STM32H7_XPD/src/xpd_usart.c ****         }
 1145              		.loc 1 488 13 is_stmt 0 view .LVU324
 1146 0066 05F13001 		add	r1, r5, #48
 1147 006a FFF7FEFF 		bl	XPD_vWriteFromStream
 1148              	.LVL85:
 1149 006e E4E7     		b	.L84
 1150              	.L87:
 495:STM32_XPD/STM32H7_XPD/src/xpd_usart.c ****         }
 496:STM32_XPD/STM32H7_XPD/src/xpd_usart.c ****     }
ARM GAS  /tmp/ccgNvlLN.s 			page 39


 497:STM32_XPD/STM32H7_XPD/src/xpd_usart.c **** 
 498:STM32_XPD/STM32H7_XPD/src/xpd_usart.c ****     return eResult;
 1151              		.loc 1 498 12 view .LVU325
 1152 0070 0020     		movs	r0, #0
 1153              	.L89:
 499:STM32_XPD/STM32H7_XPD/src/xpd_usart.c **** }
 1154              		.loc 1 499 1 view .LVU326
 1155 0072 F8BD     		pop	{r3, r4, r5, r6, r7, pc}
 1156              	.LVL86:
 1157              	.L104:
 1158              	.LCFI30:
 1159              		.cfi_def_cfa_offset 0
 1160              		.cfi_restore 3
 1161              		.cfi_restore 4
 1162              		.cfi_restore 5
 1163              		.cfi_restore 6
 1164              		.cfi_restore 7
 1165              		.cfi_restore 14
 498:STM32_XPD/STM32H7_XPD/src/xpd_usart.c **** }
 1166              		.loc 1 498 12 view .LVU327
 1167 0074 0020     		movs	r0, #0
 1168              	.LVL87:
 1169              		.loc 1 499 1 view .LVU328
 1170 0076 7047     		bx	lr
 1171              	.L109:
 1172              		.align	2
 1173              	.L108:
 1174 0078 20008000 		.word	8388640
 1175              		.cfi_endproc
 1176              	.LFE182:
 1178              		.section	.text.USART_eSendReceive,"ax",%progbits
 1179              		.align	1
 1180              		.p2align 2,,3
 1181              		.global	USART_eSendReceive
 1182              		.syntax unified
 1183              		.thumb
 1184              		.thumb_func
 1185              		.fpu fpv4-sp-d16
 1187              	USART_eSendReceive:
 1188              	.LVL88:
 1189              	.LFB183:
 500:STM32_XPD/STM32H7_XPD/src/xpd_usart.c **** 
 501:STM32_XPD/STM32H7_XPD/src/xpd_usart.c **** /**
 502:STM32_XPD/STM32H7_XPD/src/xpd_usart.c ****  * @brief Simultaneously transmits and receives data over USART (full duplex communication).
 503:STM32_XPD/STM32H7_XPD/src/xpd_usart.c ****  * @param pxUSART: pointer to the USART handle structure
 504:STM32_XPD/STM32H7_XPD/src/xpd_usart.c ****  * @param pvTxData: pointer to the transmitted data buffer
 505:STM32_XPD/STM32H7_XPD/src/xpd_usart.c ****  * @param pvRxData: pointer to the received data buffer
 506:STM32_XPD/STM32H7_XPD/src/xpd_usart.c ****  * @param usLength: amount of data transfers
 507:STM32_XPD/STM32H7_XPD/src/xpd_usart.c ****  * @param ulTimeout: available time for successful transfer in ms
 508:STM32_XPD/STM32H7_XPD/src/xpd_usart.c ****  * @return TIMEOUT if transmission or reception times out,
 509:STM32_XPD/STM32H7_XPD/src/xpd_usart.c ****  *         ERROR if a reception error occurs,
 510:STM32_XPD/STM32H7_XPD/src/xpd_usart.c ****  *         OK if transfer is completed
 511:STM32_XPD/STM32H7_XPD/src/xpd_usart.c ****  */
 512:STM32_XPD/STM32H7_XPD/src/xpd_usart.c **** XPD_ReturnType USART_eSendReceive(
 513:STM32_XPD/STM32H7_XPD/src/xpd_usart.c ****         USART_HandleType *  pxUSART,
 514:STM32_XPD/STM32H7_XPD/src/xpd_usart.c ****         void *              pvTxData,
 515:STM32_XPD/STM32H7_XPD/src/xpd_usart.c ****         void *              pvRxData,
ARM GAS  /tmp/ccgNvlLN.s 			page 40


 516:STM32_XPD/STM32H7_XPD/src/xpd_usart.c ****         uint16_t            usLength,
 517:STM32_XPD/STM32H7_XPD/src/xpd_usart.c ****         uint32_t            ulTimeout)
 518:STM32_XPD/STM32H7_XPD/src/xpd_usart.c **** {
 1190              		.loc 1 518 1 is_stmt 1 view -0
 1191              		.cfi_startproc
 1192              		@ args = 4, pretend = 0, frame = 0
 1193              		@ frame_needed = 0, uses_anonymous_args = 0
 519:STM32_XPD/STM32H7_XPD/src/xpd_usart.c ****     XPD_ReturnType eResult = USART_eTransmitReceive(pxUSART,
 1194              		.loc 1 519 5 view .LVU330
 518:STM32_XPD/STM32H7_XPD/src/xpd_usart.c ****     XPD_ReturnType eResult = USART_eTransmitReceive(pxUSART,
 1195              		.loc 1 518 1 is_stmt 0 view .LVU331
 1196 0000 30B5     		push	{r4, r5, lr}
 1197              	.LCFI31:
 1198              		.cfi_def_cfa_offset 12
 1199              		.cfi_offset 4, -12
 1200              		.cfi_offset 5, -8
 1201              		.cfi_offset 14, -4
 1202 0002 83B0     		sub	sp, sp, #12
 1203              	.LCFI32:
 1204              		.cfi_def_cfa_offset 24
 518:STM32_XPD/STM32H7_XPD/src/xpd_usart.c ****     XPD_ReturnType eResult = USART_eTransmitReceive(pxUSART,
 1205              		.loc 1 518 1 view .LVU332
 1206 0004 0546     		mov	r5, r0
 1207              		.loc 1 519 30 view .LVU333
 1208 0006 069C     		ldr	r4, [sp, #24]
 1209 0008 0094     		str	r4, [sp]
 1210 000a FFF7FEFF 		bl	USART_eTransmitReceive
 1211              	.LVL89:
 520:STM32_XPD/STM32H7_XPD/src/xpd_usart.c ****             pvTxData, pvRxData, usLength, ulTimeout);
 521:STM32_XPD/STM32H7_XPD/src/xpd_usart.c **** 
 522:STM32_XPD/STM32H7_XPD/src/xpd_usart.c ****     if (eResult == XPD_OK)
 1212              		.loc 1 522 5 is_stmt 1 view .LVU334
 1213              		.loc 1 522 8 is_stmt 0 view .LVU335
 1214 000e 0446     		mov	r4, r0
 1215 0010 10B1     		cbz	r0, .L113
 1216              	.LVL90:
 523:STM32_XPD/STM32H7_XPD/src/xpd_usart.c ****     {
 524:STM32_XPD/STM32H7_XPD/src/xpd_usart.c ****         /* wait for the last transmission to finish */
 525:STM32_XPD/STM32H7_XPD/src/xpd_usart.c ****         eResult = XPD_eWaitForDiff(&(pxUSART->Inst->ISR),
 526:STM32_XPD/STM32H7_XPD/src/xpd_usart.c ****                 USART_ISR_TC, 0, &ulTimeout);
 527:STM32_XPD/STM32H7_XPD/src/xpd_usart.c ****     }
 528:STM32_XPD/STM32H7_XPD/src/xpd_usart.c **** 
 529:STM32_XPD/STM32H7_XPD/src/xpd_usart.c ****     return eResult;
 1217              		.loc 1 529 5 is_stmt 1 view .LVU336
 530:STM32_XPD/STM32H7_XPD/src/xpd_usart.c **** }
 1218              		.loc 1 530 1 is_stmt 0 view .LVU337
 1219 0012 2046     		mov	r0, r4
 1220 0014 03B0     		add	sp, sp, #12
 1221              	.LCFI33:
 1222              		.cfi_remember_state
 1223              		.cfi_def_cfa_offset 12
 1224              		@ sp needed
 1225 0016 30BD     		pop	{r4, r5, pc}
 1226              	.LVL91:
 1227              	.L113:
 1228              	.LCFI34:
 1229              		.cfi_restore_state
ARM GAS  /tmp/ccgNvlLN.s 			page 41


 525:STM32_XPD/STM32H7_XPD/src/xpd_usart.c ****                 USART_ISR_TC, 0, &ulTimeout);
 1230              		.loc 1 525 9 is_stmt 1 view .LVU338
 525:STM32_XPD/STM32H7_XPD/src/xpd_usart.c ****                 USART_ISR_TC, 0, &ulTimeout);
 1231              		.loc 1 525 19 is_stmt 0 view .LVU339
 1232 0018 2D68     		ldr	r5, [r5]
 1233              	.LVL92:
 1234              	.LBB59:
 1235              	.LBB60:
 1236              		.loc 3 146 12 view .LVU340
 1237 001a FFF7FEFF 		bl	XPD_pxTimeService
 1238              	.LVL93:
 1239              		.loc 3 146 12 view .LVU341
 1240 001e 0146     		mov	r1, r0
 1241 0020 2246     		mov	r2, r4
 1242              	.LBE60:
 1243              	.LBE59:
 525:STM32_XPD/STM32H7_XPD/src/xpd_usart.c ****                 USART_ISR_TC, 0, &ulTimeout);
 1244              		.loc 1 525 19 view .LVU342
 1245 0022 1C35     		adds	r5, r5, #28
 1246              	.LVL94:
 1247              	.LBB62:
 1248              	.LBI59:
 140:STM32_XPD/STM32H7_XPD/inc/xpd_utils.h ****         volatile uint32_t * pulVarAddress,
 1249              		.loc 3 140 32 is_stmt 1 view .LVU343
 1250              	.LBB61:
 1251              		.loc 3 146 5 view .LVU344
 1252              		.loc 3 146 12 is_stmt 0 view .LVU345
 1253 0024 06AB     		add	r3, sp, #24
 1254              	.LVL95:
 1255              		.loc 3 146 12 view .LVU346
 1256 0026 CC68     		ldr	r4, [r1, #12]
 1257 0028 4021     		movs	r1, #64
 1258 002a 2846     		mov	r0, r5
 1259 002c A047     		blx	r4
 1260              	.LVL96:
 1261              		.loc 3 146 12 view .LVU347
 1262 002e 0446     		mov	r4, r0
 1263              	.LVL97:
 1264              		.loc 3 146 12 view .LVU348
 1265              	.LBE61:
 1266              	.LBE62:
 529:STM32_XPD/STM32H7_XPD/src/xpd_usart.c **** }
 1267              		.loc 1 529 5 is_stmt 1 view .LVU349
 1268              		.loc 1 530 1 is_stmt 0 view .LVU350
 1269 0030 2046     		mov	r0, r4
 1270 0032 03B0     		add	sp, sp, #12
 1271              	.LCFI35:
 1272              		.cfi_def_cfa_offset 12
 1273              		@ sp needed
 1274 0034 30BD     		pop	{r4, r5, pc}
 1275              		.loc 1 530 1 view .LVU351
 1276              		.cfi_endproc
 1277              	.LFE183:
 1279 0036 00BF     		.section	.text.USART_vTransmit_IT,"ax",%progbits
 1280              		.align	1
 1281              		.p2align 2,,3
 1282              		.global	USART_vTransmit_IT
ARM GAS  /tmp/ccgNvlLN.s 			page 42


 1283              		.syntax unified
 1284              		.thumb
 1285              		.thumb_func
 1286              		.fpu fpv4-sp-d16
 1288              	USART_vTransmit_IT:
 1289              	.LVL98:
 1290              	.LFB184:
 531:STM32_XPD/STM32H7_XPD/src/xpd_usart.c **** 
 532:STM32_XPD/STM32H7_XPD/src/xpd_usart.c **** /**
 533:STM32_XPD/STM32H7_XPD/src/xpd_usart.c ****  * @brief Starts interrupt-driven data transmission over USART.
 534:STM32_XPD/STM32H7_XPD/src/xpd_usart.c ****  * @param pxUSART: pointer to the USART handle structure
 535:STM32_XPD/STM32H7_XPD/src/xpd_usart.c ****  * @param pvTxData: pointer to the data buffer
 536:STM32_XPD/STM32H7_XPD/src/xpd_usart.c ****  * @param usLength: amount of data transfers
 537:STM32_XPD/STM32H7_XPD/src/xpd_usart.c ****  */
 538:STM32_XPD/STM32H7_XPD/src/xpd_usart.c **** void USART_vTransmit_IT(
 539:STM32_XPD/STM32H7_XPD/src/xpd_usart.c ****         USART_HandleType *  pxUSART,
 540:STM32_XPD/STM32H7_XPD/src/xpd_usart.c ****         void *              pvTxData,
 541:STM32_XPD/STM32H7_XPD/src/xpd_usart.c ****         uint16_t            usLength)
 542:STM32_XPD/STM32H7_XPD/src/xpd_usart.c **** {
 1291              		.loc 1 542 1 is_stmt 1 view -0
 1292              		.cfi_startproc
 1293              		@ args = 0, pretend = 0, frame = 0
 1294              		@ frame_needed = 0, uses_anonymous_args = 0
 1295              		@ link register save eliminated.
 543:STM32_XPD/STM32H7_XPD/src/xpd_usart.c ****     /* save stream info */
 544:STM32_XPD/STM32H7_XPD/src/xpd_usart.c ****     pxUSART->TxStream.buffer = pvTxData;
 1296              		.loc 1 544 5 view .LVU353
 542:STM32_XPD/STM32H7_XPD/src/xpd_usart.c ****     /* save stream info */
 1297              		.loc 1 542 1 is_stmt 0 view .LVU354
 1298 0000 10B4     		push	{r4}
 1299              	.LCFI36:
 1300              		.cfi_def_cfa_offset 4
 1301              		.cfi_offset 4, -4
 545:STM32_XPD/STM32H7_XPD/src/xpd_usart.c ****     pxUSART->TxStream.length = usLength;
 546:STM32_XPD/STM32H7_XPD/src/xpd_usart.c ****     USART_RESET_ERRORS(pxUSART);
 547:STM32_XPD/STM32H7_XPD/src/xpd_usart.c **** 
 548:STM32_XPD/STM32H7_XPD/src/xpd_usart.c ****     /* Enable TXE interrupt */
 549:STM32_XPD/STM32H7_XPD/src/xpd_usart.c ****     pxUSART->Inst->CR1 |= USART_CR1_TXEIE_TXFNFIE;
 1302              		.loc 1 549 12 view .LVU355
 1303 0002 0468     		ldr	r4, [r0]
 544:STM32_XPD/STM32H7_XPD/src/xpd_usart.c ****     pxUSART->TxStream.length = usLength;
 1304              		.loc 1 544 30 view .LVU356
 1305 0004 0163     		str	r1, [r0, #48]
 545:STM32_XPD/STM32H7_XPD/src/xpd_usart.c ****     pxUSART->TxStream.length = usLength;
 1306              		.loc 1 545 5 is_stmt 1 view .LVU357
 1307              		.loc 1 549 24 is_stmt 0 view .LVU358
 1308 0006 2368     		ldr	r3, [r4]
 545:STM32_XPD/STM32H7_XPD/src/xpd_usart.c ****     pxUSART->TxStream.length = usLength;
 1309              		.loc 1 545 30 view .LVU359
 1310 0008 8286     		strh	r2, [r0, #52]	@ movhi
 546:STM32_XPD/STM32H7_XPD/src/xpd_usart.c **** 
 1311              		.loc 1 546 5 is_stmt 1 view .LVU360
 1312              		.loc 1 549 5 view .LVU361
 1313              		.loc 1 549 24 is_stmt 0 view .LVU362
 1314 000a 43F08003 		orr	r3, r3, #128
 1315 000e 2360     		str	r3, [r4]
 550:STM32_XPD/STM32H7_XPD/src/xpd_usart.c **** }
ARM GAS  /tmp/ccgNvlLN.s 			page 43


 1316              		.loc 1 550 1 view .LVU363
 1317 0010 5DF8044B 		ldr	r4, [sp], #4
 1318              	.LCFI37:
 1319              		.cfi_restore 4
 1320              		.cfi_def_cfa_offset 0
 1321 0014 7047     		bx	lr
 1322              		.cfi_endproc
 1323              	.LFE184:
 1325 0016 00BF     		.section	.text.USART_vSend_IT,"ax",%progbits
 1326              		.align	1
 1327              		.p2align 2,,3
 1328              		.global	USART_vSend_IT
 1329              		.syntax unified
 1330              		.thumb
 1331              		.thumb_func
 1332              		.fpu fpv4-sp-d16
 1334              	USART_vSend_IT:
 1335              	.LVL99:
 1336              	.LFB185:
 551:STM32_XPD/STM32H7_XPD/src/xpd_usart.c **** 
 552:STM32_XPD/STM32H7_XPD/src/xpd_usart.c **** /**
 553:STM32_XPD/STM32H7_XPD/src/xpd_usart.c ****  * @brief Starts interrupt-driven data transmission over USART.
 554:STM32_XPD/STM32H7_XPD/src/xpd_usart.c ****  * @param pxUSART: pointer to the USART handle structure
 555:STM32_XPD/STM32H7_XPD/src/xpd_usart.c ****  * @param pvTxData: pointer to the data buffer
 556:STM32_XPD/STM32H7_XPD/src/xpd_usart.c ****  * @param usLength: amount of data transfers
 557:STM32_XPD/STM32H7_XPD/src/xpd_usart.c ****  */
 558:STM32_XPD/STM32H7_XPD/src/xpd_usart.c **** void USART_vSend_IT(
 559:STM32_XPD/STM32H7_XPD/src/xpd_usart.c ****         USART_HandleType *  pxUSART,
 560:STM32_XPD/STM32H7_XPD/src/xpd_usart.c ****         void *              pvTxData,
 561:STM32_XPD/STM32H7_XPD/src/xpd_usart.c ****         uint16_t            usLength)
 562:STM32_XPD/STM32H7_XPD/src/xpd_usart.c **** {
 1337              		.loc 1 562 1 is_stmt 1 view -0
 1338              		.cfi_startproc
 1339              		@ args = 0, pretend = 0, frame = 0
 1340              		@ frame_needed = 0, uses_anonymous_args = 0
 1341              		@ link register save eliminated.
 563:STM32_XPD/STM32H7_XPD/src/xpd_usart.c ****     /* save stream info */
 564:STM32_XPD/STM32H7_XPD/src/xpd_usart.c ****     pxUSART->TxStream.buffer = pvTxData;
 1342              		.loc 1 564 5 view .LVU365
 562:STM32_XPD/STM32H7_XPD/src/xpd_usart.c ****     /* save stream info */
 1343              		.loc 1 562 1 is_stmt 0 view .LVU366
 1344 0000 10B4     		push	{r4}
 1345              	.LCFI38:
 1346              		.cfi_def_cfa_offset 4
 1347              		.cfi_offset 4, -4
 565:STM32_XPD/STM32H7_XPD/src/xpd_usart.c ****     pxUSART->TxStream.length = usLength;
 566:STM32_XPD/STM32H7_XPD/src/xpd_usart.c ****     USART_RESET_ERRORS(pxUSART);
 567:STM32_XPD/STM32H7_XPD/src/xpd_usart.c **** 
 568:STM32_XPD/STM32H7_XPD/src/xpd_usart.c ****     /* Enable TXE and TC interrupts */
 569:STM32_XPD/STM32H7_XPD/src/xpd_usart.c ****     pxUSART->Inst->CR1 |= (USART_CR1_TXEIE_TXFNFIE | USART_CR1_TCIE);
 1348              		.loc 1 569 12 view .LVU367
 1349 0002 0468     		ldr	r4, [r0]
 564:STM32_XPD/STM32H7_XPD/src/xpd_usart.c ****     pxUSART->TxStream.length = usLength;
 1350              		.loc 1 564 30 view .LVU368
 1351 0004 0163     		str	r1, [r0, #48]
 565:STM32_XPD/STM32H7_XPD/src/xpd_usart.c ****     pxUSART->TxStream.length = usLength;
 1352              		.loc 1 565 5 is_stmt 1 view .LVU369
ARM GAS  /tmp/ccgNvlLN.s 			page 44


 1353              		.loc 1 569 24 is_stmt 0 view .LVU370
 1354 0006 2368     		ldr	r3, [r4]
 565:STM32_XPD/STM32H7_XPD/src/xpd_usart.c ****     pxUSART->TxStream.length = usLength;
 1355              		.loc 1 565 30 view .LVU371
 1356 0008 8286     		strh	r2, [r0, #52]	@ movhi
 566:STM32_XPD/STM32H7_XPD/src/xpd_usart.c **** 
 1357              		.loc 1 566 5 is_stmt 1 view .LVU372
 1358              		.loc 1 569 5 view .LVU373
 1359              		.loc 1 569 24 is_stmt 0 view .LVU374
 1360 000a 43F0C003 		orr	r3, r3, #192
 1361 000e 2360     		str	r3, [r4]
 570:STM32_XPD/STM32H7_XPD/src/xpd_usart.c **** }
 1362              		.loc 1 570 1 view .LVU375
 1363 0010 5DF8044B 		ldr	r4, [sp], #4
 1364              	.LCFI39:
 1365              		.cfi_restore 4
 1366              		.cfi_def_cfa_offset 0
 1367 0014 7047     		bx	lr
 1368              		.cfi_endproc
 1369              	.LFE185:
 1371 0016 00BF     		.section	.text.USART_vReceive_IT,"ax",%progbits
 1372              		.align	1
 1373              		.p2align 2,,3
 1374              		.global	USART_vReceive_IT
 1375              		.syntax unified
 1376              		.thumb
 1377              		.thumb_func
 1378              		.fpu fpv4-sp-d16
 1380              	USART_vReceive_IT:
 1381              	.LVL100:
 1382              	.LFB186:
 571:STM32_XPD/STM32H7_XPD/src/xpd_usart.c **** 
 572:STM32_XPD/STM32H7_XPD/src/xpd_usart.c **** /**
 573:STM32_XPD/STM32H7_XPD/src/xpd_usart.c ****  * @brief Starts interrupt-driven data reception over USART.
 574:STM32_XPD/STM32H7_XPD/src/xpd_usart.c ****  * @note  In synchronous mode the user has to ensure data transmission in order to generate clock.
 575:STM32_XPD/STM32H7_XPD/src/xpd_usart.c ****  * @param pxUSART: pointer to the USART handle structure
 576:STM32_XPD/STM32H7_XPD/src/xpd_usart.c ****  * @param pvTxData: pointer to the data buffer
 577:STM32_XPD/STM32H7_XPD/src/xpd_usart.c ****  * @param usLength: amount of data transfers
 578:STM32_XPD/STM32H7_XPD/src/xpd_usart.c ****  */
 579:STM32_XPD/STM32H7_XPD/src/xpd_usart.c **** void USART_vReceive_IT(
 580:STM32_XPD/STM32H7_XPD/src/xpd_usart.c ****         USART_HandleType *  pxUSART,
 581:STM32_XPD/STM32H7_XPD/src/xpd_usart.c ****         void *              pvRxData,
 582:STM32_XPD/STM32H7_XPD/src/xpd_usart.c ****         uint16_t            usLength)
 583:STM32_XPD/STM32H7_XPD/src/xpd_usart.c **** {
 1383              		.loc 1 583 1 is_stmt 1 view -0
 1384              		.cfi_startproc
 1385              		@ args = 0, pretend = 0, frame = 0
 1386              		@ frame_needed = 0, uses_anonymous_args = 0
 1387              		@ link register save eliminated.
 584:STM32_XPD/STM32H7_XPD/src/xpd_usart.c ****     /* save stream info */
 585:STM32_XPD/STM32H7_XPD/src/xpd_usart.c ****     pxUSART->RxStream.buffer = pvRxData;
 1388              		.loc 1 585 5 view .LVU377
 583:STM32_XPD/STM32H7_XPD/src/xpd_usart.c ****     /* save stream info */
 1389              		.loc 1 583 1 is_stmt 0 view .LVU378
 1390 0000 10B4     		push	{r4}
 1391              	.LCFI40:
 1392              		.cfi_def_cfa_offset 4
ARM GAS  /tmp/ccgNvlLN.s 			page 45


 1393              		.cfi_offset 4, -4
 586:STM32_XPD/STM32H7_XPD/src/xpd_usart.c ****     pxUSART->RxStream.length = usLength;
 587:STM32_XPD/STM32H7_XPD/src/xpd_usart.c ****     USART_RESET_ERRORS(pxUSART);
 588:STM32_XPD/STM32H7_XPD/src/xpd_usart.c **** 
 589:STM32_XPD/STM32H7_XPD/src/xpd_usart.c **** #ifdef __XPD_USART_ERROR_DETECT
 590:STM32_XPD/STM32H7_XPD/src/xpd_usart.c ****     USART_IT_ENABLE(pxUSART, PE);
 591:STM32_XPD/STM32H7_XPD/src/xpd_usart.c ****     pxUSART->Inst->CR1 |= USART_CR1_PEIE;
 592:STM32_XPD/STM32H7_XPD/src/xpd_usart.c **** #endif
 593:STM32_XPD/STM32H7_XPD/src/xpd_usart.c ****     /* Enable RXNE interrupt */
 594:STM32_XPD/STM32H7_XPD/src/xpd_usart.c ****     pxUSART->Inst->CR1 |= USART_CR1_RXNEIE_RXFNEIE;
 1394              		.loc 1 594 12 view .LVU379
 1395 0002 0468     		ldr	r4, [r0]
 585:STM32_XPD/STM32H7_XPD/src/xpd_usart.c ****     pxUSART->RxStream.length = usLength;
 1396              		.loc 1 585 30 view .LVU380
 1397 0004 8162     		str	r1, [r0, #40]
 586:STM32_XPD/STM32H7_XPD/src/xpd_usart.c ****     pxUSART->RxStream.length = usLength;
 1398              		.loc 1 586 5 is_stmt 1 view .LVU381
 1399              		.loc 1 594 24 is_stmt 0 view .LVU382
 1400 0006 2368     		ldr	r3, [r4]
 586:STM32_XPD/STM32H7_XPD/src/xpd_usart.c ****     pxUSART->RxStream.length = usLength;
 1401              		.loc 1 586 30 view .LVU383
 1402 0008 8285     		strh	r2, [r0, #44]	@ movhi
 587:STM32_XPD/STM32H7_XPD/src/xpd_usart.c **** 
 1403              		.loc 1 587 5 is_stmt 1 view .LVU384
 1404              		.loc 1 594 5 view .LVU385
 1405              		.loc 1 594 24 is_stmt 0 view .LVU386
 1406 000a 43F02003 		orr	r3, r3, #32
 1407 000e 2360     		str	r3, [r4]
 595:STM32_XPD/STM32H7_XPD/src/xpd_usart.c **** }
 1408              		.loc 1 595 1 view .LVU387
 1409 0010 5DF8044B 		ldr	r4, [sp], #4
 1410              	.LCFI41:
 1411              		.cfi_restore 4
 1412              		.cfi_def_cfa_offset 0
 1413 0014 7047     		bx	lr
 1414              		.cfi_endproc
 1415              	.LFE186:
 1417 0016 00BF     		.section	.text.USART_vTransmitReceive_IT,"ax",%progbits
 1418              		.align	1
 1419              		.p2align 2,,3
 1420              		.global	USART_vTransmitReceive_IT
 1421              		.syntax unified
 1422              		.thumb
 1423              		.thumb_func
 1424              		.fpu fpv4-sp-d16
 1426              	USART_vTransmitReceive_IT:
 1427              	.LVL101:
 1428              	.LFB187:
 596:STM32_XPD/STM32H7_XPD/src/xpd_usart.c **** 
 597:STM32_XPD/STM32H7_XPD/src/xpd_usart.c **** /**
 598:STM32_XPD/STM32H7_XPD/src/xpd_usart.c ****  * @brief Starts interrupt-driven full-duplex data transfer over USART.
 599:STM32_XPD/STM32H7_XPD/src/xpd_usart.c ****  * @param pxUSART: pointer to the USART handle structure
 600:STM32_XPD/STM32H7_XPD/src/xpd_usart.c ****  * @param pvTxData: pointer to the transmitted data buffer
 601:STM32_XPD/STM32H7_XPD/src/xpd_usart.c ****  * @param pvRxData: pointer to the received data buffer
 602:STM32_XPD/STM32H7_XPD/src/xpd_usart.c ****  * @param usLength: amount of data transfers
 603:STM32_XPD/STM32H7_XPD/src/xpd_usart.c ****  */
 604:STM32_XPD/STM32H7_XPD/src/xpd_usart.c **** void USART_vTransmitReceive_IT(
ARM GAS  /tmp/ccgNvlLN.s 			page 46


 605:STM32_XPD/STM32H7_XPD/src/xpd_usart.c ****         USART_HandleType *  pxUSART,
 606:STM32_XPD/STM32H7_XPD/src/xpd_usart.c ****         void *              pvTxData,
 607:STM32_XPD/STM32H7_XPD/src/xpd_usart.c ****         void *              pvRxData,
 608:STM32_XPD/STM32H7_XPD/src/xpd_usart.c ****         uint16_t            usLength)
 609:STM32_XPD/STM32H7_XPD/src/xpd_usart.c **** {
 1429              		.loc 1 609 1 is_stmt 1 view -0
 1430              		.cfi_startproc
 1431              		@ args = 0, pretend = 0, frame = 0
 1432              		@ frame_needed = 0, uses_anonymous_args = 0
 1433              		@ link register save eliminated.
 610:STM32_XPD/STM32H7_XPD/src/xpd_usart.c ****     /* save stream info */
 611:STM32_XPD/STM32H7_XPD/src/xpd_usart.c ****     pxUSART->TxStream.buffer = pvTxData;
 1434              		.loc 1 611 5 view .LVU389
 609:STM32_XPD/STM32H7_XPD/src/xpd_usart.c ****     /* save stream info */
 1435              		.loc 1 609 1 is_stmt 0 view .LVU390
 1436 0000 30B4     		push	{r4, r5}
 1437              	.LCFI42:
 1438              		.cfi_def_cfa_offset 8
 1439              		.cfi_offset 4, -8
 1440              		.cfi_offset 5, -4
 612:STM32_XPD/STM32H7_XPD/src/xpd_usart.c ****     pxUSART->TxStream.length = usLength;
 613:STM32_XPD/STM32H7_XPD/src/xpd_usart.c ****     pxUSART->RxStream.buffer = pvRxData;
 614:STM32_XPD/STM32H7_XPD/src/xpd_usart.c ****     pxUSART->RxStream.length = usLength;
 615:STM32_XPD/STM32H7_XPD/src/xpd_usart.c ****     USART_RESET_ERRORS(pxUSART);
 616:STM32_XPD/STM32H7_XPD/src/xpd_usart.c **** 
 617:STM32_XPD/STM32H7_XPD/src/xpd_usart.c **** #ifdef __XPD_USART_ERROR_DETECT
 618:STM32_XPD/STM32H7_XPD/src/xpd_usart.c ****     pxUSART->Inst->CR1 |= USART_CR1_PEIE;
 619:STM32_XPD/STM32H7_XPD/src/xpd_usart.c **** #endif
 620:STM32_XPD/STM32H7_XPD/src/xpd_usart.c ****     /* Enable TXE, RXNE interrupt */
 621:STM32_XPD/STM32H7_XPD/src/xpd_usart.c ****     pxUSART->Inst->CR1 |= USART_CR1_RXNEIE_RXFNEIE | USART_CR1_TXEIE_TXFNFIE;
 1441              		.loc 1 621 12 view .LVU391
 1442 0002 0568     		ldr	r5, [r0]
 612:STM32_XPD/STM32H7_XPD/src/xpd_usart.c ****     pxUSART->TxStream.length = usLength;
 1443              		.loc 1 612 30 view .LVU392
 1444 0004 8386     		strh	r3, [r0, #52]	@ movhi
 1445              		.loc 1 621 24 view .LVU393
 1446 0006 2C68     		ldr	r4, [r5]
 614:STM32_XPD/STM32H7_XPD/src/xpd_usart.c ****     USART_RESET_ERRORS(pxUSART);
 1447              		.loc 1 614 30 view .LVU394
 1448 0008 8385     		strh	r3, [r0, #44]	@ movhi
 1449              		.loc 1 621 24 view .LVU395
 1450 000a 44F0A004 		orr	r4, r4, #160
 611:STM32_XPD/STM32H7_XPD/src/xpd_usart.c ****     pxUSART->TxStream.length = usLength;
 1451              		.loc 1 611 30 view .LVU396
 1452 000e 0163     		str	r1, [r0, #48]
 612:STM32_XPD/STM32H7_XPD/src/xpd_usart.c ****     pxUSART->TxStream.length = usLength;
 1453              		.loc 1 612 5 is_stmt 1 view .LVU397
 613:STM32_XPD/STM32H7_XPD/src/xpd_usart.c ****     pxUSART->RxStream.length = usLength;
 1454              		.loc 1 613 5 view .LVU398
 613:STM32_XPD/STM32H7_XPD/src/xpd_usart.c ****     pxUSART->RxStream.length = usLength;
 1455              		.loc 1 613 30 is_stmt 0 view .LVU399
 1456 0010 8262     		str	r2, [r0, #40]
 614:STM32_XPD/STM32H7_XPD/src/xpd_usart.c ****     USART_RESET_ERRORS(pxUSART);
 1457              		.loc 1 614 5 is_stmt 1 view .LVU400
 615:STM32_XPD/STM32H7_XPD/src/xpd_usart.c **** 
 1458              		.loc 1 615 5 view .LVU401
 1459              		.loc 1 621 5 view .LVU402
ARM GAS  /tmp/ccgNvlLN.s 			page 47


 1460              		.loc 1 621 24 is_stmt 0 view .LVU403
 1461 0012 2C60     		str	r4, [r5]
 622:STM32_XPD/STM32H7_XPD/src/xpd_usart.c **** 
 623:STM32_XPD/STM32H7_XPD/src/xpd_usart.c **** }
 1462              		.loc 1 623 1 view .LVU404
 1463 0014 30BC     		pop	{r4, r5}
 1464              	.LCFI43:
 1465              		.cfi_restore 5
 1466              		.cfi_restore 4
 1467              		.cfi_def_cfa_offset 0
 1468 0016 7047     		bx	lr
 1469              		.cfi_endproc
 1470              	.LFE187:
 1472              		.section	.text.USART_vSendReceive_IT,"ax",%progbits
 1473              		.align	1
 1474              		.p2align 2,,3
 1475              		.global	USART_vSendReceive_IT
 1476              		.syntax unified
 1477              		.thumb
 1478              		.thumb_func
 1479              		.fpu fpv4-sp-d16
 1481              	USART_vSendReceive_IT:
 1482              	.LVL102:
 1483              	.LFB188:
 624:STM32_XPD/STM32H7_XPD/src/xpd_usart.c **** 
 625:STM32_XPD/STM32H7_XPD/src/xpd_usart.c **** /**
 626:STM32_XPD/STM32H7_XPD/src/xpd_usart.c ****  * @brief Starts interrupt-driven full-duplex data transfer over USART.
 627:STM32_XPD/STM32H7_XPD/src/xpd_usart.c ****  * @param pxUSART: pointer to the USART handle structure
 628:STM32_XPD/STM32H7_XPD/src/xpd_usart.c ****  * @param pvTxData: pointer to the transmitted data buffer
 629:STM32_XPD/STM32H7_XPD/src/xpd_usart.c ****  * @param pvRxData: pointer to the received data buffer
 630:STM32_XPD/STM32H7_XPD/src/xpd_usart.c ****  * @param usLength: amount of data transfers
 631:STM32_XPD/STM32H7_XPD/src/xpd_usart.c ****  */
 632:STM32_XPD/STM32H7_XPD/src/xpd_usart.c **** void USART_vSendReceive_IT(
 633:STM32_XPD/STM32H7_XPD/src/xpd_usart.c ****         USART_HandleType *  pxUSART,
 634:STM32_XPD/STM32H7_XPD/src/xpd_usart.c ****         void *              pvTxData,
 635:STM32_XPD/STM32H7_XPD/src/xpd_usart.c ****         void *              pvRxData,
 636:STM32_XPD/STM32H7_XPD/src/xpd_usart.c ****         uint16_t            usLength)
 637:STM32_XPD/STM32H7_XPD/src/xpd_usart.c **** {
 1484              		.loc 1 637 1 is_stmt 1 view -0
 1485              		.cfi_startproc
 1486              		@ args = 0, pretend = 0, frame = 0
 1487              		@ frame_needed = 0, uses_anonymous_args = 0
 1488              		@ link register save eliminated.
 638:STM32_XPD/STM32H7_XPD/src/xpd_usart.c ****     /* save stream info */
 639:STM32_XPD/STM32H7_XPD/src/xpd_usart.c ****     pxUSART->TxStream.buffer = pvTxData;
 1489              		.loc 1 639 5 view .LVU406
 637:STM32_XPD/STM32H7_XPD/src/xpd_usart.c ****     /* save stream info */
 1490              		.loc 1 637 1 is_stmt 0 view .LVU407
 1491 0000 30B4     		push	{r4, r5}
 1492              	.LCFI44:
 1493              		.cfi_def_cfa_offset 8
 1494              		.cfi_offset 4, -8
 1495              		.cfi_offset 5, -4
 640:STM32_XPD/STM32H7_XPD/src/xpd_usart.c ****     pxUSART->TxStream.length = usLength;
 641:STM32_XPD/STM32H7_XPD/src/xpd_usart.c ****     pxUSART->RxStream.buffer = pvRxData;
 642:STM32_XPD/STM32H7_XPD/src/xpd_usart.c ****     pxUSART->RxStream.length = usLength;
 643:STM32_XPD/STM32H7_XPD/src/xpd_usart.c ****     USART_RESET_ERRORS(pxUSART);
ARM GAS  /tmp/ccgNvlLN.s 			page 48


 644:STM32_XPD/STM32H7_XPD/src/xpd_usart.c **** 
 645:STM32_XPD/STM32H7_XPD/src/xpd_usart.c **** #ifdef __XPD_USART_ERROR_DETECT
 646:STM32_XPD/STM32H7_XPD/src/xpd_usart.c ****     pxUSART->Inst->CR1 |= USART_CR1_PEIE;
 647:STM32_XPD/STM32H7_XPD/src/xpd_usart.c **** #endif
 648:STM32_XPD/STM32H7_XPD/src/xpd_usart.c ****     /* Enable TXE, TC, RXNE interrupt */
 649:STM32_XPD/STM32H7_XPD/src/xpd_usart.c ****     pxUSART->Inst->CR1 |= USART_CR1_RXNEIE_RXFNEIE | USART_CR1_TXEIE_TXFNFIE | USART_CR1_TCIE;
 1496              		.loc 1 649 12 view .LVU408
 1497 0002 0568     		ldr	r5, [r0]
 640:STM32_XPD/STM32H7_XPD/src/xpd_usart.c ****     pxUSART->TxStream.length = usLength;
 1498              		.loc 1 640 30 view .LVU409
 1499 0004 8386     		strh	r3, [r0, #52]	@ movhi
 1500              		.loc 1 649 24 view .LVU410
 1501 0006 2C68     		ldr	r4, [r5]
 642:STM32_XPD/STM32H7_XPD/src/xpd_usart.c ****     USART_RESET_ERRORS(pxUSART);
 1502              		.loc 1 642 30 view .LVU411
 1503 0008 8385     		strh	r3, [r0, #44]	@ movhi
 1504              		.loc 1 649 24 view .LVU412
 1505 000a 44F0E004 		orr	r4, r4, #224
 639:STM32_XPD/STM32H7_XPD/src/xpd_usart.c ****     pxUSART->TxStream.length = usLength;
 1506              		.loc 1 639 30 view .LVU413
 1507 000e 0163     		str	r1, [r0, #48]
 640:STM32_XPD/STM32H7_XPD/src/xpd_usart.c ****     pxUSART->TxStream.length = usLength;
 1508              		.loc 1 640 5 is_stmt 1 view .LVU414
 641:STM32_XPD/STM32H7_XPD/src/xpd_usart.c ****     pxUSART->RxStream.length = usLength;
 1509              		.loc 1 641 5 view .LVU415
 641:STM32_XPD/STM32H7_XPD/src/xpd_usart.c ****     pxUSART->RxStream.length = usLength;
 1510              		.loc 1 641 30 is_stmt 0 view .LVU416
 1511 0010 8262     		str	r2, [r0, #40]
 642:STM32_XPD/STM32H7_XPD/src/xpd_usart.c ****     USART_RESET_ERRORS(pxUSART);
 1512              		.loc 1 642 5 is_stmt 1 view .LVU417
 643:STM32_XPD/STM32H7_XPD/src/xpd_usart.c **** 
 1513              		.loc 1 643 5 view .LVU418
 1514              		.loc 1 649 5 view .LVU419
 1515              		.loc 1 649 24 is_stmt 0 view .LVU420
 1516 0012 2C60     		str	r4, [r5]
 650:STM32_XPD/STM32H7_XPD/src/xpd_usart.c **** }
 1517              		.loc 1 650 1 view .LVU421
 1518 0014 30BC     		pop	{r4, r5}
 1519              	.LCFI45:
 1520              		.cfi_restore 5
 1521              		.cfi_restore 4
 1522              		.cfi_def_cfa_offset 0
 1523 0016 7047     		bx	lr
 1524              		.cfi_endproc
 1525              	.LFE188:
 1527              		.section	.text.USART_vIRQHandler,"ax",%progbits
 1528              		.align	1
 1529              		.p2align 2,,3
 1530              		.global	USART_vIRQHandler
 1531              		.syntax unified
 1532              		.thumb
 1533              		.thumb_func
 1534              		.fpu fpv4-sp-d16
 1536              	USART_vIRQHandler:
 1537              	.LVL103:
 1538              	.LFB189:
 651:STM32_XPD/STM32H7_XPD/src/xpd_usart.c **** 
ARM GAS  /tmp/ccgNvlLN.s 			page 49


 652:STM32_XPD/STM32H7_XPD/src/xpd_usart.c **** /**
 653:STM32_XPD/STM32H7_XPD/src/xpd_usart.c ****  * @brief USART transfer interrupt handler that provides handle callbacks.
 654:STM32_XPD/STM32H7_XPD/src/xpd_usart.c ****  * @param pxUSART: pointer to the USART handle structure
 655:STM32_XPD/STM32H7_XPD/src/xpd_usart.c ****  */
 656:STM32_XPD/STM32H7_XPD/src/xpd_usart.c **** void USART_vIRQHandler(USART_HandleType * pxUSART)
 657:STM32_XPD/STM32H7_XPD/src/xpd_usart.c **** {
 1539              		.loc 1 657 1 is_stmt 1 view -0
 1540              		.cfi_startproc
 1541              		@ args = 0, pretend = 0, frame = 0
 1542              		@ frame_needed = 0, uses_anonymous_args = 0
 658:STM32_XPD/STM32H7_XPD/src/xpd_usart.c ****     uint32_t ulSR  = pxUSART->Inst->ISR;
 1543              		.loc 1 658 5 view .LVU423
 657:STM32_XPD/STM32H7_XPD/src/xpd_usart.c ****     uint32_t ulSR  = pxUSART->Inst->ISR;
 1544              		.loc 1 657 1 is_stmt 0 view .LVU424
 1545 0000 2DE9F041 		push	{r4, r5, r6, r7, r8, lr}
 1546              	.LCFI46:
 1547              		.cfi_def_cfa_offset 24
 1548              		.cfi_offset 4, -24
 1549              		.cfi_offset 5, -20
 1550              		.cfi_offset 6, -16
 1551              		.cfi_offset 7, -12
 1552              		.cfi_offset 8, -8
 1553              		.cfi_offset 14, -4
 657:STM32_XPD/STM32H7_XPD/src/xpd_usart.c ****     uint32_t ulSR  = pxUSART->Inst->ISR;
 1554              		.loc 1 657 1 view .LVU425
 1555 0004 0446     		mov	r4, r0
 1556              		.loc 1 658 29 view .LVU426
 1557 0006 0068     		ldr	r0, [r0]
 1558              	.LVL104:
 1559              		.loc 1 658 14 view .LVU427
 1560 0008 C669     		ldr	r6, [r0, #28]
 1561              	.LVL105:
 659:STM32_XPD/STM32H7_XPD/src/xpd_usart.c ****     uint32_t ulCR1 = pxUSART->Inst->CR1;
 1562              		.loc 1 659 5 is_stmt 1 view .LVU428
 1563              		.loc 1 659 14 is_stmt 0 view .LVU429
 1564 000a 0568     		ldr	r5, [r0]
 1565              	.LVL106:
 660:STM32_XPD/STM32H7_XPD/src/xpd_usart.c ****     uint32_t ulCR2 = pxUSART->Inst->CR2;
 1566              		.loc 1 660 5 is_stmt 1 view .LVU430
 661:STM32_XPD/STM32H7_XPD/src/xpd_usart.c ****     uint32_t ulCR3 = pxUSART->Inst->CR3;
 662:STM32_XPD/STM32H7_XPD/src/xpd_usart.c **** 
 663:STM32_XPD/STM32H7_XPD/src/xpd_usart.c **** #ifdef __XPD_USART_ERROR_DETECT
 664:STM32_XPD/STM32H7_XPD/src/xpd_usart.c ****     /* parity error */
 665:STM32_XPD/STM32H7_XPD/src/xpd_usart.c ****     if (((ulSR & USART_ISR_PE)) != 0) && ((ulCR1 & USART_CR1_PEIE) != 0))
 666:STM32_XPD/STM32H7_XPD/src/xpd_usart.c ****     {
 667:STM32_XPD/STM32H7_XPD/src/xpd_usart.c ****         pxUSART->Errors |= USART_ERROR_PARITY;
 668:STM32_XPD/STM32H7_XPD/src/xpd_usart.c ****         pxUSART->Inst->ISR &= ~USART_ISR_PE;
 669:STM32_XPD/STM32H7_XPD/src/xpd_usart.c ****     }
 670:STM32_XPD/STM32H7_XPD/src/xpd_usart.c ****     /* channel errors */
 671:STM32_XPD/STM32H7_XPD/src/xpd_usart.c ****     if ((ulCR3 & USART_CR3_EIE) != 0)
 672:STM32_XPD/STM32H7_XPD/src/xpd_usart.c ****     {
 673:STM32_XPD/STM32H7_XPD/src/xpd_usart.c ****         if ((ulSR & USART_ISR_NE) != 0)
 674:STM32_XPD/STM32H7_XPD/src/xpd_usart.c ****         {
 675:STM32_XPD/STM32H7_XPD/src/xpd_usart.c ****             pxUSART->Errors |= USART_ERROR_NOISE;
 676:STM32_XPD/STM32H7_XPD/src/xpd_usart.c ****             pxUSART->Inst->ISR &= ~USART_ISR_NE;
 677:STM32_XPD/STM32H7_XPD/src/xpd_usart.c ****         }
 678:STM32_XPD/STM32H7_XPD/src/xpd_usart.c ****         if ((ulSR & USART_ISR_FE != 0)
ARM GAS  /tmp/ccgNvlLN.s 			page 50


 679:STM32_XPD/STM32H7_XPD/src/xpd_usart.c ****         {
 680:STM32_XPD/STM32H7_XPD/src/xpd_usart.c ****             pxUSART->Errors |= USART_ERROR_FRAME;
 681:STM32_XPD/STM32H7_XPD/src/xpd_usart.c ****             pxUSART->Inst->ISR &= ~USART_ISR_FE;
 682:STM32_XPD/STM32H7_XPD/src/xpd_usart.c ****         }
 683:STM32_XPD/STM32H7_XPD/src/xpd_usart.c ****         if ((ulSR & USART_STATF(ORE)) != 0)
 684:STM32_XPD/STM32H7_XPD/src/xpd_usart.c ****         {
 685:STM32_XPD/STM32H7_XPD/src/xpd_usart.c ****             pxUSART->Errors |= USART_ERROR_OVERRUN;
 686:STM32_XPD/STM32H7_XPD/src/xpd_usart.c ****             pxUSART->Inst->ISR &= ~USART_ISR_ORE;
 687:STM32_XPD/STM32H7_XPD/src/xpd_usart.c ****         }
 688:STM32_XPD/STM32H7_XPD/src/xpd_usart.c ****     }
 689:STM32_XPD/STM32H7_XPD/src/xpd_usart.c ****     if (pxUSART->Errors != USART_ERROR_NONE)
 690:STM32_XPD/STM32H7_XPD/src/xpd_usart.c ****     {
 691:STM32_XPD/STM32H7_XPD/src/xpd_usart.c ****         XPD_SAFE_CALLBACK(pxUSART->Callbacks.Error, pxUSART);
 692:STM32_XPD/STM32H7_XPD/src/xpd_usart.c ****     }
 693:STM32_XPD/STM32H7_XPD/src/xpd_usart.c **** #endif
 694:STM32_XPD/STM32H7_XPD/src/xpd_usart.c **** 
 695:STM32_XPD/STM32H7_XPD/src/xpd_usart.c ****     /* successful reception */
 696:STM32_XPD/STM32H7_XPD/src/xpd_usart.c ****     if (((ulSR & USART_ISR_RXNE_RXFNE) != 0) && ((ulCR1 & USART_CR1_RXNEIE) != 0))
 1567              		.loc 1 696 8 is_stmt 0 view .LVU431
 1568 000c B206     		lsls	r2, r6, #26
 660:STM32_XPD/STM32H7_XPD/src/xpd_usart.c ****     uint32_t ulCR2 = pxUSART->Inst->CR2;
 1569              		.loc 1 660 14 view .LVU432
 1570 000e D0F80480 		ldr	r8, [r0, #4]
 1571              	.LVL107:
 661:STM32_XPD/STM32H7_XPD/src/xpd_usart.c ****     uint32_t ulCR3 = pxUSART->Inst->CR3;
 1572              		.loc 1 661 5 is_stmt 1 view .LVU433
 661:STM32_XPD/STM32H7_XPD/src/xpd_usart.c ****     uint32_t ulCR3 = pxUSART->Inst->CR3;
 1573              		.loc 1 661 14 is_stmt 0 view .LVU434
 1574 0012 8768     		ldr	r7, [r0, #8]
 1575              	.LVL108:
 1576              		.loc 1 696 5 is_stmt 1 view .LVU435
 1577              		.loc 1 696 8 is_stmt 0 view .LVU436
 1578 0014 01D5     		bpl	.L126
 1579              		.loc 1 696 46 discriminator 1 view .LVU437
 1580 0016 AB06     		lsls	r3, r5, #26
 1581 0018 4FD4     		bmi	.L194
 1582              	.L126:
 697:STM32_XPD/STM32H7_XPD/src/xpd_usart.c ****     {
 698:STM32_XPD/STM32H7_XPD/src/xpd_usart.c ****         XPD_vReadToStream((const uint32_t*)&USART_RXDR(pxUSART), &pxUSART->RxStream);
 699:STM32_XPD/STM32H7_XPD/src/xpd_usart.c **** 
 700:STM32_XPD/STM32H7_XPD/src/xpd_usart.c ****         /* End of reception */
 701:STM32_XPD/STM32H7_XPD/src/xpd_usart.c ****         if (pxUSART->RxStream.length == 0)
 702:STM32_XPD/STM32H7_XPD/src/xpd_usart.c ****         {
 703:STM32_XPD/STM32H7_XPD/src/xpd_usart.c ****             pxUSART->Inst->CR1 &= ~USART_CR1_RXNEIE_RXFNEIE;
 704:STM32_XPD/STM32H7_XPD/src/xpd_usart.c **** #ifdef __XPD_USART_ERROR_DETECT
 705:STM32_XPD/STM32H7_XPD/src/xpd_usart.c ****             pxUSART->Inst->CR1 &= ~USART_CR1_PEIE;
 706:STM32_XPD/STM32H7_XPD/src/xpd_usart.c **** #endif
 707:STM32_XPD/STM32H7_XPD/src/xpd_usart.c **** 
 708:STM32_XPD/STM32H7_XPD/src/xpd_usart.c ****             /* reception finished callback */
 709:STM32_XPD/STM32H7_XPD/src/xpd_usart.c ****             XPD_SAFE_CALLBACK(pxUSART->Callbacks.Receive, pxUSART);
 1583              		.loc 1 709 13 is_stmt 1 discriminator 3 view .LVU438
 710:STM32_XPD/STM32H7_XPD/src/xpd_usart.c ****         }
 711:STM32_XPD/STM32H7_XPD/src/xpd_usart.c ****     }
 712:STM32_XPD/STM32H7_XPD/src/xpd_usart.c **** 
 713:STM32_XPD/STM32H7_XPD/src/xpd_usart.c ****     /* successful transmission */
 714:STM32_XPD/STM32H7_XPD/src/xpd_usart.c ****     if (((ulSR & USART_ISR_TXE_TXFNF) != 0) && ((ulCR1 & USART_CR1_TXEIE) != 0))
 1584              		.loc 1 714 5 discriminator 3 view .LVU439
ARM GAS  /tmp/ccgNvlLN.s 			page 51


 1585              		.loc 1 714 8 is_stmt 0 discriminator 3 view .LVU440
 1586 001a 3106     		lsls	r1, r6, #24
 1587 001c 01D5     		bpl	.L128
 1588              		.loc 1 714 45 discriminator 1 view .LVU441
 1589 001e 2A06     		lsls	r2, r5, #24
 1590 0020 5ED4     		bmi	.L195
 1591              	.L128:
 715:STM32_XPD/STM32H7_XPD/src/xpd_usart.c ****     {
 716:STM32_XPD/STM32H7_XPD/src/xpd_usart.c ****         XPD_vWriteFromStream((uint32_t*)&USART_TXDR(pxUSART), &pxUSART->TxStream);
 717:STM32_XPD/STM32H7_XPD/src/xpd_usart.c **** 
 718:STM32_XPD/STM32H7_XPD/src/xpd_usart.c ****         /* last transmission, disable TXE */
 719:STM32_XPD/STM32H7_XPD/src/xpd_usart.c ****         if (pxUSART->TxStream.length == 0)
 720:STM32_XPD/STM32H7_XPD/src/xpd_usart.c ****         {
 721:STM32_XPD/STM32H7_XPD/src/xpd_usart.c ****             pxUSART->Inst->CR1 &= ~USART_CR1_TXEIE;
 722:STM32_XPD/STM32H7_XPD/src/xpd_usart.c **** 
 723:STM32_XPD/STM32H7_XPD/src/xpd_usart.c ****             /* callback if transmit completion isn't waited for */
 724:STM32_XPD/STM32H7_XPD/src/xpd_usart.c ****             if ((ulCR1 & USART_CR1_TCIE) != 0)
 725:STM32_XPD/STM32H7_XPD/src/xpd_usart.c ****             {
 726:STM32_XPD/STM32H7_XPD/src/xpd_usart.c ****                 XPD_SAFE_CALLBACK(pxUSART->Callbacks.Transmit, pxUSART);
 727:STM32_XPD/STM32H7_XPD/src/xpd_usart.c ****             }
 728:STM32_XPD/STM32H7_XPD/src/xpd_usart.c ****         }
 729:STM32_XPD/STM32H7_XPD/src/xpd_usart.c ****     }
 730:STM32_XPD/STM32H7_XPD/src/xpd_usart.c **** 
 731:STM32_XPD/STM32H7_XPD/src/xpd_usart.c ****     /* last element in data stream is sent successfully */
 732:STM32_XPD/STM32H7_XPD/src/xpd_usart.c ****     else if (((ulSR & USART_ISR_TC) != 0) && ((ulCR1 & USART_CR1_TCIE) != 0))
 1592              		.loc 1 732 10 is_stmt 1 view .LVU442
 1593              		.loc 1 732 13 is_stmt 0 view .LVU443
 1594 0022 7006     		lsls	r0, r6, #25
 1595 0024 10D5     		bpl	.L130
 1596              		.loc 1 732 43 discriminator 1 view .LVU444
 1597 0026 6906     		lsls	r1, r5, #25
 1598 0028 0ED5     		bpl	.L130
 733:STM32_XPD/STM32H7_XPD/src/xpd_usart.c ****     {
 734:STM32_XPD/STM32H7_XPD/src/xpd_usart.c ****         pxUSART->Inst->ISR &= ~USART_ISR_TC;
 1599              		.loc 1 734 9 is_stmt 1 view .LVU445
 1600              		.loc 1 734 16 is_stmt 0 view .LVU446
 1601 002a 2368     		ldr	r3, [r4]
 735:STM32_XPD/STM32H7_XPD/src/xpd_usart.c **** 
 736:STM32_XPD/STM32H7_XPD/src/xpd_usart.c ****         /* data is successfully sent */
 737:STM32_XPD/STM32H7_XPD/src/xpd_usart.c ****         if (pxUSART->TxStream.length == 0)
 1602              		.loc 1 737 12 view .LVU447
 1603 002c A18E     		ldrh	r1, [r4, #52]
 734:STM32_XPD/STM32H7_XPD/src/xpd_usart.c **** 
 1604              		.loc 1 734 28 view .LVU448
 1605 002e DA69     		ldr	r2, [r3, #28]
 1606 0030 22F04002 		bic	r2, r2, #64
 1607 0034 DA61     		str	r2, [r3, #28]
 1608              		.loc 1 737 9 is_stmt 1 view .LVU449
 1609              		.loc 1 737 12 is_stmt 0 view .LVU450
 1610 0036 39B9     		cbnz	r1, .L130
 738:STM32_XPD/STM32H7_XPD/src/xpd_usart.c ****         {
 739:STM32_XPD/STM32H7_XPD/src/xpd_usart.c ****             pxUSART->Inst->CR1 &= ~USART_CR1_TCIE;
 1611              		.loc 1 739 13 is_stmt 1 view .LVU451
 1612              		.loc 1 739 32 is_stmt 0 view .LVU452
 1613 0038 1A68     		ldr	r2, [r3]
 740:STM32_XPD/STM32H7_XPD/src/xpd_usart.c **** 
 741:STM32_XPD/STM32H7_XPD/src/xpd_usart.c ****             /* transmission finished callback */
ARM GAS  /tmp/ccgNvlLN.s 			page 52


 742:STM32_XPD/STM32H7_XPD/src/xpd_usart.c ****             XPD_SAFE_CALLBACK(pxUSART->Callbacks.Transmit, pxUSART);
 1614              		.loc 1 742 13 view .LVU453
 1615 003a E168     		ldr	r1, [r4, #12]
 739:STM32_XPD/STM32H7_XPD/src/xpd_usart.c **** 
 1616              		.loc 1 739 32 view .LVU454
 1617 003c 22F04002 		bic	r2, r2, #64
 1618 0040 1A60     		str	r2, [r3]
 1619              		.loc 1 742 13 is_stmt 1 view .LVU455
 1620              		.loc 1 742 13 view .LVU456
 1621 0042 09B1     		cbz	r1, .L130
 1622              		.loc 1 742 13 discriminator 1 view .LVU457
 1623 0044 2046     		mov	r0, r4
 1624 0046 8847     		blx	r1
 1625              	.LVL109:
 1626              	.L130:
 1627              		.loc 1 742 13 discriminator 3 view .LVU458
 743:STM32_XPD/STM32H7_XPD/src/xpd_usart.c ****         }
 744:STM32_XPD/STM32H7_XPD/src/xpd_usart.c ****     }
 745:STM32_XPD/STM32H7_XPD/src/xpd_usart.c **** 
 746:STM32_XPD/STM32H7_XPD/src/xpd_usart.c ****     /* IDLE detected */
 747:STM32_XPD/STM32H7_XPD/src/xpd_usart.c ****     if (((ulSR & USART_ISR_IDLE) != 0) && ((ulCR1 & USART_CR1_IDLEIE) != 0))
 1628              		.loc 1 747 5 discriminator 3 view .LVU459
 1629              		.loc 1 747 8 is_stmt 0 discriminator 3 view .LVU460
 1630 0048 F206     		lsls	r2, r6, #27
 1631 004a 01D5     		bpl	.L133
 1632              		.loc 1 747 40 discriminator 1 view .LVU461
 1633 004c EB06     		lsls	r3, r5, #27
 1634 004e 29D4     		bmi	.L196
 1635              	.L133:
 748:STM32_XPD/STM32H7_XPD/src/xpd_usart.c ****     {
 749:STM32_XPD/STM32H7_XPD/src/xpd_usart.c ****         pxUSART->Inst->ISR &= ~USART_ISR_IDLE;
 750:STM32_XPD/STM32H7_XPD/src/xpd_usart.c **** 
 751:STM32_XPD/STM32H7_XPD/src/xpd_usart.c ****         XPD_SAFE_CALLBACK(pxUSART->Callbacks.Idle, pxUSART);
 1636              		.loc 1 751 9 is_stmt 1 discriminator 3 view .LVU462
 752:STM32_XPD/STM32H7_XPD/src/xpd_usart.c ****     }
 753:STM32_XPD/STM32H7_XPD/src/xpd_usart.c **** 
 754:STM32_XPD/STM32H7_XPD/src/xpd_usart.c ****     /* LIN break detected */
 755:STM32_XPD/STM32H7_XPD/src/xpd_usart.c ****     if (((ulSR & USART_ISR_LBD) != 0) && ((ulCR2 & USART_CR2_LBDIE) != 0))
 1637              		.loc 1 755 5 discriminator 3 view .LVU463
 1638              		.loc 1 755 8 is_stmt 0 discriminator 3 view .LVU464
 1639 0050 F505     		lsls	r5, r6, #23
 1640              	.LVL110:
 1641              		.loc 1 755 8 discriminator 3 view .LVU465
 1642 0052 02D5     		bpl	.L136
 1643              		.loc 1 755 39 discriminator 1 view .LVU466
 1644 0054 18F0400F 		tst	r8, #64
 1645 0058 19D1     		bne	.L197
 1646              	.L136:
 756:STM32_XPD/STM32H7_XPD/src/xpd_usart.c ****     {
 757:STM32_XPD/STM32H7_XPD/src/xpd_usart.c ****         pxUSART->Inst->ISR &= ~USART_ISR_LBDF;
 758:STM32_XPD/STM32H7_XPD/src/xpd_usart.c **** 
 759:STM32_XPD/STM32H7_XPD/src/xpd_usart.c ****         XPD_SAFE_CALLBACK(pxUSART->Callbacks.Break, pxUSART);
 1647              		.loc 1 759 9 is_stmt 1 discriminator 3 view .LVU467
 760:STM32_XPD/STM32H7_XPD/src/xpd_usart.c ****     }
 761:STM32_XPD/STM32H7_XPD/src/xpd_usart.c **** 
 762:STM32_XPD/STM32H7_XPD/src/xpd_usart.c ****     /* CTS detected */
 763:STM32_XPD/STM32H7_XPD/src/xpd_usart.c ****     if (((ulSR & USART_ISR_CTS) != 0) && ((ulCR3 & USART_CR3_CTSIE) != 0))
ARM GAS  /tmp/ccgNvlLN.s 			page 53


 1648              		.loc 1 763 5 discriminator 3 view .LVU468
 1649              		.loc 1 763 8 is_stmt 0 discriminator 3 view .LVU469
 1650 005a 7005     		lsls	r0, r6, #21
 1651 005c 01D5     		bpl	.L139
 1652              		.loc 1 763 39 discriminator 1 view .LVU470
 1653 005e 7905     		lsls	r1, r7, #21
 1654 0060 0AD4     		bmi	.L198
 1655              	.L139:
 764:STM32_XPD/STM32H7_XPD/src/xpd_usart.c ****     {
 765:STM32_XPD/STM32H7_XPD/src/xpd_usart.c ****         pxUSART->Inst->ISR &= ~USART_ISR_CTSIF;
 766:STM32_XPD/STM32H7_XPD/src/xpd_usart.c **** 
 767:STM32_XPD/STM32H7_XPD/src/xpd_usart.c ****         XPD_SAFE_CALLBACK(pxUSART->Callbacks.ClearToSend, pxUSART);
 1656              		.loc 1 767 9 is_stmt 1 discriminator 3 view .LVU471
 768:STM32_XPD/STM32H7_XPD/src/xpd_usart.c ****     }
 769:STM32_XPD/STM32H7_XPD/src/xpd_usart.c **** 
 770:STM32_XPD/STM32H7_XPD/src/xpd_usart.c **** #if (__USART_PERIPHERAL_VERSION > 2)
 771:STM32_XPD/STM32H7_XPD/src/xpd_usart.c ****     /* UART wakeup from Stop mode interrupt occurred */
 772:STM32_XPD/STM32H7_XPD/src/xpd_usart.c ****     if(((ulSR & USART_ISR_WUF) != 0) && ((ulCR3 & USART_CR3_WUFIE) != 0))
 1657              		.loc 1 772 5 discriminator 3 view .LVU472
 1658              		.loc 1 772 7 is_stmt 0 discriminator 3 view .LVU473
 1659 0062 F202     		lsls	r2, r6, #11
 1660 0064 06D5     		bpl	.L124
 1661              		.loc 1 772 38 discriminator 1 view .LVU474
 1662 0066 7B02     		lsls	r3, r7, #9
 1663 0068 04D5     		bpl	.L124
 773:STM32_XPD/STM32H7_XPD/src/xpd_usart.c ****     {
 774:STM32_XPD/STM32H7_XPD/src/xpd_usart.c ****         pxUSART->Inst->ISR &= ~USART_ISR_WUF;
 1664              		.loc 1 774 9 is_stmt 1 view .LVU475
 1665              		.loc 1 774 16 is_stmt 0 view .LVU476
 1666 006a 2268     		ldr	r2, [r4]
 1667              		.loc 1 774 28 view .LVU477
 1668 006c D369     		ldr	r3, [r2, #28]
 1669 006e 23F48013 		bic	r3, r3, #1048576
 1670 0072 D361     		str	r3, [r2, #28]
 1671              	.L124:
 775:STM32_XPD/STM32H7_XPD/src/xpd_usart.c ****     }
 776:STM32_XPD/STM32H7_XPD/src/xpd_usart.c **** #endif
 777:STM32_XPD/STM32H7_XPD/src/xpd_usart.c **** }
 1672              		.loc 1 777 1 view .LVU478
 1673 0074 BDE8F081 		pop	{r4, r5, r6, r7, r8, pc}
 1674              	.LVL111:
 1675              	.L198:
 765:STM32_XPD/STM32H7_XPD/src/xpd_usart.c **** 
 1676              		.loc 1 765 9 is_stmt 1 view .LVU479
 765:STM32_XPD/STM32H7_XPD/src/xpd_usart.c **** 
 1677              		.loc 1 765 16 is_stmt 0 view .LVU480
 1678 0078 2268     		ldr	r2, [r4]
 767:STM32_XPD/STM32H7_XPD/src/xpd_usart.c ****     }
 1679              		.loc 1 767 9 view .LVU481
 1680 007a E169     		ldr	r1, [r4, #28]
 765:STM32_XPD/STM32H7_XPD/src/xpd_usart.c **** 
 1681              		.loc 1 765 28 view .LVU482
 1682 007c D369     		ldr	r3, [r2, #28]
 1683 007e 23F40073 		bic	r3, r3, #512
 1684 0082 D361     		str	r3, [r2, #28]
 767:STM32_XPD/STM32H7_XPD/src/xpd_usart.c ****     }
 1685              		.loc 1 767 9 is_stmt 1 view .LVU483
ARM GAS  /tmp/ccgNvlLN.s 			page 54


 767:STM32_XPD/STM32H7_XPD/src/xpd_usart.c ****     }
 1686              		.loc 1 767 9 view .LVU484
 1687 0084 0029     		cmp	r1, #0
 1688 0086 ECD0     		beq	.L139
 767:STM32_XPD/STM32H7_XPD/src/xpd_usart.c ****     }
 1689              		.loc 1 767 9 discriminator 1 view .LVU485
 1690 0088 2046     		mov	r0, r4
 1691 008a 8847     		blx	r1
 1692              	.LVL112:
 1693 008c E9E7     		b	.L139
 1694              	.L197:
 757:STM32_XPD/STM32H7_XPD/src/xpd_usart.c **** 
 1695              		.loc 1 757 9 view .LVU486
 757:STM32_XPD/STM32H7_XPD/src/xpd_usart.c **** 
 1696              		.loc 1 757 16 is_stmt 0 view .LVU487
 1697 008e 2268     		ldr	r2, [r4]
 759:STM32_XPD/STM32H7_XPD/src/xpd_usart.c ****     }
 1698              		.loc 1 759 9 view .LVU488
 1699 0090 6169     		ldr	r1, [r4, #20]
 757:STM32_XPD/STM32H7_XPD/src/xpd_usart.c **** 
 1700              		.loc 1 757 28 view .LVU489
 1701 0092 D369     		ldr	r3, [r2, #28]
 1702 0094 23F48073 		bic	r3, r3, #256
 1703 0098 D361     		str	r3, [r2, #28]
 759:STM32_XPD/STM32H7_XPD/src/xpd_usart.c ****     }
 1704              		.loc 1 759 9 is_stmt 1 view .LVU490
 759:STM32_XPD/STM32H7_XPD/src/xpd_usart.c ****     }
 1705              		.loc 1 759 9 view .LVU491
 1706 009a 0029     		cmp	r1, #0
 1707 009c DDD0     		beq	.L136
 759:STM32_XPD/STM32H7_XPD/src/xpd_usart.c ****     }
 1708              		.loc 1 759 9 discriminator 1 view .LVU492
 1709 009e 2046     		mov	r0, r4
 1710 00a0 8847     		blx	r1
 1711              	.LVL113:
 1712 00a2 DAE7     		b	.L136
 1713              	.LVL114:
 1714              	.L196:
 749:STM32_XPD/STM32H7_XPD/src/xpd_usart.c **** 
 1715              		.loc 1 749 9 view .LVU493
 749:STM32_XPD/STM32H7_XPD/src/xpd_usart.c **** 
 1716              		.loc 1 749 16 is_stmt 0 view .LVU494
 1717 00a4 2268     		ldr	r2, [r4]
 751:STM32_XPD/STM32H7_XPD/src/xpd_usart.c ****     }
 1718              		.loc 1 751 9 view .LVU495
 1719 00a6 A169     		ldr	r1, [r4, #24]
 749:STM32_XPD/STM32H7_XPD/src/xpd_usart.c **** 
 1720              		.loc 1 749 28 view .LVU496
 1721 00a8 D369     		ldr	r3, [r2, #28]
 1722 00aa 23F01003 		bic	r3, r3, #16
 1723 00ae D361     		str	r3, [r2, #28]
 751:STM32_XPD/STM32H7_XPD/src/xpd_usart.c ****     }
 1724              		.loc 1 751 9 is_stmt 1 view .LVU497
 751:STM32_XPD/STM32H7_XPD/src/xpd_usart.c ****     }
 1725              		.loc 1 751 9 view .LVU498
 1726 00b0 0029     		cmp	r1, #0
 1727 00b2 CDD0     		beq	.L133
ARM GAS  /tmp/ccgNvlLN.s 			page 55


 751:STM32_XPD/STM32H7_XPD/src/xpd_usart.c ****     }
 1728              		.loc 1 751 9 discriminator 1 view .LVU499
 1729 00b4 2046     		mov	r0, r4
 1730 00b6 8847     		blx	r1
 1731              	.LVL115:
 1732 00b8 CAE7     		b	.L133
 1733              	.L194:
 698:STM32_XPD/STM32H7_XPD/src/xpd_usart.c **** 
 1734              		.loc 1 698 9 view .LVU500
 1735 00ba 2430     		adds	r0, r0, #36
 1736 00bc 04F12801 		add	r1, r4, #40
 1737 00c0 FFF7FEFF 		bl	XPD_vReadToStream
 1738              	.LVL116:
 701:STM32_XPD/STM32H7_XPD/src/xpd_usart.c ****         {
 1739              		.loc 1 701 9 view .LVU501
 701:STM32_XPD/STM32H7_XPD/src/xpd_usart.c ****         {
 1740              		.loc 1 701 12 is_stmt 0 view .LVU502
 1741 00c4 A38D     		ldrh	r3, [r4, #44]
 1742 00c6 002B     		cmp	r3, #0
 1743 00c8 A7D1     		bne	.L126
 703:STM32_XPD/STM32H7_XPD/src/xpd_usart.c **** #ifdef __XPD_USART_ERROR_DETECT
 1744              		.loc 1 703 13 is_stmt 1 view .LVU503
 703:STM32_XPD/STM32H7_XPD/src/xpd_usart.c **** #ifdef __XPD_USART_ERROR_DETECT
 1745              		.loc 1 703 20 is_stmt 0 view .LVU504
 1746 00ca 2268     		ldr	r2, [r4]
 709:STM32_XPD/STM32H7_XPD/src/xpd_usart.c ****         }
 1747              		.loc 1 709 13 view .LVU505
 1748 00cc 2169     		ldr	r1, [r4, #16]
 703:STM32_XPD/STM32H7_XPD/src/xpd_usart.c **** #ifdef __XPD_USART_ERROR_DETECT
 1749              		.loc 1 703 32 view .LVU506
 1750 00ce 1368     		ldr	r3, [r2]
 1751 00d0 23F02003 		bic	r3, r3, #32
 1752 00d4 1360     		str	r3, [r2]
 709:STM32_XPD/STM32H7_XPD/src/xpd_usart.c ****         }
 1753              		.loc 1 709 13 is_stmt 1 view .LVU507
 709:STM32_XPD/STM32H7_XPD/src/xpd_usart.c ****         }
 1754              		.loc 1 709 13 view .LVU508
 1755 00d6 0029     		cmp	r1, #0
 1756 00d8 9FD0     		beq	.L126
 709:STM32_XPD/STM32H7_XPD/src/xpd_usart.c ****         }
 1757              		.loc 1 709 13 discriminator 1 view .LVU509
 1758 00da 2046     		mov	r0, r4
 1759 00dc 8847     		blx	r1
 1760              	.LVL117:
 1761 00de 9CE7     		b	.L126
 1762              	.L195:
 716:STM32_XPD/STM32H7_XPD/src/xpd_usart.c **** 
 1763              		.loc 1 716 9 view .LVU510
 1764 00e0 2146     		mov	r1, r4
 716:STM32_XPD/STM32H7_XPD/src/xpd_usart.c **** 
 1765              		.loc 1 716 41 is_stmt 0 view .LVU511
 1766 00e2 51F8300B 		ldr	r0, [r1], #48
 716:STM32_XPD/STM32H7_XPD/src/xpd_usart.c **** 
 1767              		.loc 1 716 9 view .LVU512
 1768 00e6 2830     		adds	r0, r0, #40
 1769 00e8 FFF7FEFF 		bl	XPD_vWriteFromStream
 1770              	.LVL118:
ARM GAS  /tmp/ccgNvlLN.s 			page 56


 719:STM32_XPD/STM32H7_XPD/src/xpd_usart.c ****         {
 1771              		.loc 1 719 9 is_stmt 1 view .LVU513
 719:STM32_XPD/STM32H7_XPD/src/xpd_usart.c ****         {
 1772              		.loc 1 719 12 is_stmt 0 view .LVU514
 1773 00ec A38E     		ldrh	r3, [r4, #52]
 1774 00ee 002B     		cmp	r3, #0
 1775 00f0 AAD1     		bne	.L130
 721:STM32_XPD/STM32H7_XPD/src/xpd_usart.c **** 
 1776              		.loc 1 721 13 is_stmt 1 view .LVU515
 721:STM32_XPD/STM32H7_XPD/src/xpd_usart.c **** 
 1777              		.loc 1 721 20 is_stmt 0 view .LVU516
 1778 00f2 2268     		ldr	r2, [r4]
 721:STM32_XPD/STM32H7_XPD/src/xpd_usart.c **** 
 1779              		.loc 1 721 32 view .LVU517
 1780 00f4 1368     		ldr	r3, [r2]
 1781 00f6 23F08003 		bic	r3, r3, #128
 1782 00fa 1360     		str	r3, [r2]
 724:STM32_XPD/STM32H7_XPD/src/xpd_usart.c ****             {
 1783              		.loc 1 724 13 is_stmt 1 view .LVU518
 724:STM32_XPD/STM32H7_XPD/src/xpd_usart.c ****             {
 1784              		.loc 1 724 16 is_stmt 0 view .LVU519
 1785 00fc 6B06     		lsls	r3, r5, #25
 1786 00fe A3D5     		bpl	.L130
 726:STM32_XPD/STM32H7_XPD/src/xpd_usart.c ****             }
 1787              		.loc 1 726 17 is_stmt 1 view .LVU520
 726:STM32_XPD/STM32H7_XPD/src/xpd_usart.c ****             }
 1788              		.loc 1 726 17 view .LVU521
 1789 0100 E368     		ldr	r3, [r4, #12]
 1790 0102 002B     		cmp	r3, #0
 1791 0104 A0D0     		beq	.L130
 726:STM32_XPD/STM32H7_XPD/src/xpd_usart.c ****             }
 1792              		.loc 1 726 17 discriminator 1 view .LVU522
 1793 0106 2046     		mov	r0, r4
 1794 0108 9847     		blx	r3
 1795              	.LVL119:
 1796 010a 9DE7     		b	.L130
 1797              		.cfi_endproc
 1798              	.LFE189:
 1800              		.section	.text.USART_eTransmit_DMA,"ax",%progbits
 1801              		.align	1
 1802              		.p2align 2,,3
 1803              		.global	USART_eTransmit_DMA
 1804              		.syntax unified
 1805              		.thumb
 1806              		.thumb_func
 1807              		.fpu fpv4-sp-d16
 1809              	USART_eTransmit_DMA:
 1810              	.LVL120:
 1811              	.LFB190:
 778:STM32_XPD/STM32H7_XPD/src/xpd_usart.c **** 
 779:STM32_XPD/STM32H7_XPD/src/xpd_usart.c **** /**
 780:STM32_XPD/STM32H7_XPD/src/xpd_usart.c ****  * @brief Starts DMA-managed data transmission over USART.
 781:STM32_XPD/STM32H7_XPD/src/xpd_usart.c ****  * @param pxUSART: pointer to the USART handle structure
 782:STM32_XPD/STM32H7_XPD/src/xpd_usart.c ****  * @param pvTxData: pointer to the data buffer
 783:STM32_XPD/STM32H7_XPD/src/xpd_usart.c ****  * @param usLength: amount of data transfers
 784:STM32_XPD/STM32H7_XPD/src/xpd_usart.c ****  * @return BUSY if DMA is in use, OK if transfer is started
 785:STM32_XPD/STM32H7_XPD/src/xpd_usart.c ****  */
ARM GAS  /tmp/ccgNvlLN.s 			page 57


 786:STM32_XPD/STM32H7_XPD/src/xpd_usart.c **** XPD_ReturnType USART_eTransmit_DMA(
 787:STM32_XPD/STM32H7_XPD/src/xpd_usart.c ****         USART_HandleType *  pxUSART,
 788:STM32_XPD/STM32H7_XPD/src/xpd_usart.c ****         void *              pvTxData,
 789:STM32_XPD/STM32H7_XPD/src/xpd_usart.c ****         uint16_t            usLength)
 790:STM32_XPD/STM32H7_XPD/src/xpd_usart.c **** {
 1812              		.loc 1 790 1 view -0
 1813              		.cfi_startproc
 1814              		@ args = 0, pretend = 0, frame = 0
 1815              		@ frame_needed = 0, uses_anonymous_args = 0
 1816              		.loc 1 790 1 is_stmt 0 view .LVU524
 1817 0000 38B5     		push	{r3, r4, r5, lr}
 1818              	.LCFI47:
 1819              		.cfi_def_cfa_offset 16
 1820              		.cfi_offset 3, -16
 1821              		.cfi_offset 4, -12
 1822              		.cfi_offset 5, -8
 1823              		.cfi_offset 14, -4
 1824              		.loc 1 790 1 view .LVU525
 1825 0002 0446     		mov	r4, r0
 791:STM32_XPD/STM32H7_XPD/src/xpd_usart.c ****     XPD_ReturnType eResult;
 1826              		.loc 1 791 5 is_stmt 1 view .LVU526
 792:STM32_XPD/STM32H7_XPD/src/xpd_usart.c **** 
 793:STM32_XPD/STM32H7_XPD/src/xpd_usart.c ****     /* save stream info */
 794:STM32_XPD/STM32H7_XPD/src/xpd_usart.c ****     pxUSART->TxStream.buffer = pvTxData;
 1827              		.loc 1 794 5 view .LVU527
 790:STM32_XPD/STM32H7_XPD/src/xpd_usart.c ****     XPD_ReturnType eResult;
 1828              		.loc 1 790 1 is_stmt 0 view .LVU528
 1829 0004 1346     		mov	r3, r2
 795:STM32_XPD/STM32H7_XPD/src/xpd_usart.c ****     pxUSART->TxStream.length = usLength;
 796:STM32_XPD/STM32H7_XPD/src/xpd_usart.c **** 
 797:STM32_XPD/STM32H7_XPD/src/xpd_usart.c ****     /* Set up DMA for transfer */
 798:STM32_XPD/STM32H7_XPD/src/xpd_usart.c ****     eResult = DMA_eStart_IT(pxUSART->DMA.Transmit,
 799:STM32_XPD/STM32H7_XPD/src/xpd_usart.c ****             (void*)&USART_TXDR(pxUSART), pvTxData, usLength);
 1830              		.loc 1 799 20 view .LVU529
 1831 0006 0068     		ldr	r0, [r0]
 1832              	.LVL121:
 798:STM32_XPD/STM32H7_XPD/src/xpd_usart.c ****             (void*)&USART_TXDR(pxUSART), pvTxData, usLength);
 1833              		.loc 1 798 15 view .LVU530
 1834 0008 0A46     		mov	r2, r1
 1835              	.LVL122:
 794:STM32_XPD/STM32H7_XPD/src/xpd_usart.c ****     pxUSART->TxStream.length = usLength;
 1836              		.loc 1 794 30 view .LVU531
 1837 000a 2163     		str	r1, [r4, #48]
 795:STM32_XPD/STM32H7_XPD/src/xpd_usart.c ****     pxUSART->TxStream.length = usLength;
 1838              		.loc 1 795 5 is_stmt 1 view .LVU532
 795:STM32_XPD/STM32H7_XPD/src/xpd_usart.c ****     pxUSART->TxStream.length = usLength;
 1839              		.loc 1 795 30 is_stmt 0 view .LVU533
 1840 000c A386     		strh	r3, [r4, #52]	@ movhi
 798:STM32_XPD/STM32H7_XPD/src/xpd_usart.c ****             (void*)&USART_TXDR(pxUSART), pvTxData, usLength);
 1841              		.loc 1 798 5 is_stmt 1 view .LVU534
 798:STM32_XPD/STM32H7_XPD/src/xpd_usart.c ****             (void*)&USART_TXDR(pxUSART), pvTxData, usLength);
 1842              		.loc 1 798 15 is_stmt 0 view .LVU535
 1843 000e 00F12801 		add	r1, r0, #40
 1844              	.LVL123:
 798:STM32_XPD/STM32H7_XPD/src/xpd_usart.c ****             (void*)&USART_TXDR(pxUSART), pvTxData, usLength);
 1845              		.loc 1 798 15 view .LVU536
 1846 0012 206A     		ldr	r0, [r4, #32]
ARM GAS  /tmp/ccgNvlLN.s 			page 58


 1847 0014 FFF7FEFF 		bl	DMA_eStart_IT
 1848              	.LVL124:
 800:STM32_XPD/STM32H7_XPD/src/xpd_usart.c **** 
 801:STM32_XPD/STM32H7_XPD/src/xpd_usart.c ****     if (eResult == XPD_OK)
 1849              		.loc 1 801 5 is_stmt 1 view .LVU537
 1850              		.loc 1 801 8 is_stmt 0 view .LVU538
 1851 0018 60B9     		cbnz	r0, .L200
 1852              	.LVL125:
 1853              	.LBB65:
 1854              	.LBI65:
 786:STM32_XPD/STM32H7_XPD/src/xpd_usart.c ****         USART_HandleType *  pxUSART,
 1855              		.loc 1 786 16 is_stmt 1 view .LVU539
 1856              	.LBB66:
 802:STM32_XPD/STM32H7_XPD/src/xpd_usart.c ****     {
 803:STM32_XPD/STM32H7_XPD/src/xpd_usart.c ****         /* Set the callback owner */
 804:STM32_XPD/STM32H7_XPD/src/xpd_usart.c ****         pxUSART->DMA.Transmit->Owner = pxUSART;
 1857              		.loc 1 804 9 view .LVU540
 805:STM32_XPD/STM32H7_XPD/src/xpd_usart.c **** 
 806:STM32_XPD/STM32H7_XPD/src/xpd_usart.c ****         /* Set the DMA transfer callbacks */
 807:STM32_XPD/STM32H7_XPD/src/xpd_usart.c ****         pxUSART->DMA.Transmit->Callbacks.Complete     = USART_prvDmaTransmitRedirect;
 808:STM32_XPD/STM32H7_XPD/src/xpd_usart.c **** #ifdef __XPD_DMA_ERROR_DETECT
 809:STM32_XPD/STM32H7_XPD/src/xpd_usart.c ****         pxUSART->DMA.Transmit->Callbacks.Error        = USART_prvDmaErrorRedirect;
 810:STM32_XPD/STM32H7_XPD/src/xpd_usart.c **** #endif
 811:STM32_XPD/STM32H7_XPD/src/xpd_usart.c ****         USART_RESET_ERRORS(pxUSART);
 812:STM32_XPD/STM32H7_XPD/src/xpd_usart.c **** 
 813:STM32_XPD/STM32H7_XPD/src/xpd_usart.c ****         pxUSART->Inst->ISR &= ~USART_ISR_TC;
 1858              		.loc 1 813 16 is_stmt 0 view .LVU541
 1859 001a 2368     		ldr	r3, [r4]
 804:STM32_XPD/STM32H7_XPD/src/xpd_usart.c **** 
 1860              		.loc 1 804 21 view .LVU542
 1861 001c 216A     		ldr	r1, [r4, #32]
 1862              		.loc 1 813 28 view .LVU543
 1863 001e DA69     		ldr	r2, [r3, #28]
 807:STM32_XPD/STM32H7_XPD/src/xpd_usart.c **** #ifdef __XPD_DMA_ERROR_DETECT
 1864              		.loc 1 807 55 view .LVU544
 1865 0020 054D     		ldr	r5, .L202
 1866              		.loc 1 813 28 view .LVU545
 1867 0022 22F04002 		bic	r2, r2, #64
 804:STM32_XPD/STM32H7_XPD/src/xpd_usart.c **** 
 1868              		.loc 1 804 38 view .LVU546
 1869 0026 4C61     		str	r4, [r1, #20]
 807:STM32_XPD/STM32H7_XPD/src/xpd_usart.c **** #ifdef __XPD_DMA_ERROR_DETECT
 1870              		.loc 1 807 9 is_stmt 1 view .LVU547
 807:STM32_XPD/STM32H7_XPD/src/xpd_usart.c **** #ifdef __XPD_DMA_ERROR_DETECT
 1871              		.loc 1 807 55 is_stmt 0 view .LVU548
 1872 0028 CD60     		str	r5, [r1, #12]
 811:STM32_XPD/STM32H7_XPD/src/xpd_usart.c **** 
 1873              		.loc 1 811 9 is_stmt 1 view .LVU549
 1874              		.loc 1 813 9 view .LVU550
 1875              		.loc 1 813 28 is_stmt 0 view .LVU551
 1876 002a DA61     		str	r2, [r3, #28]
 814:STM32_XPD/STM32H7_XPD/src/xpd_usart.c **** 
 815:STM32_XPD/STM32H7_XPD/src/xpd_usart.c ****         pxUSART->Inst->CR3 |= USART_CR3_DMAT;
 1877              		.loc 1 815 9 is_stmt 1 view .LVU552
 1878              		.loc 1 815 28 is_stmt 0 view .LVU553
 1879 002c 9A68     		ldr	r2, [r3, #8]
 1880 002e 42F08002 		orr	r2, r2, #128
ARM GAS  /tmp/ccgNvlLN.s 			page 59


 1881 0032 9A60     		str	r2, [r3, #8]
 1882              	.LVL126:
 1883              	.L200:
 1884              		.loc 1 815 28 view .LVU554
 1885              	.LBE66:
 1886              	.LBE65:
 816:STM32_XPD/STM32H7_XPD/src/xpd_usart.c ****     }
 817:STM32_XPD/STM32H7_XPD/src/xpd_usart.c ****     return eResult;
 1887              		.loc 1 817 5 is_stmt 1 view .LVU555
 818:STM32_XPD/STM32H7_XPD/src/xpd_usart.c **** }
 1888              		.loc 1 818 1 is_stmt 0 view .LVU556
 1889 0034 38BD     		pop	{r3, r4, r5, pc}
 1890              	.LVL127:
 1891              	.L203:
 1892              		.loc 1 818 1 view .LVU557
 1893 0036 00BF     		.align	2
 1894              	.L202:
 1895 0038 00000000 		.word	USART_prvDmaTransmitRedirect
 1896              		.cfi_endproc
 1897              	.LFE190:
 1899              		.section	.text.USART_eSend_DMA,"ax",%progbits
 1900              		.align	1
 1901              		.p2align 2,,3
 1902              		.global	USART_eSend_DMA
 1903              		.syntax unified
 1904              		.thumb
 1905              		.thumb_func
 1906              		.fpu fpv4-sp-d16
 1908              	USART_eSend_DMA:
 1909              	.LVL128:
 1910              	.LFB191:
 819:STM32_XPD/STM32H7_XPD/src/xpd_usart.c **** 
 820:STM32_XPD/STM32H7_XPD/src/xpd_usart.c **** /**
 821:STM32_XPD/STM32H7_XPD/src/xpd_usart.c ****  * @brief Starts DMA-managed data transmission over USART.
 822:STM32_XPD/STM32H7_XPD/src/xpd_usart.c ****  * @param pxUSART: pointer to the USART handle structure
 823:STM32_XPD/STM32H7_XPD/src/xpd_usart.c ****  * @param pvTxData: pointer to the data buffer
 824:STM32_XPD/STM32H7_XPD/src/xpd_usart.c ****  * @param usLength: amount of data transfers
 825:STM32_XPD/STM32H7_XPD/src/xpd_usart.c ****  * @return BUSY if DMA is in use, OK if transfer is started
 826:STM32_XPD/STM32H7_XPD/src/xpd_usart.c ****  */
 827:STM32_XPD/STM32H7_XPD/src/xpd_usart.c **** XPD_ReturnType USART_eSend_DMA(
 828:STM32_XPD/STM32H7_XPD/src/xpd_usart.c ****         USART_HandleType *  pxUSART,
 829:STM32_XPD/STM32H7_XPD/src/xpd_usart.c ****         void *              pvTxData,
 830:STM32_XPD/STM32H7_XPD/src/xpd_usart.c ****         uint16_t            usLength)
 831:STM32_XPD/STM32H7_XPD/src/xpd_usart.c **** {
 1911              		.loc 1 831 1 is_stmt 1 view -0
 1912              		.cfi_startproc
 1913              		@ args = 0, pretend = 0, frame = 0
 1914              		@ frame_needed = 0, uses_anonymous_args = 0
 1915              		.loc 1 831 1 is_stmt 0 view .LVU559
 1916 0000 38B5     		push	{r3, r4, r5, lr}
 1917              	.LCFI48:
 1918              		.cfi_def_cfa_offset 16
 1919              		.cfi_offset 3, -16
 1920              		.cfi_offset 4, -12
 1921              		.cfi_offset 5, -8
 1922              		.cfi_offset 14, -4
 1923              		.loc 1 831 1 view .LVU560
ARM GAS  /tmp/ccgNvlLN.s 			page 60


 1924 0002 0446     		mov	r4, r0
 832:STM32_XPD/STM32H7_XPD/src/xpd_usart.c ****     XPD_ReturnType eResult = USART_eTransmit_DMA(pxUSART, pvTxData, usLength);
 1925              		.loc 1 832 5 is_stmt 1 view .LVU561
 1926              	.LVL129:
 1927              	.LBB71:
 1928              	.LBI71:
 786:STM32_XPD/STM32H7_XPD/src/xpd_usart.c ****         USART_HandleType *  pxUSART,
 1929              		.loc 1 786 16 view .LVU562
 1930              	.LBB72:
 791:STM32_XPD/STM32H7_XPD/src/xpd_usart.c **** 
 1931              		.loc 1 791 5 view .LVU563
 794:STM32_XPD/STM32H7_XPD/src/xpd_usart.c ****     pxUSART->TxStream.length = usLength;
 1932              		.loc 1 794 5 view .LVU564
 1933              	.LBE72:
 1934              	.LBE71:
 831:STM32_XPD/STM32H7_XPD/src/xpd_usart.c ****     XPD_ReturnType eResult = USART_eTransmit_DMA(pxUSART, pvTxData, usLength);
 1935              		.loc 1 831 1 is_stmt 0 view .LVU565
 1936 0004 1346     		mov	r3, r2
 1937              	.LBB76:
 1938              	.LBB75:
 799:STM32_XPD/STM32H7_XPD/src/xpd_usart.c **** 
 1939              		.loc 1 799 20 view .LVU566
 1940 0006 0068     		ldr	r0, [r0]
 1941              	.LVL130:
 798:STM32_XPD/STM32H7_XPD/src/xpd_usart.c ****             (void*)&USART_TXDR(pxUSART), pvTxData, usLength);
 1942              		.loc 1 798 15 view .LVU567
 1943 0008 0A46     		mov	r2, r1
 1944              	.LVL131:
 794:STM32_XPD/STM32H7_XPD/src/xpd_usart.c ****     pxUSART->TxStream.length = usLength;
 1945              		.loc 1 794 30 view .LVU568
 1946 000a 2163     		str	r1, [r4, #48]
 795:STM32_XPD/STM32H7_XPD/src/xpd_usart.c **** 
 1947              		.loc 1 795 5 is_stmt 1 view .LVU569
 795:STM32_XPD/STM32H7_XPD/src/xpd_usart.c **** 
 1948              		.loc 1 795 30 is_stmt 0 view .LVU570
 1949 000c A386     		strh	r3, [r4, #52]	@ movhi
 798:STM32_XPD/STM32H7_XPD/src/xpd_usart.c ****             (void*)&USART_TXDR(pxUSART), pvTxData, usLength);
 1950              		.loc 1 798 5 is_stmt 1 view .LVU571
 798:STM32_XPD/STM32H7_XPD/src/xpd_usart.c ****             (void*)&USART_TXDR(pxUSART), pvTxData, usLength);
 1951              		.loc 1 798 15 is_stmt 0 view .LVU572
 1952 000e 00F12801 		add	r1, r0, #40
 1953              	.LVL132:
 798:STM32_XPD/STM32H7_XPD/src/xpd_usart.c ****             (void*)&USART_TXDR(pxUSART), pvTxData, usLength);
 1954              		.loc 1 798 15 view .LVU573
 1955 0012 206A     		ldr	r0, [r4, #32]
 1956 0014 FFF7FEFF 		bl	DMA_eStart_IT
 1957              	.LVL133:
 801:STM32_XPD/STM32H7_XPD/src/xpd_usart.c ****     {
 1958              		.loc 1 801 5 is_stmt 1 view .LVU574
 801:STM32_XPD/STM32H7_XPD/src/xpd_usart.c ****     {
 1959              		.loc 1 801 8 is_stmt 0 view .LVU575
 1960 0018 80B9     		cbnz	r0, .L205
 1961              	.LVL134:
 1962              	.LBB73:
 1963              	.LBI73:
 786:STM32_XPD/STM32H7_XPD/src/xpd_usart.c ****         USART_HandleType *  pxUSART,
 1964              		.loc 1 786 16 is_stmt 1 view .LVU576
ARM GAS  /tmp/ccgNvlLN.s 			page 61


 1965              	.LBB74:
 804:STM32_XPD/STM32H7_XPD/src/xpd_usart.c **** 
 1966              		.loc 1 804 9 view .LVU577
 813:STM32_XPD/STM32H7_XPD/src/xpd_usart.c **** 
 1967              		.loc 1 813 16 is_stmt 0 view .LVU578
 1968 001a 2368     		ldr	r3, [r4]
 804:STM32_XPD/STM32H7_XPD/src/xpd_usart.c **** 
 1969              		.loc 1 804 21 view .LVU579
 1970 001c 216A     		ldr	r1, [r4, #32]
 813:STM32_XPD/STM32H7_XPD/src/xpd_usart.c **** 
 1971              		.loc 1 813 28 view .LVU580
 1972 001e DA69     		ldr	r2, [r3, #28]
 807:STM32_XPD/STM32H7_XPD/src/xpd_usart.c **** #ifdef __XPD_DMA_ERROR_DETECT
 1973              		.loc 1 807 55 view .LVU581
 1974 0020 074D     		ldr	r5, .L207
 813:STM32_XPD/STM32H7_XPD/src/xpd_usart.c **** 
 1975              		.loc 1 813 28 view .LVU582
 1976 0022 22F04002 		bic	r2, r2, #64
 804:STM32_XPD/STM32H7_XPD/src/xpd_usart.c **** 
 1977              		.loc 1 804 38 view .LVU583
 1978 0026 4C61     		str	r4, [r1, #20]
 807:STM32_XPD/STM32H7_XPD/src/xpd_usart.c **** #ifdef __XPD_DMA_ERROR_DETECT
 1979              		.loc 1 807 9 is_stmt 1 view .LVU584
 807:STM32_XPD/STM32H7_XPD/src/xpd_usart.c **** #ifdef __XPD_DMA_ERROR_DETECT
 1980              		.loc 1 807 55 is_stmt 0 view .LVU585
 1981 0028 CD60     		str	r5, [r1, #12]
 811:STM32_XPD/STM32H7_XPD/src/xpd_usart.c **** 
 1982              		.loc 1 811 9 is_stmt 1 view .LVU586
 813:STM32_XPD/STM32H7_XPD/src/xpd_usart.c **** 
 1983              		.loc 1 813 9 view .LVU587
 813:STM32_XPD/STM32H7_XPD/src/xpd_usart.c **** 
 1984              		.loc 1 813 28 is_stmt 0 view .LVU588
 1985 002a DA61     		str	r2, [r3, #28]
 815:STM32_XPD/STM32H7_XPD/src/xpd_usart.c ****     }
 1986              		.loc 1 815 9 is_stmt 1 view .LVU589
 815:STM32_XPD/STM32H7_XPD/src/xpd_usart.c ****     }
 1987              		.loc 1 815 28 is_stmt 0 view .LVU590
 1988 002c 9A68     		ldr	r2, [r3, #8]
 1989 002e 42F08002 		orr	r2, r2, #128
 1990 0032 9A60     		str	r2, [r3, #8]
 1991              	.LVL135:
 815:STM32_XPD/STM32H7_XPD/src/xpd_usart.c ****     }
 1992              		.loc 1 815 28 view .LVU591
 1993              	.LBE74:
 1994              	.LBE73:
 817:STM32_XPD/STM32H7_XPD/src/xpd_usart.c **** }
 1995              		.loc 1 817 5 is_stmt 1 view .LVU592
 817:STM32_XPD/STM32H7_XPD/src/xpd_usart.c **** }
 1996              		.loc 1 817 5 is_stmt 0 view .LVU593
 1997              	.LBE75:
 1998              	.LBE76:
 833:STM32_XPD/STM32H7_XPD/src/xpd_usart.c **** 
 834:STM32_XPD/STM32H7_XPD/src/xpd_usart.c ****     if (eResult == XPD_OK)
 1999              		.loc 1 834 5 is_stmt 1 view .LVU594
 835:STM32_XPD/STM32H7_XPD/src/xpd_usart.c ****     {
 836:STM32_XPD/STM32H7_XPD/src/xpd_usart.c ****         pxUSART->Inst->ISR |= USART_CR1_TCIE;
 2000              		.loc 1 836 9 view .LVU595
ARM GAS  /tmp/ccgNvlLN.s 			page 62


 2001              		.loc 1 836 28 is_stmt 0 view .LVU596
 2002 0034 DA69     		ldr	r2, [r3, #28]
 2003 0036 42F04002 		orr	r2, r2, #64
 2004 003a DA61     		str	r2, [r3, #28]
 2005              	.LVL136:
 2006              	.L205:
 837:STM32_XPD/STM32H7_XPD/src/xpd_usart.c ****     }
 838:STM32_XPD/STM32H7_XPD/src/xpd_usart.c **** 
 839:STM32_XPD/STM32H7_XPD/src/xpd_usart.c ****     return eResult;
 2007              		.loc 1 839 5 is_stmt 1 view .LVU597
 840:STM32_XPD/STM32H7_XPD/src/xpd_usart.c **** }
 2008              		.loc 1 840 1 is_stmt 0 view .LVU598
 2009 003c 38BD     		pop	{r3, r4, r5, pc}
 2010              	.LVL137:
 2011              	.L208:
 2012              		.loc 1 840 1 view .LVU599
 2013 003e 00BF     		.align	2
 2014              	.L207:
 2015 0040 00000000 		.word	USART_prvDmaTransmitRedirect
 2016              		.cfi_endproc
 2017              	.LFE191:
 2019              		.section	.text.USART_eReceive_DMA,"ax",%progbits
 2020              		.align	1
 2021              		.p2align 2,,3
 2022              		.global	USART_eReceive_DMA
 2023              		.syntax unified
 2024              		.thumb
 2025              		.thumb_func
 2026              		.fpu fpv4-sp-d16
 2028              	USART_eReceive_DMA:
 2029              	.LVL138:
 2030              	.LFB192:
 841:STM32_XPD/STM32H7_XPD/src/xpd_usart.c **** 
 842:STM32_XPD/STM32H7_XPD/src/xpd_usart.c **** /**
 843:STM32_XPD/STM32H7_XPD/src/xpd_usart.c ****  * @brief Starts DMA-managed data reception over USART.
 844:STM32_XPD/STM32H7_XPD/src/xpd_usart.c ****  * @note  In synchronous mode the user has to ensure data transmission in order to generate clock.
 845:STM32_XPD/STM32H7_XPD/src/xpd_usart.c ****  * @param pxUSART: pointer to the USART handle structure
 846:STM32_XPD/STM32H7_XPD/src/xpd_usart.c ****  * @param pvRxData: pointer to the data buffer
 847:STM32_XPD/STM32H7_XPD/src/xpd_usart.c ****  * @param usLength: amount of data transfers
 848:STM32_XPD/STM32H7_XPD/src/xpd_usart.c ****  * @return BUSY if DMA is in use, OK if transfer is started
 849:STM32_XPD/STM32H7_XPD/src/xpd_usart.c ****  */
 850:STM32_XPD/STM32H7_XPD/src/xpd_usart.c **** XPD_ReturnType USART_eReceive_DMA(
 851:STM32_XPD/STM32H7_XPD/src/xpd_usart.c ****         USART_HandleType *  pxUSART,
 852:STM32_XPD/STM32H7_XPD/src/xpd_usart.c ****         void *              pvRxData,
 853:STM32_XPD/STM32H7_XPD/src/xpd_usart.c ****         uint16_t            usLength)
 854:STM32_XPD/STM32H7_XPD/src/xpd_usart.c **** {
 2031              		.loc 1 854 1 is_stmt 1 view -0
 2032              		.cfi_startproc
 2033              		@ args = 0, pretend = 0, frame = 0
 2034              		@ frame_needed = 0, uses_anonymous_args = 0
 855:STM32_XPD/STM32H7_XPD/src/xpd_usart.c ****     XPD_ReturnType eResult;
 2035              		.loc 1 855 5 view .LVU601
 856:STM32_XPD/STM32H7_XPD/src/xpd_usart.c **** 
 857:STM32_XPD/STM32H7_XPD/src/xpd_usart.c ****     /* save stream info */
 858:STM32_XPD/STM32H7_XPD/src/xpd_usart.c ****     pxUSART->RxStream.buffer = pvRxData;
 2036              		.loc 1 858 5 view .LVU602
 854:STM32_XPD/STM32H7_XPD/src/xpd_usart.c ****     XPD_ReturnType eResult;
ARM GAS  /tmp/ccgNvlLN.s 			page 63


 2037              		.loc 1 854 1 is_stmt 0 view .LVU603
 2038 0000 38B5     		push	{r3, r4, r5, lr}
 2039              	.LCFI49:
 2040              		.cfi_def_cfa_offset 16
 2041              		.cfi_offset 3, -16
 2042              		.cfi_offset 4, -12
 2043              		.cfi_offset 5, -8
 2044              		.cfi_offset 14, -4
 854:STM32_XPD/STM32H7_XPD/src/xpd_usart.c ****     XPD_ReturnType eResult;
 2045              		.loc 1 854 1 view .LVU604
 2046 0002 0446     		mov	r4, r0
 2047 0004 1346     		mov	r3, r2
 859:STM32_XPD/STM32H7_XPD/src/xpd_usart.c ****     pxUSART->RxStream.length = usLength;
 860:STM32_XPD/STM32H7_XPD/src/xpd_usart.c **** 
 861:STM32_XPD/STM32H7_XPD/src/xpd_usart.c ****     /* Set up DMA for transfer */
 862:STM32_XPD/STM32H7_XPD/src/xpd_usart.c ****     eResult = DMA_eStart_IT(pxUSART->DMA.Receive,
 863:STM32_XPD/STM32H7_XPD/src/xpd_usart.c ****             (void*)&USART_RXDR(pxUSART), pvRxData, usLength);
 2048              		.loc 1 863 20 view .LVU605
 2049 0006 0068     		ldr	r0, [r0]
 2050              	.LVL139:
 862:STM32_XPD/STM32H7_XPD/src/xpd_usart.c ****             (void*)&USART_RXDR(pxUSART), pvRxData, usLength);
 2051              		.loc 1 862 15 view .LVU606
 2052 0008 0A46     		mov	r2, r1
 2053              	.LVL140:
 858:STM32_XPD/STM32H7_XPD/src/xpd_usart.c ****     pxUSART->RxStream.length = usLength;
 2054              		.loc 1 858 30 view .LVU607
 2055 000a A162     		str	r1, [r4, #40]
 859:STM32_XPD/STM32H7_XPD/src/xpd_usart.c ****     pxUSART->RxStream.length = usLength;
 2056              		.loc 1 859 5 is_stmt 1 view .LVU608
 859:STM32_XPD/STM32H7_XPD/src/xpd_usart.c ****     pxUSART->RxStream.length = usLength;
 2057              		.loc 1 859 30 is_stmt 0 view .LVU609
 2058 000c A385     		strh	r3, [r4, #44]	@ movhi
 862:STM32_XPD/STM32H7_XPD/src/xpd_usart.c ****             (void*)&USART_RXDR(pxUSART), pvRxData, usLength);
 2059              		.loc 1 862 5 is_stmt 1 view .LVU610
 862:STM32_XPD/STM32H7_XPD/src/xpd_usart.c ****             (void*)&USART_RXDR(pxUSART), pvRxData, usLength);
 2060              		.loc 1 862 15 is_stmt 0 view .LVU611
 2061 000e 00F12401 		add	r1, r0, #36
 2062              	.LVL141:
 862:STM32_XPD/STM32H7_XPD/src/xpd_usart.c ****             (void*)&USART_RXDR(pxUSART), pvRxData, usLength);
 2063              		.loc 1 862 15 view .LVU612
 2064 0012 606A     		ldr	r0, [r4, #36]
 2065 0014 FFF7FEFF 		bl	DMA_eStart_IT
 2066              	.LVL142:
 864:STM32_XPD/STM32H7_XPD/src/xpd_usart.c **** 
 865:STM32_XPD/STM32H7_XPD/src/xpd_usart.c ****     if (eResult == XPD_OK)
 2067              		.loc 1 865 5 is_stmt 1 view .LVU613
 2068              		.loc 1 865 8 is_stmt 0 view .LVU614
 2069 0018 60B9     		cbnz	r0, .L210
 866:STM32_XPD/STM32H7_XPD/src/xpd_usart.c ****     {
 867:STM32_XPD/STM32H7_XPD/src/xpd_usart.c ****         /* Set the callback owner */
 868:STM32_XPD/STM32H7_XPD/src/xpd_usart.c ****         pxUSART->DMA.Receive->Owner = pxUSART;
 2070              		.loc 1 868 9 is_stmt 1 view .LVU615
 869:STM32_XPD/STM32H7_XPD/src/xpd_usart.c **** 
 870:STM32_XPD/STM32H7_XPD/src/xpd_usart.c ****         /* Set the DMA transfer callbacks */
 871:STM32_XPD/STM32H7_XPD/src/xpd_usart.c ****         pxUSART->DMA.Receive->Callbacks.Complete     = USART_prvDmaReceiveRedirect;
 872:STM32_XPD/STM32H7_XPD/src/xpd_usart.c **** #ifdef __XPD_DMA_ERROR_DETECT
 873:STM32_XPD/STM32H7_XPD/src/xpd_usart.c ****         pxUSART->DMA.Receive->Callbacks.Error        = USART_prvDmaErrorRedirect;
ARM GAS  /tmp/ccgNvlLN.s 			page 64


 874:STM32_XPD/STM32H7_XPD/src/xpd_usart.c **** #endif
 875:STM32_XPD/STM32H7_XPD/src/xpd_usart.c ****         USART_RESET_ERRORS(pxUSART);
 876:STM32_XPD/STM32H7_XPD/src/xpd_usart.c ****         pxUSART->Inst->ISR &= ~USART_ISR_ORE;
 2071              		.loc 1 876 16 is_stmt 0 view .LVU616
 2072 001a 2368     		ldr	r3, [r4]
 868:STM32_XPD/STM32H7_XPD/src/xpd_usart.c **** 
 2073              		.loc 1 868 21 view .LVU617
 2074 001c 616A     		ldr	r1, [r4, #36]
 2075              		.loc 1 876 28 view .LVU618
 2076 001e DA69     		ldr	r2, [r3, #28]
 871:STM32_XPD/STM32H7_XPD/src/xpd_usart.c **** #ifdef __XPD_DMA_ERROR_DETECT
 2077              		.loc 1 871 54 view .LVU619
 2078 0020 054D     		ldr	r5, .L212
 2079              		.loc 1 876 28 view .LVU620
 2080 0022 22F00802 		bic	r2, r2, #8
 868:STM32_XPD/STM32H7_XPD/src/xpd_usart.c **** 
 2081              		.loc 1 868 37 view .LVU621
 2082 0026 4C61     		str	r4, [r1, #20]
 871:STM32_XPD/STM32H7_XPD/src/xpd_usart.c **** #ifdef __XPD_DMA_ERROR_DETECT
 2083              		.loc 1 871 9 is_stmt 1 view .LVU622
 871:STM32_XPD/STM32H7_XPD/src/xpd_usart.c **** #ifdef __XPD_DMA_ERROR_DETECT
 2084              		.loc 1 871 54 is_stmt 0 view .LVU623
 2085 0028 CD60     		str	r5, [r1, #12]
 875:STM32_XPD/STM32H7_XPD/src/xpd_usart.c ****         pxUSART->Inst->ISR &= ~USART_ISR_ORE;
 2086              		.loc 1 875 9 is_stmt 1 view .LVU624
 2087              		.loc 1 876 9 view .LVU625
 2088              		.loc 1 876 28 is_stmt 0 view .LVU626
 2089 002a DA61     		str	r2, [r3, #28]
 877:STM32_XPD/STM32H7_XPD/src/xpd_usart.c ****         pxUSART->Inst->CR3 |= USART_CR3_DMAR;
 2090              		.loc 1 877 9 is_stmt 1 view .LVU627
 2091              		.loc 1 877 28 is_stmt 0 view .LVU628
 2092 002c 9A68     		ldr	r2, [r3, #8]
 2093 002e 42F04002 		orr	r2, r2, #64
 2094 0032 9A60     		str	r2, [r3, #8]
 2095              	.L210:
 878:STM32_XPD/STM32H7_XPD/src/xpd_usart.c ****     }
 879:STM32_XPD/STM32H7_XPD/src/xpd_usart.c ****     return eResult;
 2096              		.loc 1 879 5 is_stmt 1 view .LVU629
 880:STM32_XPD/STM32H7_XPD/src/xpd_usart.c **** }
 2097              		.loc 1 880 1 is_stmt 0 view .LVU630
 2098 0034 38BD     		pop	{r3, r4, r5, pc}
 2099              	.LVL143:
 2100              	.L213:
 2101              		.loc 1 880 1 view .LVU631
 2102 0036 00BF     		.align	2
 2103              	.L212:
 2104 0038 00000000 		.word	USART_prvDmaReceiveRedirect
 2105              		.cfi_endproc
 2106              	.LFE192:
 2108              		.section	.text.USART_eTransmitReceive_DMA,"ax",%progbits
 2109              		.align	1
 2110              		.p2align 2,,3
 2111              		.global	USART_eTransmitReceive_DMA
 2112              		.syntax unified
 2113              		.thumb
 2114              		.thumb_func
 2115              		.fpu fpv4-sp-d16
ARM GAS  /tmp/ccgNvlLN.s 			page 65


 2117              	USART_eTransmitReceive_DMA:
 2118              	.LVL144:
 2119              	.LFB193:
 881:STM32_XPD/STM32H7_XPD/src/xpd_usart.c **** 
 882:STM32_XPD/STM32H7_XPD/src/xpd_usart.c **** /**
 883:STM32_XPD/STM32H7_XPD/src/xpd_usart.c ****  * @brief Starts DMA-managed full-duplex data transfer over USART.
 884:STM32_XPD/STM32H7_XPD/src/xpd_usart.c ****  * @param pxUSART: pointer to the USART handle structure
 885:STM32_XPD/STM32H7_XPD/src/xpd_usart.c ****  * @param pvTxData: pointer to the transmitted data buffer
 886:STM32_XPD/STM32H7_XPD/src/xpd_usart.c ****  * @param pvRxData: pointer to the received data buffer
 887:STM32_XPD/STM32H7_XPD/src/xpd_usart.c ****  * @param usLength: amount of data transfers
 888:STM32_XPD/STM32H7_XPD/src/xpd_usart.c ****  * @return BUSY if DMA is in use, OK if transfer is started
 889:STM32_XPD/STM32H7_XPD/src/xpd_usart.c ****  */
 890:STM32_XPD/STM32H7_XPD/src/xpd_usart.c **** XPD_ReturnType USART_eTransmitReceive_DMA(
 891:STM32_XPD/STM32H7_XPD/src/xpd_usart.c ****         USART_HandleType *  pxUSART,
 892:STM32_XPD/STM32H7_XPD/src/xpd_usart.c ****         void *              pvTxData,
 893:STM32_XPD/STM32H7_XPD/src/xpd_usart.c ****         void *              pvRxData,
 894:STM32_XPD/STM32H7_XPD/src/xpd_usart.c ****         uint16_t            usLength)
 895:STM32_XPD/STM32H7_XPD/src/xpd_usart.c **** {
 2120              		.loc 1 895 1 is_stmt 1 view -0
 2121              		.cfi_startproc
 2122              		@ args = 0, pretend = 0, frame = 0
 2123              		@ frame_needed = 0, uses_anonymous_args = 0
 2124              		.loc 1 895 1 is_stmt 0 view .LVU633
 2125 0000 F8B5     		push	{r3, r4, r5, r6, r7, lr}
 2126              	.LCFI50:
 2127              		.cfi_def_cfa_offset 24
 2128              		.cfi_offset 3, -24
 2129              		.cfi_offset 4, -20
 2130              		.cfi_offset 5, -16
 2131              		.cfi_offset 6, -12
 2132              		.cfi_offset 7, -8
 2133              		.cfi_offset 14, -4
 2134              		.loc 1 895 1 view .LVU634
 2135 0002 0F46     		mov	r7, r1
 896:STM32_XPD/STM32H7_XPD/src/xpd_usart.c ****     XPD_ReturnType eResult;
 897:STM32_XPD/STM32H7_XPD/src/xpd_usart.c **** 
 898:STM32_XPD/STM32H7_XPD/src/xpd_usart.c ****     /* save stream info */
 899:STM32_XPD/STM32H7_XPD/src/xpd_usart.c ****     pxUSART->TxStream.buffer = pvTxData;
 900:STM32_XPD/STM32H7_XPD/src/xpd_usart.c ****     pxUSART->TxStream.length = usLength;
 901:STM32_XPD/STM32H7_XPD/src/xpd_usart.c ****     pxUSART->RxStream.buffer = pvRxData;
 902:STM32_XPD/STM32H7_XPD/src/xpd_usart.c ****     pxUSART->RxStream.length = usLength;
 903:STM32_XPD/STM32H7_XPD/src/xpd_usart.c **** 
 904:STM32_XPD/STM32H7_XPD/src/xpd_usart.c ****     /* Set up DMAs for transfers */
 905:STM32_XPD/STM32H7_XPD/src/xpd_usart.c ****     eResult = DMA_eStart_IT(pxUSART->DMA.Receive,
 906:STM32_XPD/STM32H7_XPD/src/xpd_usart.c ****             (void*)&USART_RXDR(pxUSART), pvRxData, usLength);
 2136              		.loc 1 906 20 view .LVU635
 2137 0004 0168     		ldr	r1, [r0]
 2138              	.LVL145:
 901:STM32_XPD/STM32H7_XPD/src/xpd_usart.c ****     pxUSART->RxStream.length = usLength;
 2139              		.loc 1 901 30 view .LVU636
 2140 0006 8262     		str	r2, [r0, #40]
 895:STM32_XPD/STM32H7_XPD/src/xpd_usart.c ****     XPD_ReturnType eResult;
 2141              		.loc 1 895 1 view .LVU637
 2142 0008 0446     		mov	r4, r0
 896:STM32_XPD/STM32H7_XPD/src/xpd_usart.c ****     XPD_ReturnType eResult;
 2143              		.loc 1 896 5 is_stmt 1 view .LVU638
 899:STM32_XPD/STM32H7_XPD/src/xpd_usart.c ****     pxUSART->TxStream.length = usLength;
ARM GAS  /tmp/ccgNvlLN.s 			page 66


 2144              		.loc 1 899 5 view .LVU639
 899:STM32_XPD/STM32H7_XPD/src/xpd_usart.c ****     pxUSART->TxStream.length = usLength;
 2145              		.loc 1 899 30 is_stmt 0 view .LVU640
 2146 000a 0763     		str	r7, [r0, #48]
 900:STM32_XPD/STM32H7_XPD/src/xpd_usart.c ****     pxUSART->RxStream.buffer = pvRxData;
 2147              		.loc 1 900 5 is_stmt 1 view .LVU641
 905:STM32_XPD/STM32H7_XPD/src/xpd_usart.c ****             (void*)&USART_RXDR(pxUSART), pvRxData, usLength);
 2148              		.loc 1 905 15 is_stmt 0 view .LVU642
 2149 000c 2431     		adds	r1, r1, #36
 900:STM32_XPD/STM32H7_XPD/src/xpd_usart.c ****     pxUSART->RxStream.buffer = pvRxData;
 2150              		.loc 1 900 30 view .LVU643
 2151 000e 8386     		strh	r3, [r0, #52]	@ movhi
 901:STM32_XPD/STM32H7_XPD/src/xpd_usart.c ****     pxUSART->RxStream.length = usLength;
 2152              		.loc 1 901 5 is_stmt 1 view .LVU644
 902:STM32_XPD/STM32H7_XPD/src/xpd_usart.c **** 
 2153              		.loc 1 902 5 view .LVU645
 895:STM32_XPD/STM32H7_XPD/src/xpd_usart.c ****     XPD_ReturnType eResult;
 2154              		.loc 1 895 1 is_stmt 0 view .LVU646
 2155 0010 1E46     		mov	r6, r3
 902:STM32_XPD/STM32H7_XPD/src/xpd_usart.c **** 
 2156              		.loc 1 902 30 view .LVU647
 2157 0012 8385     		strh	r3, [r0, #44]	@ movhi
 905:STM32_XPD/STM32H7_XPD/src/xpd_usart.c ****             (void*)&USART_RXDR(pxUSART), pvRxData, usLength);
 2158              		.loc 1 905 5 is_stmt 1 view .LVU648
 905:STM32_XPD/STM32H7_XPD/src/xpd_usart.c ****             (void*)&USART_RXDR(pxUSART), pvRxData, usLength);
 2159              		.loc 1 905 15 is_stmt 0 view .LVU649
 2160 0014 406A     		ldr	r0, [r0, #36]
 2161              	.LVL146:
 905:STM32_XPD/STM32H7_XPD/src/xpd_usart.c ****             (void*)&USART_RXDR(pxUSART), pvRxData, usLength);
 2162              		.loc 1 905 15 view .LVU650
 2163 0016 FFF7FEFF 		bl	DMA_eStart_IT
 2164              	.LVL147:
 907:STM32_XPD/STM32H7_XPD/src/xpd_usart.c **** 
 908:STM32_XPD/STM32H7_XPD/src/xpd_usart.c ****     if (eResult == XPD_OK)
 2165              		.loc 1 908 5 is_stmt 1 view .LVU651
 2166              		.loc 1 908 8 is_stmt 0 view .LVU652
 2167 001a 0546     		mov	r5, r0
 2168 001c 08B1     		cbz	r0, .L218
 2169              	.LVL148:
 2170              	.L215:
 909:STM32_XPD/STM32H7_XPD/src/xpd_usart.c ****     {
 910:STM32_XPD/STM32H7_XPD/src/xpd_usart.c ****         eResult = DMA_eStart_IT(pxUSART->DMA.Transmit,
 911:STM32_XPD/STM32H7_XPD/src/xpd_usart.c ****                 (void*)&USART_TXDR(pxUSART), pvTxData, usLength);
 912:STM32_XPD/STM32H7_XPD/src/xpd_usart.c **** 
 913:STM32_XPD/STM32H7_XPD/src/xpd_usart.c ****         /* If one DMA allocation failed, reset the other and exit */
 914:STM32_XPD/STM32H7_XPD/src/xpd_usart.c ****         if (eResult != XPD_OK)
 915:STM32_XPD/STM32H7_XPD/src/xpd_usart.c ****         {
 916:STM32_XPD/STM32H7_XPD/src/xpd_usart.c ****             DMA_vStop_IT(pxUSART->DMA.Receive);
 917:STM32_XPD/STM32H7_XPD/src/xpd_usart.c ****             return eResult;
 918:STM32_XPD/STM32H7_XPD/src/xpd_usart.c ****         }
 919:STM32_XPD/STM32H7_XPD/src/xpd_usart.c **** 
 920:STM32_XPD/STM32H7_XPD/src/xpd_usart.c ****         /* Set the callback owner */
 921:STM32_XPD/STM32H7_XPD/src/xpd_usart.c ****         pxUSART->DMA.Transmit->Owner = pxUSART;
 922:STM32_XPD/STM32H7_XPD/src/xpd_usart.c ****         pxUSART->DMA.Receive->Owner  = pxUSART;
 923:STM32_XPD/STM32H7_XPD/src/xpd_usart.c **** 
 924:STM32_XPD/STM32H7_XPD/src/xpd_usart.c ****         /* Set the DMA transfer callbacks */
 925:STM32_XPD/STM32H7_XPD/src/xpd_usart.c ****         pxUSART->DMA.Transmit->Callbacks.Complete     = USART_prvDmaTransmitRedirect;
ARM GAS  /tmp/ccgNvlLN.s 			page 67


 926:STM32_XPD/STM32H7_XPD/src/xpd_usart.c ****         pxUSART->DMA.Receive->Callbacks.Complete      = USART_prvDmaReceiveRedirect;
 927:STM32_XPD/STM32H7_XPD/src/xpd_usart.c **** #ifdef __XPD_DMA_ERROR_DETECT
 928:STM32_XPD/STM32H7_XPD/src/xpd_usart.c ****         pxUSART->DMA.Transmit->Callbacks.Error        = USART_prvDmaErrorRedirect;
 929:STM32_XPD/STM32H7_XPD/src/xpd_usart.c ****         pxUSART->DMA.Receive->Callbacks.Error         = USART_prvDmaErrorRedirect;
 930:STM32_XPD/STM32H7_XPD/src/xpd_usart.c **** #endif
 931:STM32_XPD/STM32H7_XPD/src/xpd_usart.c ****         USART_RESET_ERRORS(pxUSART);
 932:STM32_XPD/STM32H7_XPD/src/xpd_usart.c **** 
 933:STM32_XPD/STM32H7_XPD/src/xpd_usart.c ****         pxUSART->Inst->ISR &= ~(USART_ISR_ORE | USART_ISR_TC);
 934:STM32_XPD/STM32H7_XPD/src/xpd_usart.c **** 
 935:STM32_XPD/STM32H7_XPD/src/xpd_usart.c ****         pxUSART->Inst->CR3 |= (USART_CR3_DMAR | USART_CR3_DMAT);
 936:STM32_XPD/STM32H7_XPD/src/xpd_usart.c **** 
 937:STM32_XPD/STM32H7_XPD/src/xpd_usart.c ****     }
 938:STM32_XPD/STM32H7_XPD/src/xpd_usart.c ****     return eResult;
 939:STM32_XPD/STM32H7_XPD/src/xpd_usart.c **** }
 2171              		.loc 1 939 1 view .LVU653
 2172 001e 2846     		mov	r0, r5
 2173 0020 F8BD     		pop	{r3, r4, r5, r6, r7, pc}
 2174              	.LVL149:
 2175              	.L218:
 910:STM32_XPD/STM32H7_XPD/src/xpd_usart.c ****                 (void*)&USART_TXDR(pxUSART), pvTxData, usLength);
 2176              		.loc 1 910 9 is_stmt 1 view .LVU654
 911:STM32_XPD/STM32H7_XPD/src/xpd_usart.c **** 
 2177              		.loc 1 911 24 is_stmt 0 view .LVU655
 2178 0022 2168     		ldr	r1, [r4]
 910:STM32_XPD/STM32H7_XPD/src/xpd_usart.c ****                 (void*)&USART_TXDR(pxUSART), pvTxData, usLength);
 2179              		.loc 1 910 19 view .LVU656
 2180 0024 3346     		mov	r3, r6
 2181 0026 3A46     		mov	r2, r7
 2182 0028 206A     		ldr	r0, [r4, #32]
 2183              	.LVL150:
 910:STM32_XPD/STM32H7_XPD/src/xpd_usart.c ****                 (void*)&USART_TXDR(pxUSART), pvTxData, usLength);
 2184              		.loc 1 910 19 view .LVU657
 2185 002a 2831     		adds	r1, r1, #40
 2186 002c FFF7FEFF 		bl	DMA_eStart_IT
 2187              	.LVL151:
 914:STM32_XPD/STM32H7_XPD/src/xpd_usart.c ****         {
 2188              		.loc 1 914 9 is_stmt 1 view .LVU658
 914:STM32_XPD/STM32H7_XPD/src/xpd_usart.c ****         {
 2189              		.loc 1 914 12 is_stmt 0 view .LVU659
 2190 0030 0546     		mov	r5, r0
 2191 0032 90B9     		cbnz	r0, .L219
 2192              	.LVL152:
 2193              	.LBB79:
 2194              	.LBI79:
 890:STM32_XPD/STM32H7_XPD/src/xpd_usart.c ****         USART_HandleType *  pxUSART,
 2195              		.loc 1 890 16 is_stmt 1 view .LVU660
 2196              	.LBB80:
 921:STM32_XPD/STM32H7_XPD/src/xpd_usart.c ****         pxUSART->DMA.Receive->Owner  = pxUSART;
 2197              		.loc 1 921 9 view .LVU661
 933:STM32_XPD/STM32H7_XPD/src/xpd_usart.c **** 
 2198              		.loc 1 933 16 is_stmt 0 view .LVU662
 2199 0034 2368     		ldr	r3, [r4]
 921:STM32_XPD/STM32H7_XPD/src/xpd_usart.c ****         pxUSART->DMA.Receive->Owner  = pxUSART;
 2200              		.loc 1 921 21 view .LVU663
 2201 0036 206A     		ldr	r0, [r4, #32]
 2202              	.LVL153:
 933:STM32_XPD/STM32H7_XPD/src/xpd_usart.c **** 
ARM GAS  /tmp/ccgNvlLN.s 			page 68


 2203              		.loc 1 933 28 view .LVU664
 2204 0038 DA69     		ldr	r2, [r3, #28]
 922:STM32_XPD/STM32H7_XPD/src/xpd_usart.c **** 
 2205              		.loc 1 922 21 view .LVU665
 2206 003a 616A     		ldr	r1, [r4, #36]
 925:STM32_XPD/STM32H7_XPD/src/xpd_usart.c ****         pxUSART->DMA.Receive->Callbacks.Complete      = USART_prvDmaReceiveRedirect;
 2207              		.loc 1 925 55 view .LVU666
 2208 003c 094E     		ldr	r6, .L220
 2209              	.LVL154:
 933:STM32_XPD/STM32H7_XPD/src/xpd_usart.c **** 
 2210              		.loc 1 933 28 view .LVU667
 2211 003e 22F04802 		bic	r2, r2, #72
 921:STM32_XPD/STM32H7_XPD/src/xpd_usart.c ****         pxUSART->DMA.Receive->Owner  = pxUSART;
 2212              		.loc 1 921 38 view .LVU668
 2213 0042 4461     		str	r4, [r0, #20]
 922:STM32_XPD/STM32H7_XPD/src/xpd_usart.c **** 
 2214              		.loc 1 922 9 is_stmt 1 view .LVU669
 922:STM32_XPD/STM32H7_XPD/src/xpd_usart.c **** 
 2215              		.loc 1 922 38 is_stmt 0 view .LVU670
 2216 0044 4C61     		str	r4, [r1, #20]
 925:STM32_XPD/STM32H7_XPD/src/xpd_usart.c ****         pxUSART->DMA.Receive->Callbacks.Complete      = USART_prvDmaReceiveRedirect;
 2217              		.loc 1 925 9 is_stmt 1 view .LVU671
 925:STM32_XPD/STM32H7_XPD/src/xpd_usart.c ****         pxUSART->DMA.Receive->Callbacks.Complete      = USART_prvDmaReceiveRedirect;
 2218              		.loc 1 925 55 is_stmt 0 view .LVU672
 2219 0046 C660     		str	r6, [r0, #12]
 926:STM32_XPD/STM32H7_XPD/src/xpd_usart.c **** #ifdef __XPD_DMA_ERROR_DETECT
 2220              		.loc 1 926 9 is_stmt 1 view .LVU673
 926:STM32_XPD/STM32H7_XPD/src/xpd_usart.c **** #ifdef __XPD_DMA_ERROR_DETECT
 2221              		.loc 1 926 55 is_stmt 0 view .LVU674
 2222 0048 0748     		ldr	r0, .L220+4
 2223 004a C860     		str	r0, [r1, #12]
 931:STM32_XPD/STM32H7_XPD/src/xpd_usart.c **** 
 2224              		.loc 1 931 9 is_stmt 1 view .LVU675
 933:STM32_XPD/STM32H7_XPD/src/xpd_usart.c **** 
 2225              		.loc 1 933 9 view .LVU676
 2226              	.LBE80:
 2227              	.LBE79:
 2228              		.loc 1 939 1 is_stmt 0 view .LVU677
 2229 004c 2846     		mov	r0, r5
 2230              	.LBB82:
 2231              	.LBB81:
 933:STM32_XPD/STM32H7_XPD/src/xpd_usart.c **** 
 2232              		.loc 1 933 28 view .LVU678
 2233 004e DA61     		str	r2, [r3, #28]
 935:STM32_XPD/STM32H7_XPD/src/xpd_usart.c **** 
 2234              		.loc 1 935 9 is_stmt 1 view .LVU679
 935:STM32_XPD/STM32H7_XPD/src/xpd_usart.c **** 
 2235              		.loc 1 935 28 is_stmt 0 view .LVU680
 2236 0050 9A68     		ldr	r2, [r3, #8]
 2237 0052 42F0C002 		orr	r2, r2, #192
 2238 0056 9A60     		str	r2, [r3, #8]
 2239              	.LVL155:
 935:STM32_XPD/STM32H7_XPD/src/xpd_usart.c **** 
 2240              		.loc 1 935 28 view .LVU681
 2241              	.LBE81:
 2242              	.LBE82:
 2243              		.loc 1 939 1 view .LVU682
ARM GAS  /tmp/ccgNvlLN.s 			page 69


 2244 0058 F8BD     		pop	{r3, r4, r5, r6, r7, pc}
 2245              	.LVL156:
 2246              	.L219:
 916:STM32_XPD/STM32H7_XPD/src/xpd_usart.c ****             return eResult;
 2247              		.loc 1 916 13 is_stmt 1 view .LVU683
 2248 005a 606A     		ldr	r0, [r4, #36]
 2249              	.LVL157:
 916:STM32_XPD/STM32H7_XPD/src/xpd_usart.c ****             return eResult;
 2250              		.loc 1 916 13 is_stmt 0 view .LVU684
 2251 005c FFF7FEFF 		bl	DMA_vStop_IT
 2252              	.LVL158:
 917:STM32_XPD/STM32H7_XPD/src/xpd_usart.c ****         }
 2253              		.loc 1 917 13 is_stmt 1 view .LVU685
 917:STM32_XPD/STM32H7_XPD/src/xpd_usart.c ****         }
 2254              		.loc 1 917 20 is_stmt 0 view .LVU686
 2255 0060 DDE7     		b	.L215
 2256              	.L221:
 2257 0062 00BF     		.align	2
 2258              	.L220:
 2259 0064 00000000 		.word	USART_prvDmaTransmitRedirect
 2260 0068 00000000 		.word	USART_prvDmaReceiveRedirect
 2261              		.cfi_endproc
 2262              	.LFE193:
 2264              		.section	.text.USART_eSendReceive_DMA,"ax",%progbits
 2265              		.align	1
 2266              		.p2align 2,,3
 2267              		.global	USART_eSendReceive_DMA
 2268              		.syntax unified
 2269              		.thumb
 2270              		.thumb_func
 2271              		.fpu fpv4-sp-d16
 2273              	USART_eSendReceive_DMA:
 2274              	.LVL159:
 2275              	.LFB194:
 940:STM32_XPD/STM32H7_XPD/src/xpd_usart.c **** 
 941:STM32_XPD/STM32H7_XPD/src/xpd_usart.c **** /**
 942:STM32_XPD/STM32H7_XPD/src/xpd_usart.c ****  * @brief Starts DMA-managed full-duplex data transfer over USART.
 943:STM32_XPD/STM32H7_XPD/src/xpd_usart.c ****  * @param pxUSART: pointer to the USART handle structure
 944:STM32_XPD/STM32H7_XPD/src/xpd_usart.c ****  * @param pvTxData: pointer to the transmitted data buffer
 945:STM32_XPD/STM32H7_XPD/src/xpd_usart.c ****  * @param pvRxData: pointer to the received data buffer
 946:STM32_XPD/STM32H7_XPD/src/xpd_usart.c ****  * @param usLength: amount of data transfers
 947:STM32_XPD/STM32H7_XPD/src/xpd_usart.c ****  * @return BUSY if DMA is in use, OK if transfer is started
 948:STM32_XPD/STM32H7_XPD/src/xpd_usart.c ****  */
 949:STM32_XPD/STM32H7_XPD/src/xpd_usart.c **** XPD_ReturnType USART_eSendReceive_DMA(
 950:STM32_XPD/STM32H7_XPD/src/xpd_usart.c ****         USART_HandleType *  pxUSART,
 951:STM32_XPD/STM32H7_XPD/src/xpd_usart.c ****         void *              pvTxData,
 952:STM32_XPD/STM32H7_XPD/src/xpd_usart.c ****         void *              pvRxData,
 953:STM32_XPD/STM32H7_XPD/src/xpd_usart.c ****         uint16_t            usLength)
 954:STM32_XPD/STM32H7_XPD/src/xpd_usart.c **** {
 2276              		.loc 1 954 1 is_stmt 1 view -0
 2277              		.cfi_startproc
 2278              		@ args = 0, pretend = 0, frame = 0
 2279              		@ frame_needed = 0, uses_anonymous_args = 0
 2280              		.loc 1 954 1 is_stmt 0 view .LVU688
 2281 0000 F8B5     		push	{r3, r4, r5, r6, r7, lr}
 2282              	.LCFI51:
 2283              		.cfi_def_cfa_offset 24
ARM GAS  /tmp/ccgNvlLN.s 			page 70


 2284              		.cfi_offset 3, -24
 2285              		.cfi_offset 4, -20
 2286              		.cfi_offset 5, -16
 2287              		.cfi_offset 6, -12
 2288              		.cfi_offset 7, -8
 2289              		.cfi_offset 14, -4
 2290              		.loc 1 954 1 view .LVU689
 2291 0002 0F46     		mov	r7, r1
 2292              	.LBB87:
 2293              	.LBB88:
 906:STM32_XPD/STM32H7_XPD/src/xpd_usart.c **** 
 2294              		.loc 1 906 20 view .LVU690
 2295 0004 0168     		ldr	r1, [r0]
 2296              	.LVL160:
 901:STM32_XPD/STM32H7_XPD/src/xpd_usart.c ****     pxUSART->RxStream.length = usLength;
 2297              		.loc 1 901 30 view .LVU691
 2298 0006 8262     		str	r2, [r0, #40]
 2299              	.LBE88:
 2300              	.LBE87:
 2301              		.loc 1 954 1 view .LVU692
 2302 0008 0446     		mov	r4, r0
 955:STM32_XPD/STM32H7_XPD/src/xpd_usart.c ****     XPD_ReturnType eResult = USART_eTransmitReceive_DMA(pxUSART, pvTxData, pvRxData, usLength);
 2303              		.loc 1 955 5 is_stmt 1 view .LVU693
 2304              	.LVL161:
 2305              	.LBB98:
 2306              	.LBI87:
 890:STM32_XPD/STM32H7_XPD/src/xpd_usart.c ****         USART_HandleType *  pxUSART,
 2307              		.loc 1 890 16 view .LVU694
 2308              	.LBB93:
 896:STM32_XPD/STM32H7_XPD/src/xpd_usart.c **** 
 2309              		.loc 1 896 5 view .LVU695
 899:STM32_XPD/STM32H7_XPD/src/xpd_usart.c ****     pxUSART->TxStream.length = usLength;
 2310              		.loc 1 899 5 view .LVU696
 899:STM32_XPD/STM32H7_XPD/src/xpd_usart.c ****     pxUSART->TxStream.length = usLength;
 2311              		.loc 1 899 30 is_stmt 0 view .LVU697
 2312 000a 0763     		str	r7, [r0, #48]
 900:STM32_XPD/STM32H7_XPD/src/xpd_usart.c ****     pxUSART->RxStream.buffer = pvRxData;
 2313              		.loc 1 900 5 is_stmt 1 view .LVU698
 905:STM32_XPD/STM32H7_XPD/src/xpd_usart.c ****             (void*)&USART_RXDR(pxUSART), pvRxData, usLength);
 2314              		.loc 1 905 15 is_stmt 0 view .LVU699
 2315 000c 2431     		adds	r1, r1, #36
 900:STM32_XPD/STM32H7_XPD/src/xpd_usart.c ****     pxUSART->RxStream.buffer = pvRxData;
 2316              		.loc 1 900 30 view .LVU700
 2317 000e 8386     		strh	r3, [r0, #52]	@ movhi
 901:STM32_XPD/STM32H7_XPD/src/xpd_usart.c ****     pxUSART->RxStream.length = usLength;
 2318              		.loc 1 901 5 is_stmt 1 view .LVU701
 902:STM32_XPD/STM32H7_XPD/src/xpd_usart.c **** 
 2319              		.loc 1 902 5 view .LVU702
 2320              	.LBE93:
 2321              	.LBE98:
 954:STM32_XPD/STM32H7_XPD/src/xpd_usart.c ****     XPD_ReturnType eResult = USART_eTransmitReceive_DMA(pxUSART, pvTxData, pvRxData, usLength);
 2322              		.loc 1 954 1 is_stmt 0 view .LVU703
 2323 0010 1E46     		mov	r6, r3
 2324              	.LBB99:
 2325              	.LBB94:
 902:STM32_XPD/STM32H7_XPD/src/xpd_usart.c **** 
 2326              		.loc 1 902 30 view .LVU704
ARM GAS  /tmp/ccgNvlLN.s 			page 71


 2327 0012 8385     		strh	r3, [r0, #44]	@ movhi
 905:STM32_XPD/STM32H7_XPD/src/xpd_usart.c ****             (void*)&USART_RXDR(pxUSART), pvRxData, usLength);
 2328              		.loc 1 905 5 is_stmt 1 view .LVU705
 905:STM32_XPD/STM32H7_XPD/src/xpd_usart.c ****             (void*)&USART_RXDR(pxUSART), pvRxData, usLength);
 2329              		.loc 1 905 15 is_stmt 0 view .LVU706
 2330 0014 406A     		ldr	r0, [r0, #36]
 2331              	.LVL162:
 905:STM32_XPD/STM32H7_XPD/src/xpd_usart.c ****             (void*)&USART_RXDR(pxUSART), pvRxData, usLength);
 2332              		.loc 1 905 15 view .LVU707
 2333 0016 FFF7FEFF 		bl	DMA_eStart_IT
 2334              	.LVL163:
 908:STM32_XPD/STM32H7_XPD/src/xpd_usart.c ****     {
 2335              		.loc 1 908 5 is_stmt 1 view .LVU708
 908:STM32_XPD/STM32H7_XPD/src/xpd_usart.c ****     {
 2336              		.loc 1 908 8 is_stmt 0 view .LVU709
 2337 001a 0546     		mov	r5, r0
 2338 001c 08B1     		cbz	r0, .L226
 2339              	.LVL164:
 2340              	.L223:
 908:STM32_XPD/STM32H7_XPD/src/xpd_usart.c ****     {
 2341              		.loc 1 908 8 view .LVU710
 2342              	.LBE94:
 2343              	.LBE99:
 956:STM32_XPD/STM32H7_XPD/src/xpd_usart.c **** 
 957:STM32_XPD/STM32H7_XPD/src/xpd_usart.c ****     if (eResult == XPD_OK)
 958:STM32_XPD/STM32H7_XPD/src/xpd_usart.c ****     {
 959:STM32_XPD/STM32H7_XPD/src/xpd_usart.c ****         pxUSART->Inst->CR1 |= USART_CR1_TCIE;
 960:STM32_XPD/STM32H7_XPD/src/xpd_usart.c ****     }
 961:STM32_XPD/STM32H7_XPD/src/xpd_usart.c **** 
 962:STM32_XPD/STM32H7_XPD/src/xpd_usart.c ****     return eResult;
 2344              		.loc 1 962 5 is_stmt 1 view .LVU711
 963:STM32_XPD/STM32H7_XPD/src/xpd_usart.c **** }
 2345              		.loc 1 963 1 is_stmt 0 view .LVU712
 2346 001e 2846     		mov	r0, r5
 2347 0020 F8BD     		pop	{r3, r4, r5, r6, r7, pc}
 2348              	.LVL165:
 2349              	.L226:
 2350              	.LBB100:
 2351              	.LBB95:
 910:STM32_XPD/STM32H7_XPD/src/xpd_usart.c ****                 (void*)&USART_TXDR(pxUSART), pvTxData, usLength);
 2352              		.loc 1 910 9 is_stmt 1 view .LVU713
 911:STM32_XPD/STM32H7_XPD/src/xpd_usart.c **** 
 2353              		.loc 1 911 24 is_stmt 0 view .LVU714
 2354 0022 2168     		ldr	r1, [r4]
 910:STM32_XPD/STM32H7_XPD/src/xpd_usart.c ****                 (void*)&USART_TXDR(pxUSART), pvTxData, usLength);
 2355              		.loc 1 910 19 view .LVU715
 2356 0024 3346     		mov	r3, r6
 2357 0026 3A46     		mov	r2, r7
 2358 0028 206A     		ldr	r0, [r4, #32]
 2359              	.LVL166:
 910:STM32_XPD/STM32H7_XPD/src/xpd_usart.c ****                 (void*)&USART_TXDR(pxUSART), pvTxData, usLength);
 2360              		.loc 1 910 19 view .LVU716
 2361 002a 2831     		adds	r1, r1, #40
 2362 002c FFF7FEFF 		bl	DMA_eStart_IT
 2363              	.LVL167:
 914:STM32_XPD/STM32H7_XPD/src/xpd_usart.c ****         {
 2364              		.loc 1 914 9 is_stmt 1 view .LVU717
ARM GAS  /tmp/ccgNvlLN.s 			page 72


 914:STM32_XPD/STM32H7_XPD/src/xpd_usart.c ****         {
 2365              		.loc 1 914 12 is_stmt 0 view .LVU718
 2366 0030 0546     		mov	r5, r0
 2367 0032 B0B9     		cbnz	r0, .L227
 2368              	.LVL168:
 2369              	.LBB89:
 2370              	.LBI89:
 890:STM32_XPD/STM32H7_XPD/src/xpd_usart.c ****         USART_HandleType *  pxUSART,
 2371              		.loc 1 890 16 is_stmt 1 view .LVU719
 2372              	.LBB90:
 921:STM32_XPD/STM32H7_XPD/src/xpd_usart.c ****         pxUSART->DMA.Receive->Owner  = pxUSART;
 2373              		.loc 1 921 9 view .LVU720
 933:STM32_XPD/STM32H7_XPD/src/xpd_usart.c **** 
 2374              		.loc 1 933 16 is_stmt 0 view .LVU721
 2375 0034 2368     		ldr	r3, [r4]
 921:STM32_XPD/STM32H7_XPD/src/xpd_usart.c ****         pxUSART->DMA.Receive->Owner  = pxUSART;
 2376              		.loc 1 921 21 view .LVU722
 2377 0036 206A     		ldr	r0, [r4, #32]
 2378              	.LVL169:
 933:STM32_XPD/STM32H7_XPD/src/xpd_usart.c **** 
 2379              		.loc 1 933 28 view .LVU723
 2380 0038 DA69     		ldr	r2, [r3, #28]
 922:STM32_XPD/STM32H7_XPD/src/xpd_usart.c **** 
 2381              		.loc 1 922 21 view .LVU724
 2382 003a 616A     		ldr	r1, [r4, #36]
 925:STM32_XPD/STM32H7_XPD/src/xpd_usart.c ****         pxUSART->DMA.Receive->Callbacks.Complete      = USART_prvDmaReceiveRedirect;
 2383              		.loc 1 925 55 view .LVU725
 2384 003c 0B4E     		ldr	r6, .L228
 2385              	.LVL170:
 933:STM32_XPD/STM32H7_XPD/src/xpd_usart.c **** 
 2386              		.loc 1 933 28 view .LVU726
 2387 003e 22F04802 		bic	r2, r2, #72
 921:STM32_XPD/STM32H7_XPD/src/xpd_usart.c ****         pxUSART->DMA.Receive->Owner  = pxUSART;
 2388              		.loc 1 921 38 view .LVU727
 2389 0042 4461     		str	r4, [r0, #20]
 922:STM32_XPD/STM32H7_XPD/src/xpd_usart.c **** 
 2390              		.loc 1 922 9 is_stmt 1 view .LVU728
 922:STM32_XPD/STM32H7_XPD/src/xpd_usart.c **** 
 2391              		.loc 1 922 38 is_stmt 0 view .LVU729
 2392 0044 4C61     		str	r4, [r1, #20]
 925:STM32_XPD/STM32H7_XPD/src/xpd_usart.c ****         pxUSART->DMA.Receive->Callbacks.Complete      = USART_prvDmaReceiveRedirect;
 2393              		.loc 1 925 9 is_stmt 1 view .LVU730
 925:STM32_XPD/STM32H7_XPD/src/xpd_usart.c ****         pxUSART->DMA.Receive->Callbacks.Complete      = USART_prvDmaReceiveRedirect;
 2394              		.loc 1 925 55 is_stmt 0 view .LVU731
 2395 0046 C660     		str	r6, [r0, #12]
 926:STM32_XPD/STM32H7_XPD/src/xpd_usart.c **** #ifdef __XPD_DMA_ERROR_DETECT
 2396              		.loc 1 926 9 is_stmt 1 view .LVU732
 926:STM32_XPD/STM32H7_XPD/src/xpd_usart.c **** #ifdef __XPD_DMA_ERROR_DETECT
 2397              		.loc 1 926 55 is_stmt 0 view .LVU733
 2398 0048 0948     		ldr	r0, .L228+4
 2399 004a C860     		str	r0, [r1, #12]
 931:STM32_XPD/STM32H7_XPD/src/xpd_usart.c **** 
 2400              		.loc 1 931 9 is_stmt 1 view .LVU734
 933:STM32_XPD/STM32H7_XPD/src/xpd_usart.c **** 
 2401              		.loc 1 933 9 view .LVU735
 2402              	.LBE90:
 2403              	.LBE89:
ARM GAS  /tmp/ccgNvlLN.s 			page 73


 2404              	.LBE95:
 2405              	.LBE100:
 2406              		.loc 1 963 1 is_stmt 0 view .LVU736
 2407 004c 2846     		mov	r0, r5
 2408              	.LBB101:
 2409              	.LBB96:
 2410              	.LBB92:
 2411              	.LBB91:
 933:STM32_XPD/STM32H7_XPD/src/xpd_usart.c **** 
 2412              		.loc 1 933 28 view .LVU737
 2413 004e DA61     		str	r2, [r3, #28]
 935:STM32_XPD/STM32H7_XPD/src/xpd_usart.c **** 
 2414              		.loc 1 935 9 is_stmt 1 view .LVU738
 935:STM32_XPD/STM32H7_XPD/src/xpd_usart.c **** 
 2415              		.loc 1 935 28 is_stmt 0 view .LVU739
 2416 0050 9A68     		ldr	r2, [r3, #8]
 2417 0052 42F0C002 		orr	r2, r2, #192
 2418 0056 9A60     		str	r2, [r3, #8]
 2419              	.LVL171:
 935:STM32_XPD/STM32H7_XPD/src/xpd_usart.c **** 
 2420              		.loc 1 935 28 view .LVU740
 2421              	.LBE91:
 2422              	.LBE92:
 2423              	.LBE96:
 2424              	.LBE101:
 957:STM32_XPD/STM32H7_XPD/src/xpd_usart.c ****     {
 2425              		.loc 1 957 5 is_stmt 1 view .LVU741
 959:STM32_XPD/STM32H7_XPD/src/xpd_usart.c ****     }
 2426              		.loc 1 959 9 view .LVU742
 959:STM32_XPD/STM32H7_XPD/src/xpd_usart.c ****     }
 2427              		.loc 1 959 28 is_stmt 0 view .LVU743
 2428 0058 1A68     		ldr	r2, [r3]
 2429 005a 42F04002 		orr	r2, r2, #64
 2430 005e 1A60     		str	r2, [r3]
 2431              	.LVL172:
 962:STM32_XPD/STM32H7_XPD/src/xpd_usart.c **** }
 2432              		.loc 1 962 5 is_stmt 1 view .LVU744
 2433              		.loc 1 963 1 is_stmt 0 view .LVU745
 2434 0060 F8BD     		pop	{r3, r4, r5, r6, r7, pc}
 2435              	.LVL173:
 2436              	.L227:
 2437              	.LBB102:
 2438              	.LBB97:
 916:STM32_XPD/STM32H7_XPD/src/xpd_usart.c ****             return eResult;
 2439              		.loc 1 916 13 is_stmt 1 view .LVU746
 2440 0062 606A     		ldr	r0, [r4, #36]
 2441              	.LVL174:
 916:STM32_XPD/STM32H7_XPD/src/xpd_usart.c ****             return eResult;
 2442              		.loc 1 916 13 is_stmt 0 view .LVU747
 2443 0064 FFF7FEFF 		bl	DMA_vStop_IT
 2444              	.LVL175:
 917:STM32_XPD/STM32H7_XPD/src/xpd_usart.c ****         }
 2445              		.loc 1 917 13 is_stmt 1 view .LVU748
 917:STM32_XPD/STM32H7_XPD/src/xpd_usart.c ****         }
 2446              		.loc 1 917 20 is_stmt 0 view .LVU749
 2447 0068 D9E7     		b	.L223
 2448              	.L229:
ARM GAS  /tmp/ccgNvlLN.s 			page 74


 2449 006a 00BF     		.align	2
 2450              	.L228:
 2451 006c 00000000 		.word	USART_prvDmaTransmitRedirect
 2452 0070 00000000 		.word	USART_prvDmaReceiveRedirect
 2453              	.LBE97:
 2454              	.LBE102:
 2455              		.cfi_endproc
 2456              	.LFE194:
 2458              		.section	.text.USART_vStop_DMA,"ax",%progbits
 2459              		.align	1
 2460              		.p2align 2,,3
 2461              		.global	USART_vStop_DMA
 2462              		.syntax unified
 2463              		.thumb
 2464              		.thumb_func
 2465              		.fpu fpv4-sp-d16
 2467              	USART_vStop_DMA:
 2468              	.LVL176:
 2469              	.LFB195:
 964:STM32_XPD/STM32H7_XPD/src/xpd_usart.c **** 
 965:STM32_XPD/STM32H7_XPD/src/xpd_usart.c **** /**
 966:STM32_XPD/STM32H7_XPD/src/xpd_usart.c ****  * @brief Stops all ongoing DMA-managed transfers over USART.
 967:STM32_XPD/STM32H7_XPD/src/xpd_usart.c ****  * @param pxUSART: pointer to the USART handle structure
 968:STM32_XPD/STM32H7_XPD/src/xpd_usart.c ****  */
 969:STM32_XPD/STM32H7_XPD/src/xpd_usart.c **** void USART_vStop_DMA(USART_HandleType * pxUSART)
 970:STM32_XPD/STM32H7_XPD/src/xpd_usart.c **** {
 2470              		.loc 1 970 1 is_stmt 1 view -0
 2471              		.cfi_startproc
 2472              		@ args = 0, pretend = 0, frame = 0
 2473              		@ frame_needed = 0, uses_anonymous_args = 0
 971:STM32_XPD/STM32H7_XPD/src/xpd_usart.c ****     /* Transmit DMA disable */
 972:STM32_XPD/STM32H7_XPD/src/xpd_usart.c ****   if ((pxUSART->Inst->CR3 & USART_CR3_DMAT_Msk) != 0)
 2474              		.loc 1 972 3 view .LVU751
 2475              		.loc 1 972 15 is_stmt 0 view .LVU752
 2476 0000 0368     		ldr	r3, [r0]
 2477              		.loc 1 972 21 view .LVU753
 2478 0002 9A68     		ldr	r2, [r3, #8]
 2479              		.loc 1 972 6 view .LVU754
 2480 0004 1106     		lsls	r1, r2, #24
 970:STM32_XPD/STM32H7_XPD/src/xpd_usart.c ****     /* Transmit DMA disable */
 2481              		.loc 1 970 1 view .LVU755
 2482 0006 10B5     		push	{r4, lr}
 2483              	.LCFI52:
 2484              		.cfi_def_cfa_offset 8
 2485              		.cfi_offset 4, -8
 2486              		.cfi_offset 14, -4
 970:STM32_XPD/STM32H7_XPD/src/xpd_usart.c ****     /* Transmit DMA disable */
 2487              		.loc 1 970 1 view .LVU756
 2488 0008 0446     		mov	r4, r0
 2489              		.loc 1 972 6 view .LVU757
 2490 000a 03D4     		bmi	.L237
 973:STM32_XPD/STM32H7_XPD/src/xpd_usart.c ****     {
 974:STM32_XPD/STM32H7_XPD/src/xpd_usart.c ****         uint16_t remaining;
 975:STM32_XPD/STM32H7_XPD/src/xpd_usart.c ****         pxUSART->Inst->CR3 &= ~USART_CR3_DMAT;
 976:STM32_XPD/STM32H7_XPD/src/xpd_usart.c **** 
 977:STM32_XPD/STM32H7_XPD/src/xpd_usart.c ****         /* Read remaining transfer count */
 978:STM32_XPD/STM32H7_XPD/src/xpd_usart.c ****         remaining = DMA_usGetStatus(pxUSART->DMA.Transmit);
ARM GAS  /tmp/ccgNvlLN.s 			page 75


 979:STM32_XPD/STM32H7_XPD/src/xpd_usart.c **** 
 980:STM32_XPD/STM32H7_XPD/src/xpd_usart.c ****         /* Update transfer context */
 981:STM32_XPD/STM32H7_XPD/src/xpd_usart.c ****         pxUSART->TxStream.buffer += (pxUSART->TxStream.length - remaining)
 982:STM32_XPD/STM32H7_XPD/src/xpd_usart.c ****                 * pxUSART->TxStream.size;
 983:STM32_XPD/STM32H7_XPD/src/xpd_usart.c ****         pxUSART->TxStream.length = remaining;
 984:STM32_XPD/STM32H7_XPD/src/xpd_usart.c **** 
 985:STM32_XPD/STM32H7_XPD/src/xpd_usart.c ****         DMA_vStop_IT(pxUSART->DMA.Transmit);
 986:STM32_XPD/STM32H7_XPD/src/xpd_usart.c ****     }
 987:STM32_XPD/STM32H7_XPD/src/xpd_usart.c ****     /* Receive DMA disable */
 988:STM32_XPD/STM32H7_XPD/src/xpd_usart.c ****     if ((pxUSART->Inst->CR3 & USART_CR3_DMAR) != 0)
 2491              		.loc 1 988 5 is_stmt 1 view .LVU758
 2492              		.loc 1 988 23 is_stmt 0 view .LVU759
 2493 000c 9A68     		ldr	r2, [r3, #8]
 2494              		.loc 1 988 8 view .LVU760
 2495 000e 5206     		lsls	r2, r2, #25
 2496 0010 16D4     		bmi	.L238
 2497              	.LVL177:
 2498              	.L230:
 989:STM32_XPD/STM32H7_XPD/src/xpd_usart.c ****     {
 990:STM32_XPD/STM32H7_XPD/src/xpd_usart.c ****         uint16_t remaining;
 991:STM32_XPD/STM32H7_XPD/src/xpd_usart.c ****         pxUSART->Inst->CR3 &= ~USART_CR3_DMAR;
 992:STM32_XPD/STM32H7_XPD/src/xpd_usart.c **** 
 993:STM32_XPD/STM32H7_XPD/src/xpd_usart.c ****         /* Read remaining transfer count */
 994:STM32_XPD/STM32H7_XPD/src/xpd_usart.c ****         remaining = DMA_usGetStatus(pxUSART->DMA.Receive);
 995:STM32_XPD/STM32H7_XPD/src/xpd_usart.c **** 
 996:STM32_XPD/STM32H7_XPD/src/xpd_usart.c ****         /* Update transfer context */
 997:STM32_XPD/STM32H7_XPD/src/xpd_usart.c ****         pxUSART->RxStream.buffer += (pxUSART->RxStream.length - remaining)
 998:STM32_XPD/STM32H7_XPD/src/xpd_usart.c ****                 * pxUSART->RxStream.size;
 999:STM32_XPD/STM32H7_XPD/src/xpd_usart.c ****         pxUSART->RxStream.length = remaining;
1000:STM32_XPD/STM32H7_XPD/src/xpd_usart.c **** 
1001:STM32_XPD/STM32H7_XPD/src/xpd_usart.c ****         DMA_vStop_IT(pxUSART->DMA.Receive);
1002:STM32_XPD/STM32H7_XPD/src/xpd_usart.c ****     }
1003:STM32_XPD/STM32H7_XPD/src/xpd_usart.c **** }
 2499              		.loc 1 1003 1 view .LVU761
 2500 0012 10BD     		pop	{r4, pc}
 2501              	.LVL178:
 2502              	.L237:
 2503              	.LBB103:
 974:STM32_XPD/STM32H7_XPD/src/xpd_usart.c ****         pxUSART->Inst->CR3 &= ~USART_CR3_DMAT;
 2504              		.loc 1 974 9 is_stmt 1 view .LVU762
 975:STM32_XPD/STM32H7_XPD/src/xpd_usart.c **** 
 2505              		.loc 1 975 9 view .LVU763
 975:STM32_XPD/STM32H7_XPD/src/xpd_usart.c **** 
 2506              		.loc 1 975 28 is_stmt 0 view .LVU764
 2507 0014 9A68     		ldr	r2, [r3, #8]
 978:STM32_XPD/STM32H7_XPD/src/xpd_usart.c **** 
 2508              		.loc 1 978 21 view .LVU765
 2509 0016 006A     		ldr	r0, [r0, #32]
 2510              	.LVL179:
 975:STM32_XPD/STM32H7_XPD/src/xpd_usart.c **** 
 2511              		.loc 1 975 28 view .LVU766
 2512 0018 22F08002 		bic	r2, r2, #128
 2513 001c 9A60     		str	r2, [r3, #8]
 978:STM32_XPD/STM32H7_XPD/src/xpd_usart.c **** 
 2514              		.loc 1 978 9 is_stmt 1 view .LVU767
 978:STM32_XPD/STM32H7_XPD/src/xpd_usart.c **** 
 2515              		.loc 1 978 21 is_stmt 0 view .LVU768
ARM GAS  /tmp/ccgNvlLN.s 			page 76


 2516 001e FFF7FEFF 		bl	DMA_usGetStatus
 2517              	.LVL180:
 981:STM32_XPD/STM32H7_XPD/src/xpd_usart.c ****                 * pxUSART->TxStream.size;
 2518              		.loc 1 981 55 view .LVU769
 2519 0022 A38E     		ldrh	r3, [r4, #52]
 2520              	.LVL181:
 981:STM32_XPD/STM32H7_XPD/src/xpd_usart.c ****                 * pxUSART->TxStream.size;
 2521              		.loc 1 981 9 is_stmt 1 view .LVU770
 981:STM32_XPD/STM32H7_XPD/src/xpd_usart.c ****                 * pxUSART->TxStream.size;
 2522              		.loc 1 981 34 is_stmt 0 view .LVU771
 2523 0024 226B     		ldr	r2, [r4, #48]
 982:STM32_XPD/STM32H7_XPD/src/xpd_usart.c ****         pxUSART->TxStream.length = remaining;
 2524              		.loc 1 982 36 view .LVU772
 2525 0026 E18E     		ldrh	r1, [r4, #54]
 981:STM32_XPD/STM32H7_XPD/src/xpd_usart.c ****                 * pxUSART->TxStream.size;
 2526              		.loc 1 981 63 view .LVU773
 2527 0028 1B1A     		subs	r3, r3, r0
 983:STM32_XPD/STM32H7_XPD/src/xpd_usart.c **** 
 2528              		.loc 1 983 34 view .LVU774
 2529 002a A086     		strh	r0, [r4, #52]	@ movhi
 981:STM32_XPD/STM32H7_XPD/src/xpd_usart.c ****                 * pxUSART->TxStream.size;
 2530              		.loc 1 981 34 view .LVU775
 2531 002c 01FB0323 		mla	r3, r1, r3, r2
 985:STM32_XPD/STM32H7_XPD/src/xpd_usart.c ****     }
 2532              		.loc 1 985 9 view .LVU776
 2533 0030 206A     		ldr	r0, [r4, #32]
 2534              	.LVL182:
 981:STM32_XPD/STM32H7_XPD/src/xpd_usart.c ****                 * pxUSART->TxStream.size;
 2535              		.loc 1 981 34 view .LVU777
 2536 0032 2363     		str	r3, [r4, #48]
 983:STM32_XPD/STM32H7_XPD/src/xpd_usart.c **** 
 2537              		.loc 1 983 9 is_stmt 1 view .LVU778
 985:STM32_XPD/STM32H7_XPD/src/xpd_usart.c ****     }
 2538              		.loc 1 985 9 view .LVU779
 2539 0034 FFF7FEFF 		bl	DMA_vStop_IT
 2540              	.LVL183:
 985:STM32_XPD/STM32H7_XPD/src/xpd_usart.c ****     }
 2541              		.loc 1 985 9 is_stmt 0 view .LVU780
 2542 0038 2368     		ldr	r3, [r4]
 2543              	.LBE103:
 988:STM32_XPD/STM32H7_XPD/src/xpd_usart.c ****     {
 2544              		.loc 1 988 5 is_stmt 1 view .LVU781
 988:STM32_XPD/STM32H7_XPD/src/xpd_usart.c ****     {
 2545              		.loc 1 988 23 is_stmt 0 view .LVU782
 2546 003a 9A68     		ldr	r2, [r3, #8]
 988:STM32_XPD/STM32H7_XPD/src/xpd_usart.c ****     {
 2547              		.loc 1 988 8 view .LVU783
 2548 003c 5206     		lsls	r2, r2, #25
 2549 003e E8D5     		bpl	.L230
 2550              	.L238:
 2551              	.LBB104:
